Vc:_glClearStencil
Ngk:_UInt16_System_IConvertible_ToChar_m2096055221_AdjustorThunk
oYh:_MaskableGraphic_OnCanvasHierarchyChanged_m1780820310
gHj:_Array_TrueForAll_TisRuntimeObject_m1084992726_gshared
iRd:__ZN5physx2Gu19gjkLocalPenetrationINS0_8CapsuleVENS0_17ShrunkConvexHullVEEEjRKT_RKT0_RKNS_6shdfnd3aos6FloatVERNSB_5Vec3VESG_SG_RSC_PhSI_Rhb
$he:__ZN5physx2Sc27ConstraintProjectionManager29removeFromPendingGroupUpdatesERNS0_13ConstraintSimE
IDm:__ZN6il2cpp2vm5Array13GetByteLengthEP11Il2CppArray
j8k:_Array_InternalArray__set_Item_TisDateTime_t3738529785_m1331437427_gshared
xMl:_KeyBuilder_get_Rng_m3373220441
vTa:__Z30GetIntermediateRendererManagerv
jX:__ZN10StateRange8TransferI14SafeBinaryReadEEvRT_
$cb:__Z21SourceMipLevelForBlitiiii
AZa:__ZN31CanvasBatchIntermediateRenderer15AddAsRenderNodeER15RenderNodeQueueRK20DeprecatedSourceData
$dk:_TimeSpan_get_Hours_m550761902
QHc:__ZN9ShaderLab9SubShader15FindNamedPassesERKN4core12basic_stringIcNS1_20StringStorageDefaultIcEEEER13dynamic_arrayIPNS_4PassELj0EE
EOg:__ZL63PlayableOutputHandle_t4208053793_CustomAttributesCacheGeneratorP21CustomAttributesCache
zja:__ZN11UnityEngine15CloudWebService26CloudServiceEventWithParam12ToJsonStringER9JSONWrite
wOc:__Z59Register_UnityEngine_PlayerConnectionInternal_DisconnectAllv
VPl:_AnalyticsEventTracker_SendEvent_m1365958832
$Le:__ZNK5physx2Sc5Scene24getContactModifyCallbackEv
FC:__ZN11UnityEngine9Animation28GenericAnimationBindingCacheD2Ev
gPe:__ZN5physx2Sq10AABBPruner10addObjectsEPjPKNS_9PxBounds3EPKNS0_13PrunerPayloadEj
cDl:_X509Store_LoadCrl_m1881903843
Lal:_Array_Sort_TisUICharInfo_t75501106_TisUICharInfo_t75501106_m722747892_gshared
Hrm:_il2cpp_runtime_unhandled_exception_policy_set
Wzf:__ZN20TextRenderingPrivate21TextMeshGeneratorImpl24GetCursorIndexAtPositionERK5RectTIfERK8Vector2f
Zb:invoke_viiiifiiiiif
dxc:__Z18RestoreRenderStateR20CameraRenderOldStateR17ShaderPassContext
sXb:__Z18Transfer_BlittableI18StreamedBinaryReadILb1EELb1E5RectTIfEEvRK29SerializationCommandArgumentsR31RuntimeSerializationCommandInfo
fTb:__Z18Transfer_BlittableI24GenerateTypeTreeTransferLb0E11ColorRGBA32EvRK29SerializationCommandArgumentsR31RuntimeSerializationCommandInfo
k0b:__Z25scripting_class_from_name17ScriptingImagePtrPKcS1_
y7k:_Array_InternalArray__Insert_TisSingle_t1397266774_m3161726127_gshared
pom:__ZN14dense_hash_mapI10KeyWrapperINSt3__24pairIPK12PropertyInfoP11Il2CppClassEEEj17ReflectionMapHashIS8_ENS9_14EqualsComparerINS1_8equal_toIS8_EEEENS1_9allocatorINS2_IKS9_jEEEEE15set_deleted_keyERSH_
c2b:__Z29scripting_class_enum_basetype17ScriptingClassPtr
y2d:__ZN5physx6shdfnd8PoolBaseINS_2Sc10NPhaseCore16ClothListElementENS0_19ReflectionAllocatorIS4_EEE17releaseEmptySlabsEv
lef:__Z20GetPhysicsModuleSpecv
mbd:__ZN6IDList10BeginOnGUIEv
ewm:__ZN6il2cpp2vm9Exception25RaiseOutOfMemoryExceptionERKNS_5utils10StringViewIDsEEP19Il2CppSequencePoint
e6e:__ZN5physx2Sc14ConstraintCore10breakApartEv
vFa:__ZL43__ManagedRegistrationHelperFunction_TexturePv
Qqi:_InternalEnumerator_1_get_Current_m1477715453_gshared
n_:__ZN18StreamedBinaryReadILb0EE21TransferSTLStyleArrayI22OffsetPtrArrayTransferIN4math8ColliderEEEEvRT_17TransferMetaFlags
KIg:__ZL118TouchScreenKeyboard_t731888065_CustomAttributesCacheGenerator_TouchScreenKeyboard_Open_m3609399077____textPlaceholder6P21CustomAttributesCache
Pcf:__ZN5physx7Cooking20loadTriangleMeshDescERKNS_18PxTriangleMeshDescERNS_19TriangleMeshBuilderE
avl:_Collection_1_System_Collections_IList_Remove_m1476284619_gshared
FOi:_SHA1CryptoServiceProvider__ctor_m4195188793
iom:__ZN15dense_hashtableINSt3__24pairIK10KeyWrapperINS1_IPK9EventInfoP11Il2CppClassEEEjEES9_17ReflectionMapHashIS8_EN14dense_hash_mapIS9_jSD_NS9_14EqualsComparerINS0_8equal_toIS8_EEEENS0_9allocatorISB_EEE9SelectKeyESI_SK_E15set_deleted_keyERKSB_
JIa:__ZN9Scripting11UnityEngine9Profiling8Recorder12CleanupProxyEv
F1f:_Graphic_get_defaultGraphicMaterial_m3107284931
s$b:__ZN18StreamedBinaryReadILb0EE21TransferSTLStyleArrayI13dynamic_arrayI11ColorRGBA32Lj0EEEEvRT_17TransferMetaFlags
w0f:_Dropdown_Hide_m504034854
Veh:_NumberFormatter_NumberToString_m264078176
qJa:__ZN9Scripting11UnityEngine20ManagedStreamHelpers9InitProxyEv
BGh:_Vector2_get_up_m2647420593
Tbc:__ZN7ApiGLES17CopyBufferSubDataEjjlll
hNj:_Array_InternalArray__ICollection_CopyTo_TisUInt64_t4134040092_m691431926_gshared
y6h:_IPAddress_ToString_m1181734207
w9j:_StringBuilder_Append_m1965104174
ndd:__ZN5Unity9rapidjson15GenericDocumentINS0_4UTF8IcEE13JSONAllocatorS4_E11ParseStreamILj1ES3_NS0_25GenericInsituStringStreamIS3_EEEERS5_RT1_
z_j:_EqualityComparer_1__cctor_m3766928733_gshared
_Ck:_UnityAction_1_Invoke_m610765085_gshared
Eea:__ZN11AudioModule26SetDefaultMicrophoneDriverEPv
ICi:_Kernel_modInverse_m652700340
$Yg:__ZL57CanvasRenderer_t2598313366_CustomAttributesCacheGeneratorP21CustomAttributesCache
ucd:__ZN5IMGUI18RepaintModalWindowER8GUIState
tWa:__ZNK15dense_hashtableINSt3__24pairIKN9ShaderLab7Program23ShaderKeywordSetAndHashEPKNS2_10SubProgramEEES4_NS3_24ShaderKeywordHashFunctorEN14dense_hash_mapIS4_S8_SA_NS0_8equal_toIS4_EE13stl_allocatorIS9_L18MemLabelIdentifier67ELi16EEE9SelectKeyESD_SG_E23find_position_with_hashERS5_j
edj:_CompareInfo_Finalize_m404687489
Vhb:__Z23SetSpriteMeshIndexCountP14SharedMeshDataj
Abk:_UTF8Decoder_GetChars_m1236346907
tHm:__ZN6il2cpp8metadata13GenericMethod9GetMethodEPK19Il2CppGenericMethod
Iw:__ZNSt3__26vectorIN4core12basic_stringIcNS1_20StringStorageDefaultIcEEEENS_9allocatorIS5_EEE7reserveEj
ehh:_Default_SelectProperty_m1220817815
kCh:_Transform_TransformPoint_m226827784
S7b:__ZN13GfxDeviceGLES11SetViewportERK5RectTIiE
GFd:__Z19UpdateSingleRow2TplIL27ParticleSystemCurveEvalMode3ELS0_2EEvfRK11MinMaxCurveS3_RK23ParticleSystemParticlesPfbiii
_7c:__Z24Time_Get_Custom_PropTimev
M9d:__ZN5physx3Scb5Scene14addRigidStaticERNS0_11RigidStaticEb
ne:_emscripten_glDepthRange
Cxl:_SslStreamBase_BeginNegotiateHandshake_m4180435790
wkf:__ZN9Scripting11UnityEngine10UILineInfo12CleanupProxyEv
XWd:__ZN5physx2Gu24contactConvexHeightfieldERKNS0_13GeometryUnionES3_RKNS_11PxTransformES6_RKfRNS0_5CacheERNS0_13ContactBufferE
d7d:__ZN5physx6shdfnd5ArrayIPvNS0_19ReflectionAllocatorINS_2Cm5BlockIS2_Lj8EEEEEE15growAndPushBackERKS2_
wzc:__ZNSt3__26vectorINS_4pairIN4core12basic_stringIcNS2_20StringStorageDefaultIcEEEES6_EE13stl_allocatorIS7_L18MemLabelIdentifier38ELi16EEE12__move_rangeEPS7_SC_SC_
pEc:__Z14resize_trimmedINSt3__26vectorIN9ShaderLab20SerializedSubProgram12UAVParameterENS0_9allocatorIS4_EEEEEvRT_j
tdd:__ZN5Unity9rapidjson13GenericReaderINS0_4UTF8IcEES3_13JSONAllocatorE11ParseObjectILj1ENS0_25GenericInsituStringStreamIS3_EENS0_15GenericDocumentIS3_S4_S4_EEEEvRT0_RT1_
k1c:__Z10DestripifyPKjjRNSt3__26vectorIj13stl_allocatorIjL18MemLabelIdentifier1ELi16EEEE
WWf:_StandaloneInputModule_GetRawMoveVector_m2737091079
x3g:__ZL62Selectable_t3250028441_CustomAttributesCacheGenerator_m_ColorsP21CustomAttributesCache
Mtj:_Convert_ToDateTime_m2616935982
dac:__ZThn10632_N13GfxDeviceGLES22SetScissorRectPlatformERK5RectTIiE
kyl:_SslStreamBase_EndWrite_m4073224031
pva:__ZNSt3__218__insertion_sort_3IRNS_6__lessI14ObjectLoadDataS2_EEPS2_EEvT0_S6_T_
RFa:__ZL50__ManagedRegistrationHelperFunction_PostLateUpdatePv
Ccb:__ZN4crndL20crnd_default_reallocEPvjPjbS0_
kXe:__ZN5physx24PxsComputeAABBLocalSpaceERKNS_18PxcAABBDataDynamicERNS_9PxBounds3E
bjb:__ZN18SpriteAtlasManager19AddRequestingSpriteE4PPtrI6SpriteE
j2c:__ZN16PackedQuatVector9PackQuatsEP11Quaternionfi
C$c:__Z20IsValidRealtimeLightRK15SharedLightData9LightTypej
tah:_UnmanagedMemoryStream_Write_m930787521
iwc:__ZN23ScriptableRenderContextC2Ev
YU:__ZN7mecanim9animation18ClipMuscleConstant8TransferI24GenerateTypeTreeTransferEEvRT_
k3f:_GridLayoutGroup_get_spacing_m2409263614
z8j:_List_1_CheckIndex_m581273900_gshared
Uwf:_UNITY_FT_Stream_GetChar
TXb:__Z18Transfer_BlittableI18StreamedBinaryReadILb1EELb1EdEvRK29SerializationCommandArgumentsR31RuntimeSerializationCommandInfo
vq:__ZN15NavMeshSettings17MainThreadCleanupEv
KPe:__ZN5physx6shdfnd8internal8HashBaseINS0_4PairIKNS_2Sq13PrunerPayloadEjEES5_NS0_4HashIS5_EENS1_11HashMapBaseIS5_jS9_NS0_9AllocatorEE6GetKeyESB_Lb1EE5eraseERS6_
j2b:__Z26BuildSerializationCacheFor17ScriptingClassPtrRb
Pdc:__ZN7ApiGLES15BlitFramebufferEN2gl6HandleILNS0_10ObjectTypeE9EEENS0_15FramebufferReadES3_S3_iiiiiiiiNS0_15FramebufferTypeE
C7e:__ZN5physx13GuMeshFactory16createConvexMeshERNS_13PxInputStreamE
Ogf:__ZN5physx6shdfnd8internal8HashBaseINS0_4PairIKPKcjEES5_NS0_4HashIS5_EENS1_11HashMapBaseIS5_jS9_NS_7profile26WrapperReflectionAllocatorIjEEE6GetKeyESD_Lb1EE6createERS6_Rb
qSk:__Z112RuntimeInvoker_RuntimeObject_RuntimeObject_RuntimeObject_RuntimeObject_RuntimeObject_RuntimeObject_RuntimeObjectPFvvEPK10MethodInfoPvPS4_
dqi:_InternalEnumerator_1_System_Collections_IEnumerator_get_Current_m3553395619_AdjustorThunk
c2i:_Array_SetValue_m3998268557
FZf:_ColorBlock_set_highlightedColor_m2089444414_AdjustorThunk
SBh:_RectTransform_INTERNAL_set_anchoredPosition_m939517950
lXg:__ZL57ParticleSystem_t1800779281_CustomAttributesCacheGeneratorP21CustomAttributesCache
GKi:_Context_EndSwitchingSecurityParameters_m4148956166
dsf:_otv_PairPos_validate
ZI:__ZN7mecanim9animation14CopyHumanPosesEPKNS0_18AnimationNodeStateEPS1_RKNS_6bitsetILj83EEE
ogm:__ZN6il2cpp6icalls8mscorlib6SystemL8IsStaticEPK12PropertyInfo
o3b:__Z9InitInputv
bSa:__ZN17TransformInternal36OnScaleChangedCalculateTransformTypeE15TransformAccess
A7e:__ZNK5physx13GuMeshFactory15getConvexMeshesEPPNS_12PxConvexMeshEjj
Njm:__ZN6il2cpp2gc19AppendOnlyGCHashMapINSt3__24pairIPK10MethodInfoP11Il2CppClassEEP22Il2CppReflectionMethod17ReflectionMapHashIS9_ENS2_8equal_toIS9_EEE3AddERKS9_SB_
UEb:__ZN16MemoryFileSystem6DeleteER13FileEntryDatab
$Mk:__Z81RuntimeInvoker_Void_t1185182177_RuntimeObject_Int64_t3736567304_Int32_t2950945753PFvvEPK10MethodInfoPvPS4_
wfl:_List_1_set_Item_m1979164443_gshared
vLj:_Array_InternalArray__ICollection_Add_TisLink_t3209266973_m77922316_gshared
K9a:__ZL21BlitScaleStbImageImplRK14ImageReferenceRS_NS_10ColorSpaceE
fme:__ZN5physx10NpMaterial17setStaticFrictionEf
sud:__Z9UpdateTplIL27ParticleSystemCurveEvalMode0EEvRK11MinMaxCurveS3_S3_R23ParticleSystemParticlesjjRKN4math8float3x3ERKNS6_7_float4E
bHe:__ZNK5physx7NpScene18getStaticStructureEv
kD:__ZL48__ManagedRegistrationHelperFunction_SkeletonBonePv
zGe:__ZNK5physx7NpScene19getFilterShaderDataEv
gTh:_InputField_get_keyboardType_m1248105267
XOb:__Z29Transfer_Blittable_ArrayFieldI14SafeBinaryReadyEvRT_R9ArrayInfoRK23StaticTransferFieldInfo
q9:__ZN20SoundChannelInstance15setChannelGroupEPN4FMOD12ChannelGroupE
DDl:_Match__ctor_m2425511580
jTj:_KeyPairPersistence_Remove_m1876145547
ihe:__ZN5physx2Sc19ShapeInstancePairLL26onPoseChangedWhileSleepingEv
Sqd:__ZN12LightsModule13AwakeFromLoadEP14ParticleSystemRK27ParticleSystemReadOnlyState
rRe:__ZN5physx22PxcSweepCapsuleCapsuleERKNS_11PxsCCDShapeES2_PKNS_12PxsRigidBodyES5_RKNS_11PxTransformES8_S8_S8_fRNS_6PxVec3ESA_RNS_10PxcNpCacheERNS_18PxcNpThreadContextEf
Ic:invoke_vifffii
n$d:__ZNK5physx3Cct17CapsuleController21getHalfHeightInternalEv
mDb:__ZNK25MultiBlocksMemoryFileData5CloneEv
dNm:_GC_add_ext_descriptor
cim:__ZNK15dense_hashtableINSt3__24pairIK10KeyWrapperINS1_IPK14Il2CppAssemblyP11Il2CppClassEEEjEES9_17ReflectionMapHashIS8_EN14dense_hash_mapIS9_jSD_NS9_14EqualsComparerINS0_8equal_toIS8_EEEENS0_9allocatorISB_EEE9SelectKeyESI_SK_E23find_position_with_hashERSA_j
Icl:_LayoutGroup_SetProperty_TisSingle_t1397266774_m793506911_gshared
NOh:_CryptoConfig_CreateFromName_m1538277313
Ggi:_InternalEnumerator_1_get_Current_m3073360606_gshared
J4d:__ZL30GeomOverlapCallback_CapsuleBoxRKN5physx10PxGeometryERKNS_11PxTransformES2_S5_PNS_2Gu12TriggerCacheE
yXm:dynCall_iiiiiiiiiiii
pq:__ZN9Scripting11UnityEngine2AI18NavMeshBuildSource9InitProxyEv
rTh:_InputField_set_caretPositionInternal_m3823580651
MIf:__ZN18UnityConnectClient16IsServiceEnabledEv
kTg:__ZL62g_UnityEngine_AIModule_Assembly_CustomAttributesCacheGeneratorP21CustomAttributesCache
wLa:__ZN9Scripting11UnityEngine10ColorGamut9InitProxyEv
sFb:__ZN22VertexDeclarationCacheD0Ev
l1h:_Selectable_set_interactable_m3105888815
PZa:__ZL26KeywordSetToStringDontSortRKNSt3__26vectorIN4core12basic_stringIcNS1_20StringStorageDefaultIcEEEENS_9allocatorIS5_EEEERS5_
kCa:__ZN6prcoreL17RemapGenericFloatI16TexFormatRGFloat17TexFormatRGBAHalfEEvPKNS_9InnerInfoE
rba:__ZN12AudioManager22CreateFMODSoundFromWWWEP10IWWWStream15FMOD_SOUND_TYPE17FMOD_SOUND_FORMATjjbbP10SampleClip
YYc:__ZNK32RendererMaterialAnimationBinding15GenerateBindingERKN4core12basic_stringIcNS0_20StringStorageDefaultIcEEEEbRN11UnityEngine9Animation14GenericBindingE
bbg:_TargetException__ctor_m4172127019
Vxd:__Z25UpdateOrbitalAndRadialTplIL27ParticleSystemCurveEvalMode0ELS0_2ELS0_0EEvRK11MinMaxCurveS3_S3_S3_S3_S3_S3_R23ParticleSystemParticlesjjRKN4math8float3x3ERKNS6_7affineXERKNS6_7_float4E
Vil:_List_1_CheckCollection_m274117203_gshared
_Zg:__ZL70EventSystem_t1003666588_CustomAttributesCacheGenerator_m_FirstSelectedP21CustomAttributesCache
Cta:__ZN8Remapper23GetOrGenerateInstanceIDERK26SerializedObjectIdentifier
pU:__ZN17AnimationCurveTplI8Vector3fEC2ERKS1_
r_f:_ColorTween_get_startColor_m3792586410_AdjustorThunk
FJb:__ZN11TextureData17GetImageReferenceEii
nfh:_CustomInfo__ctor_m426096741
rTf:_EventSystem_ToString_m3779610692
lib:__ZN6Sprite8TransferI24GenerateTypeTreeTransferEEvRT_
cQc:__Z48Register_UnityEngine_Transform_SetAsFirstSiblingv
vli:_InternalEnumerator_1_System_Collections_IEnumerator_get_Current_m694606607_gshared
qib:__ZN7SubMesh8TransferI24GenerateTypeTreeTransferEEvRT_
zee:__ZNK5physx19NpArticulationJoint28getTwistLimitContactDistanceEv
m4l:_NativeTypeAttribute__ctor_m133676646
ZVd:__ZN5physx3Cct10Controller6setPosERKNS_14PxExtendedVec3E
$lk:_Collection_1_System_Collections_IList_Contains_m296643274_gshared
CXd:__ZN5physx2GuL14testFaceNormalERKNS0_13PolygonalDataES3_PNS0_12SupportLocalES5_RKNS_6shdfnd3aos15PsMatTransformVESA_RKNS7_6FloatVERSB_RjRNS7_5Vec3VENS0_13FeatureStatusERSI_
Flj:_DirectoryInfo__ctor_m126519516
t7f:_MethodBase_GetMethodFromIntPtr_m3014201362
poi:_InternalEnumerator_1_get_Current_m2315302778_AdjustorThunk
LV:__ZN7mecanim5human9HumanGoal8TransferI18StreamedBinaryReadILb0EEEEvRT_
HPc:__ZN9Transform23SetSiblingIndexInternalEib
ugd:__ZN9JSONWrite8TransferI13dynamic_arrayIaLj0EEEEvRT_PKc17TransferMetaFlags
P4d:__ZL32GeomOverlapCallback_ConvexConvexRKN5physx10PxGeometryERKNS_11PxTransformES2_S5_PNS_2Gu12TriggerCacheE
jrj:_Enumerator_MoveNext_m635366482
Y_i:_X509Extension_Equals_m1222951829
nH:__ZN7mecanim5human12HumanPoseSubERNS0_9HumanPoseERKS1_S4_
aBm:__ZN6il2cpp8metadata15GenericMetadata15GetGenericClassEiPK17Il2CppGenericInst
wNb:__Z18Transfer_BlittableI14SafeBinaryReadLb0E10Matrix4x4fEvRK29SerializationCommandArgumentsR31RuntimeSerializationCommandInfo
A1b:__Z24GetFixedBehaviourManagerv
kfm:__ZN6il2cpp2vm10ThreadPool4WaitEP17Il2CppAsyncResultPPv
r_i:_PKCS12_Encrypt_m2617413749
OCl:_X509Crl_VerifySignature_m1377612461
ISm:_vfprintf
Wcd:__ZN10GUIManager12AddGUIScriptER8ListNodeI13MonoBehaviourE
eHa:__ZL53__ManagedRegistrationHelperFunction_StackTraceUtilityPv
zrj:_Stack_Clear_m2010200235
Pof:_cf2_getVStore
hVf:_PointerEventData_set_pointerPressRaycast_m1363193059
gmc:__ZN20DynamicPropertySheetD0Ev
Cdg:_SafeHandle_Dispose_m4229010569
Azc:__ZN14SafeBinaryRead17RegisterConverterEPKcS1_PFbPvRS_E
mHg:__ZL77RuntimePlatform_t4159857903_CustomAttributesCacheGenerator_OSXDashboardPlayerP21CustomAttributesCache
Vla:__ZN35RegisterRuntimeInitializeAndCleanup8RegisterEPFvPvES2_iS0_
fkh:_FieldBuilder_SetValue_m828035213
fT:__ZN7mecanim6memory16ChainedAllocator7ReserveEj
Wyk:__ZN28GenericInterfaceFuncInvoker0IfE6InvokeEPK10MethodInfoP12Il2CppObject
k2a:__ZN20SphericalHarmonicsL215AddAmbientLightERK10ColorRGBAf
kOl:_EnemyMovement_Defeated_m3753560739
vRe:__ZN5physx25PxcSweepConvexHeightfieldERKNS_11PxsCCDShapeES2_PKNS_12PxsRigidBodyES5_RKNS_11PxTransformES8_S8_S8_fRNS_6PxVec3ESA_RNS_10PxcNpCacheERNS_18PxcNpThreadContextEf
m8c:__Z21Object_CUSTOM_DestroyP12Il2CppObjectf
Ric:__ZN8Material26ResetAllCachedMaterialDataEP6Shader
UQk:__Z63RuntimeInvoker_Void_t1185182177_RuntimeObject_Int16_t2552820387PFvvEPK10MethodInfoPvPS4_
exf:_UNITY_TT_Get_MM_Var
iMh:_ObjectManager_AddFixup_m2154325362
msi:_Comparer_1__cctor_m3761458313_gshared
Fzj:_DateTimeOffset_CompareTo_m1350732322_AdjustorThunk
aa:invoke_diddi
RBf:__ZNK2UI6Canvas13GetRenderModeEv
Crh:_PersistentCall__ctor_m1217622171
jJj:_Array_compare_TisCustomAttributeTypedArgument_t2723150157_m1384644047_gshared
pUm:_unlink
HMb:__Z18Transfer_BlittableI14SafeBinaryReadLb0EiEvRK29SerializationCommandArgumentsR31RuntimeSerializationCommandInfo
Ycm:__ZN6il2cpp2vm13MetadataCache30GetPropertyDefinitionFromIndexEi
FMl:_SymmetricTransform_Transform_m1683494363
gze:__ZN5physx14NpRigidDynamic7releaseEv
PLf:__ZN22BaseUnityConnectClient17InitializeSessionERKN4core12basic_stringIcNS0_20StringStorageDefaultIcEEEES6_N19CloudServiceHandler13InitModeFlagsE
Qog:__ZL56KeyCollection_t4251528776_CustomAttributesCacheGeneratorP21CustomAttributesCache
hXk:__Z74RuntimeInvoker_RuntimeObject_Int32_t2950945753_RuntimeObject_RuntimeObjectPFvvEPK10MethodInfoPvPS4_
KNe:__ZN5physx6shdfnd8PoolBaseINS_21PxsBodyTransformVault13PxsBody2WorldENS0_19ReflectionAllocatorIS3_EEE15disposeElementsEv
Jol:_List_1_get_Item_m200663048_gshared
qY:__ZN15SerializeTraitsI9OffsetPtrIN7mecanim9animation23BlendDirectDataConstantEEE8TransferI24GenerateTypeTreeTransferEEvRS4_RT_
R1m:_emscripten_glDeleteBuffers__wrapper
Ax:__ZNK14NavMeshManager23GetNavMeshBuildSettingsEi
b5c:__ZN13MonoBehaviour34StopCoroutineFromEnumeratorManagedE18ScriptingObjectPtr
tD:__ZN9Scripting11UnityEngine9HumanBone12CleanupProxyEv
DTd:__ZN5physx2Gu30computeCapsule_TriangleMeshMTDERKNS_22PxTriangleMeshGeometryERKNS_11PxTransformERNS0_8CapsuleVEffbRNS_10PxSweepHitE
XHd:__ZN11UnityEngine9Analytics18SceneLoadTimeEvent12SetSceneLoadERKN4core12basic_stringIcNS2_20StringStorageDefaultIcEEEEiyyyy
$sb:__ZN30RuntimeInitializeOnLoadManager8TransferI18StreamedBinaryReadILb0EEEEvRT_
ttj:_DateTimeOffset__ctor_m2084804982
Atf:_UNITY_tt_face_load_pclt
mMc:__ZL34GetComponentsImplementationRecurseILb1ELi0ELi2EEbR10GameObjectbRK17CompareParametersRK39GetComponentsImplementation_ReturnValue
h8k:_Array_InternalArray__set_Item_TisSlot_t3975888750_m3701794315_gshared
Iuh:_Material_GetTexture_m3545614349
XEe:__ZThn8_N5physx2Sc19ShapeInstancePairLL10onActivateEj
LHk:__Z64RuntimeInvoker_RuntimeObject_Int32_t2950945753_Int16_t2552820387PFvvEPK10MethodInfoPvPS4_
Xpd:__ZN16CustomDataModule8TransferI19StreamedBinaryWriteILb0EEEEvRT_
q$j:_EqualityComparer_1__cctor_m4244842342_gshared
Blc:__ZNK6Camera18WorldToScreenPointERK8Vector3fPb
CXe:__ZN5physx2Cm12DelegateTaskINS_10PxsContextEXadL_ZNS2_28mergeCMDiscreteUpdateResultsEPNS_10PxBaseTaskEEEE11runInternalEv
mDh:_SendMouseEvents_DoSendMouseEvents_m2140870850
AGf:__ZN14UnityAnalyticsD0Ev
kcf:__ZN5physx19TriangleMeshBuilder10importMeshERKNS_18PxTriangleMeshDescERKNS_15PxCookingParamsEb
DEl:_PatternCompiler_EmitJump_m3915926156
Rv:__ZN14NavMeshManager11RestoreTileEii
HH:__ZN7mecanim9animation19AdjustPoseForMotionERKNS0_14AvatarConstantERKNS0_14SkeletonTQSMapERKN4math4trsXERNS_10ValueArrayERNS_8skeleton13SkeletonPoseTIS8_EESG_
g9f:_MonoMethod_GetBaseDefinition_m2844667474
oek:__Z33il2cpp_codegen_check_add_overflowxx
Gra:__ZNSt3__227__insertion_sort_incompleteIRPFbRKN18AwakeFromLoadQueue4ItemES4_EPS2_EEbT0_S9_T_
uHg:__ZL73RuntimePlatform_t4159857903_CustomAttributesCacheGenerator_MetroPlayerARMP21CustomAttributesCache
Ykj:_InvalidOperationException__ctor_m1685032583
Yam:__ZN14dense_hash_mapI10KeyWrapperIN6il2cpp5utils13dynamic_arrayIPK10Il2CppTypeLj4EEEEPFvvENS1_8metadata19Il2CppSignatureHashENS8_14EqualsComparerINSB_22Il2CppSignatureCompareEEENSt3__29allocatorINSG_4pairIKS8_SA_EEEEE15set_deleted_keyERSJ_
Wek:_TimeSpan_op_Subtraction_m3592306516
o1j:_EqualityComparer_1_System_Collections_IEqualityComparer_GetHashCode_m1517903420_gshared
VAb:__ZNK20LocalFileSystemPosix6ParentERK13FileEntryDataRN4core12basic_stringIcNS3_20StringStorageDefaultIcEEEE
hse:__ZN5physx6shdfnd5ArrayINS_18PxClothFabricPhaseENS0_19ReflectionAllocatorIS2_EEE8recreateEj
Ugb:__ZN26EnlightenSystemInformation8TransferI14SafeBinaryReadEEvRT_
kqd:__ZN13InitialModule5ResetEv
Ptb:__ZN24GenerateTypeTreeTransfer8TransferINSt3__26vectorIN15ResourceManager10DependencyE13stl_allocatorIS4_L18MemLabelIdentifier52ELi16EEEEEEvRT_PKc17TransferMetaFlags
P$l:_CanvasRenderer_SplitUIVertexStreams_m2753637362
Inb:__ZN19SkinnedMeshRenderer10DeactivateE19DeactivateOperation
hZk:__Z119RuntimeInvoker_Void_t1185182177_RuntimeObject_Single_t1397266774_Single_t1397266774_SByte_t1669577662_Int32_t2950945753PFvvEPK10MethodInfoPvPS4_
VUa:__ZN27PerObjectLightCullingOutputD2Ev
KHe:__ZN5physx2Sq17SceneQueryManager11shiftOriginERKNS_6PxVec3E
spb:__ZN12MeshRendererD0Ev
Cca:__ZN12AudioManager35GetCurrentSpatializerDefinitionNameEv
tRd:__ZN5physx2Gu16sweepBoxTriangleERKNS_10PxTriangleERKNS_9PxBounds3ERKNS_6PxVec3ES9_RS7_SA_Rf
tHa:__ZN9Scripting11UnityEngine14WaitForSeconds9InitProxyEv
_h:_utime
Wcf:__ZN5physx10writeChunkEaaaaRNS_14PxOutputStreamE
WGl:_BalancingGroup_Compile_m2575117193
pfm:__ZN6il2cpp6icalls8mscorlib6System8MonoType18IsGenericParameterEPK10Il2CppType
zpm:__ZNSt3__26vectorIN6il2cpp2vm17TypeNameParseInfoENS_9allocatorIS3_EEE8allocateEj
yD:__ZN9Scripting11UnityEngine22AnimatorTransitionInfo9InitProxyEv
K8:__ZN18AudioMixerSnapshot23VirtualRedirectTransferER19StreamedBinaryWriteILb0EE
yDl:_Mark_get_Index_m3048692661_AdjustorThunk
yn:FUNCTION_TABLE_viiiiif
Ori:_DefaultComparer_Compare_m3931992727_gshared
eo:FUNCTION_TABLE_viiiiii
Hqi:_InternalEnumerator_1_System_Collections_IEnumerator_get_Current_m1847780851_AdjustorThunk
v8:__ZN5audio5mixer14EffectConstant8TransferI18StreamedBinaryReadILb0EEEEvRT_
vLl:_GUILayoutUtility_get_spaceStyle_m3392862907
cTi:_SecurityException_ToString_m3228070608
utj:_DateTimeOffset__ctor_m74032857
Fch:_MonoType_IsPrimitiveImpl_m2401722705
$ie:__ZN5physx2Sc9RigidCore13onShapeChangeERNS0_9ShapeCoreENS_7PxFlagsINS0_21ShapeChangeNotifyFlag4EnumEjEENS4_INS_11PxShapeFlag4EnumEhEE
l$i:_SmallXmlParser_Error_m3899025466
EQ:__ZN7mecanim9animation22DestroyAvatarWorkspaceEPNS0_15AvatarWorkspaceERNS_6memory9AllocatorE
sr:__ZN12NavMeshAgent12AddToManagerEv
Qfk:_Type_type_is_assignable_from_m76737532
V9c:__ZN9Scripting11UnityEngine14GUILayoutGroup12CleanupProxyEv
Gwe:__ZN5physx6shdfnd5ArrayIPvNS0_15InlineAllocatorILj256ENS0_19ReflectionAllocatorINS_2Sc19ParticlePacketShapeEEEEEE15growAndPushBackERKS2_
$Te:__ZN5physx17solveContactBlockEPKNS_23PxcSolverConstraintDescEjRNS_16PxcSolverContextE
ddf:__ZN5physx6shdfnd10FoundationD2Ev
U8a:__ZN14PlayableOutput17SetSourcePlayableEP8Playable
Tsb:__ZNSt3__26vectorIN4core12basic_stringIcNS1_20StringStorageDefaultIcEEEE13stl_allocatorIS5_L18MemLabelIdentifier13ELi16EEE8__appendEj
C5d:__ZN5physx9NpFactory21releaseConnectorArrayEPNS_16NpConnectorArrayE
o8:__ZN10AudioMixer8TransferI17RemapPPtrTransferEEvRT_
fQ:__ZN7mecanim9animation29MotionOutputGetDeltaTransformEPKNS0_12MotionOutputE
WHd:__ZN27PerformanceReportingManager21OnSceneTimingCallbackERK15SceneLoadTimingRKN4core12basic_stringIcNS3_20StringStorageDefaultIcEEEE
F5h:_FtpWebRequest__cctor_m699542155
kPc:__Z43Transform_CUSTOM_INTERNAL_get_localRotationP12Il2CppObjectP11Quaternionf
gOe:__ZN5physx2Sc10NPhaseCoreD2Ev
N6d:__ZN5physx2Sc7BodySim18onConstraintDetachEv
ANm:__ZN6il2cpp6icalls8mscorlib6System10Reflection4Emit13ModuleBuilder13RegisterTokenEP29Il2CppReflectionModuleBuilderP12Il2CppObjecti
Mhm:__ZN6il2cpp2os4File9SetLengthEPNS0_10FileHandleExPi
IWc:__ZZL23RegisterLightPropertiesR22GenericPropertyBindingEN20Wrapper_LightColorr013SetFloatValueEPvf
YPg:__ZL63SpriteBone_t303320096_CustomAttributesCacheGenerator_m_ParentIdP21CustomAttributesCache
Di:_emscripten_glGetTexParameteriv
rFa:__ZL49__ManagedRegistrationHelperFunction_ComputeBufferPv
FGe:__ZN5physx7NpScene8simulateEfPNS_10PxBaseTaskEPvjb
s1m:_glGenTextures__wrapper
IMd:__ZN5physx2Gu13GeometryUnion3setERKNS_10PxGeometryE
MEc:__ZN9ShaderLab20SerializedSubProgram14ConstantBufferaSERKS1_
Uxd:__Z25UpdateOrbitalAndRadialTplIL27ParticleSystemCurveEvalMode0ELS0_1ELS0_4EEvRK11MinMaxCurveS3_S3_S3_S3_S3_S3_R23ParticleSystemParticlesjjRKN4math8float3x3ERKNS6_7affineXERKNS6_7_float4E
qTg:__ZL74SharedBetweenAnimatorsAttribute_t2857104338_CustomAttributesCacheGeneratorP21CustomAttributesCache
R5a:__ZN8PlayableD0Ev
Xg:emscriptenWebGLGetBufferBinding
t3:__ZN12AudioManager8TransferI19StreamedBinaryWriteILb0EEEEvRT_
w$l:_CanvasGroup_IsRaycastLocationValid_m2128397950
O1h:_Slider_UpdateCachedReferences_m3259451627
nPk:__Z50RuntimeInvoker_Double_t594665363_Double_t594665363PFvvEPK10MethodInfoPvPS4_
$tm:__ZN15dense_hashtableINSt3__24pairIK10KeyWrapperINS1_IP11Il2CppClassjEEES4_EES6_N6il2cpp8metadata14ArrayClassHashEN14dense_hash_mapIS6_S4_SB_NS6_14EqualsComparerINSA_17ArrayClassCompareEEENS0_9allocatorIS8_EEE9SelectKeyESF_SH_E6insertERKS8_
T0f:_U3CShowU3Ec__AnonStorey1_U3CU3Em__0_m2340880019
SLf:__ZN22BaseUnityConnectClient38PrepareConfigRequestOnMainThreadStaticEPS_
Pfe:__ZN5physx18NpArticulationLink10clearForceENS_11PxForceMode4EnumE
wTd:__ZN5physx2Gu30distanceSegmentTriangleSquaredERKNS_6PxVec3ES3_S3_S3_S3_PfS4_S4_
Hzl:_TlsStream_Flush_m3793197834
Hzb:__ZN22LocalFileSystemHandler9MakeLocalER13FileEntryDatab
WIm:__ZN6il2cpp2vm8Profiler10AllocationEP12Il2CppObjectP11Il2CppClass
uIl:_Uri_IsHexEncoding_m3290929897
q1g:__ZL61Graphic_t1660335611_CustomAttributesCacheGenerator_m_MaterialP21CustomAttributesCache
BBa:__Z13FormatOrderedPKcz
Lgm:__ZN6il2cpp2vm8basepathEPKc
Joi:_InternalEnumerator_1_get_Current_m1506120701_AdjustorThunk
X9h:_X509Chain_GetAuthorityKeyIdentifier_m614536199
Tkf:__ZN14SafeBinaryRead21TransferSTLStyleArrayI10vector_mapINSt3__24pairIttEEfN20TextRenderingPrivate8FontImpl14KerningCompareENS2_9allocatorINS3_IS4_fEEEEEEEvRT_17TransferMetaFlags
tJi:_TlsServerFinished__ctor_m1445633918
ffh:_NumberFormatter_FastIntegerToString_m390846811
sXh:__ZN21InterfaceFuncInvoker0IfE6InvokeEjP11Il2CppClassP12Il2CppObject
bnb:__ZN14CompressedMesh10GetQualityE15MeshCompression
Zsc:__ZN25DeferredRenderLoopScratchD0Ev
PJ:__ZN27AnimationLayerMixerPlayable14SetInputWeightEif
QUk:__Z83RuntimeInvoker_Void_t1185182177_RuntimeObject_Single_t1397266774_Single_t1397266774PFvvEPK10MethodInfoPvPS4_
MUf:_PhysicsRaycaster_Raycast_m776323695
aGh:_UnityException__ctor_m1456865679
jH:__ZN7mecanim9animation17EvaluateHumanPoseERKNS0_18ClipMuscleConstantERKNS0_15ClipMuscleInputEPKfRKNS0_12MotionOutputERNS_5human9HumanPoseE
XDc:__ZN15dense_hashtableINSt3__24pairIKiN4core17string_with_labelILi1EEEEEi18SInt32HashFunctionN14dense_hash_mapIiS5_S7_NS0_8equal_toIiEE13stl_allocatorIS6_L18MemLabelIdentifier1ELi16EEE9SelectKeyESA_SD_E9copy_fromERKSG_j
Dhh:_CustomAttributeNamedArgument_GetHashCode_m2317130892
ktb:__ZN15ResourceManagerD0Ev
GWa:__ZN22CreateGpuProgramOutputD2Ev
n0d:__ZNK5physx3Cct15ObstacleContext14getNbObstaclesEv
ZFd:__Z17UpdateSprites2TplIL27ParticleSystemCurveEvalMode2ELS0_3EEvfRK11MinMaxCurveS3_RK23ParticleSystemParticlesPf
X9e:__ZN5physx6shdfnd8PoolBaseINS_11NpAggregateENS0_19ReflectionAllocatorIS2_EEE12allocateSlabEv
RX:__ZN7mecanim9animation23BlendDirectDataConstant8TransferI14SafeBinaryReadEEvRT_
hxd:__Z25UpdateOrbitalAndRadialTplIL27ParticleSystemCurveEvalMode3ELS0_4ELS0_0EEvRK11MinMaxCurveS3_S3_S3_S3_S3_S3_R23ParticleSystemParticlesjjRKN4math8float3x3ERKNS6_7affineXERKNS6_7_float4E
HOi:_SHA1CryptoServiceProvider_Finalize_m1793183797
zmh:_AnimationCurve_get_keys_m1672862131
X2j:_HashSet_1_System_Collections_Generic_ICollectionU3CTU3E_CopyTo_m408073502_gshared
Axe:__ZN5physx7NpScene26removeFromParticleBaseListERNS_14PxParticleBaseE
oxe:__ZN5physx23NpParticleFluidReadData18getDataAccessFlagsEv
Wzb:__ZN12HandlerChain4OpenER13FileEntryData14FilePermission16FileAutoBehavior
hMj:_Array_InternalArray__ICollection_Add_TisPlayerLoopSystem_t105772105_m1930641144_gshared
j3k:__Z72RuntimeInvoker_Void_t1185182177_Int32_t2950945753_RaycastHit_t1056001966PFvvEPK10MethodInfoPvPS4_
Rjm:__ZN15dense_hashtableINSt3__24pairIK10KeyWrapperINS1_IPK10MethodInfoP11Il2CppClassEEEjEES9_17ReflectionMapHashIS8_EN14dense_hash_mapIS9_jSD_NS9_14EqualsComparerINS0_8equal_toIS8_EEEENS0_9allocatorISB_EEE9SelectKeyESI_SK_E6insertERKSB_
Q1:__ZL55__ManagedRegistrationHelperFunction_AudioPlayableOutputPv
gId:__ZN27PerformanceReportingManager29OnSceneLoadedAfterAwakeStaticEPS_iR18AwakeFromLoadQueueN19RuntimeSceneManager11LoadingModeE
a2i:_Array_SetValue_m394135409
Kua:__ZN14FileCacherReadD2Ev
ewb:__ZN13RendererScene23UpdatePreviousFrameDataEii
Iwh:_MonoBehaviour_StopCoroutine_m615723318
WLc:__Z50Register_UnityEngine_CullingGroup_FinalizerFailurev
Twb:__ZN27UnloadUnusedAssetsOperationD0Ev
OIc:__ZN12ShaderErrors11ShaderErrorC2EOS0_
rVm:__ZNKSt3__221__basic_string_commonILb1EE20__throw_out_of_rangeEv
_Qe:__ZN5physx10PxsCCDPair12updateShapesEv
pem:_UpdatedEventHandler_Invoke_m1320302085
lWi:_String_Format_m630303134
zOk:__Z154RuntimeInvoker_Int32_t2950945753_RuntimeObject_Int32_t2950945753_Int32_t2950945753_SByte_t1669577662_Int32_t2950945753_SByte_t1669577662_SByte_t1669577662PFvvEPK10MethodInfoPvPS4_
eba:__ZN9AudioClip23VirtualRedirectTransferER18StreamedBinaryReadILb0EE
CR:__ZN26AnimatorOverrideController23VirtualRedirectTransferER24GenerateTypeTreeTransfer
iol:_List_1_AddEnumerable_m2724989594_gshared
pte:__ZN5physx2Sc9ClothCore22removeCollisionCapsuleEj
$Xk:__Z82RuntimeInvoker_Vector2_t2156229523_Vector2_t2156229523_RuntimeObject_RuntimeObjectPFvvEPK10MethodInfoPvPS4_
P6c:__Z70Register_UnityEngine_Playables_PlayableHandle_GetPlayableType_Injectedv
V7d:__ZN5physx16PxsIslandManager25setArticulationLinkHandleEjPvRKNS_20PxsIslandManagerHookIjLj4294967295EEE
ck:_glCopyTexSubImage2D
Atd:__ZNK21RotationBySpeedModule6UpdateERK27ParticleSystemReadOnlyStateRK19ParticleSystemStateR23ParticleSystemParticlesRKN4math7_float4Ejj
Y4m:_glActiveTexture__wrapper
fGh:_UnitySynchronizationContext_ExecuteTasks_m1310741010
Rwl:_RIPEMD160Managed_CompressFinal_m497690796
V2b:__ZN18ScreenManagerWebGL13SetShowCursorEb
Tgc:__ZN13DrawImmediateC2ER9GfxDevice
fZa:__ZN18VertexChannelsInfoC2ERA12_K11ChannelInfo
ACf:__ZN2UI13CanvasManager14GetRenderOrderEPKNS_6CanvasE
Khe:__ZN5physx6shdfnd5ArrayIPNS_3Scb5ShapeENS0_15InlineAllocatorILj16ENS0_19ReflectionAllocatorIS4_EEEEE15growAndPushBackERKS4_
sNb:__Z18Transfer_BlittableI14SafeBinaryReadLb0E5RectTIfEEvRK29SerializationCommandArgumentsR31RuntimeSerializationCommandInfo
jfh:_NumberFormatter_NumberToString_m2562899600
lsf:_otv_u_C_x_Ox
MJd:__ZL44__ManagedRegistrationHelperFunction_ColliderPv
g2m:_emscripten_glGenVertexArrays__wrapper
hkk:_Version_Clone_m1749041863
kab:__ZN6prcoreL21CreateRemapAnyBlitterE13TextureFormatS0_
gGi:_RSAManaged_ExportParameters_m1754454264
c3c:__ZN17AnimationCurveTplIfE16StripInvalidKeysEv
D4i:_Boolean_Equals_m535526264_AdjustorThunk
KCf:__ZNK2UI6Canvas17GetSortingLayerIDEv
o4c:__ZL12HashLen0to16PKcj
xrm:_il2cpp_method_has_attribute
ngb:__ZN8Renderer24SetupNewRendererForSceneEv
Kfk:_Type_internal_from_name_m1721940673
Qrm:_il2cpp_type_get_class_or_element_class
MJh:_RemotingServices_GetMethodBaseFromName_m3194612939
Yhd:__Z35Transfer_Blittable_FixedBufferFieldI8JSONReadtEvRK29SerializationCommandArgumentsR31RuntimeSerializationCommandInfo
w0e:__ZN5physx2Sc8ClothSim16addCollisionMeshEPKNS0_8ShapeSimE
$$c:__ZN14PlayableOutput6HandleEv
zhb:__ZNK6Sprite22GetTypeVirtualInternalEv
IKa:__ZN9Scripting11UnityEngine12Experimental9Playables22MaterialEffectPlayable9InitProxyEv
Zn:FUNCTION_TABLE_iiiiiiiiiiiiii
i4l:_NativePropertyAttribute__ctor_m2033094153
y5e:__ZN5physx6shdfnd5ArrayIPKNS_10PxsCCDBodyENS0_19ReflectionAllocatorIS4_EEE8recreateEj
Ehe:__ZN5physx6shdfnd4sortINS_2Cm19PreallocatingRegionENS0_4LessIS3_EENS0_19ReflectionAllocatorIS3_EEEEvPT_jRKT0_RKT1_j
s0a:__ZN11Tetrahedron8TransferI24GenerateTypeTreeTransferEEvRT_
ctf:_UNITY_tt_get_cmap_info
CNi:_SslClientStream_RaiseServerCertificateValidation_m3477149273
gUb:__Z29Transfer_Blittable_ArrayFieldI24GenerateTypeTreeTransfer5RectTIiEEvRT_R9ArrayInfoRK23StaticTransferFieldInfo
E$a:__ZN16ReflectionProbes8ScheduleEN18ReflectionProbeJob7JobTypeEP15ReflectionProbei
r2:__ZN15AudioMixerGroup23VirtualRedirectTransferER18StreamedBinaryReadILb0EE
Sva:__ZN16MessageForwarder13HandleMessageEPviR11MessageData
vBb:__Z18IsDirectoryCreatedRKN4core12basic_stringIcNS_20StringStorageDefaultIcEEEE
hRi:_String_FormatHelper_m3913915042
IAf:__ZN2UI13CanvasManagerD2Ev
VGd:__ZZN14ParticleSystem15InitializeClassEvEN52PreLateUpdateParticleSystemBeginUpdateAllRegistrator7ForwardEv
K7l:__ZN15dense_hashtableINSt3__24pairIK10KeyWrapperIPKcEP11Il2CppClassEES5_N6il2cpp5utils11StringUtils12StringHasherIS4_EEN14dense_hash_mapIS5_S8_SE_NS5_14EqualsComparerINSB_13VmStringUtils21CaseSensitiveComparerEEENS0_9allocatorIS9_EEE9SelectKeyESJ_SL_E15set_deleted_keyERKS9_
Z$i:_AttrListImpl_get_Names_m977594476
Bhh:_CustomAttributeData_GetHashCode_m3727773664
jnf:_UNITY_FT_GlyphLoader_Done
cBa:__ZNSt3__23mapIiN11TypeManager18TypeCallbackStructENS_4lessIiEENS_9allocatorINS_4pairIKiS2_EEEEEixERS7_
RLb:__ZNK17InstancingBatcher15RenderInstancesERK19ShaderPropertySheetRKNS_22RenderInstancesConfigsERK11MeshBuffersRK16DrawBuffersRange16VertexInputMasks
xCj:_StackTrace_get_FrameCount_m344690939
yua:__ZN13dynamic_arrayIcLj0EE6insertEPcPKcS3_
mnj:_FileStream_BeginRead_m2419864669
zjf:__GLOBAL__sub_I_artifacts_WebGL_codegenerator_0_cpp_5442
IUe:__ZN5physx18ComputeSortedListsEPNS_2Cm10BitMapBaseINS_6shdfnd9AllocatorEEEjjPKjPPNS_8SapBox1DES7_PjSB_jRKNS_2Gu4AxesESB_RjSB_SG_RbSH_
JTf:_EventTrigger_OnInitializePotentialDrag_m2172162368
QY:__ZN7mecanim9animation19Blend2dDataConstant8TransferI18StreamedBinaryReadILb0EEEEvRT_
eUh:_Selectable_OnPointerDown_m1086067264
hyf:_psh_globals_new
l0f:_Dropdown_SetupTemplate_m628218778
Gbk:_Thread_GetCompressedStack_m2923422412
vvh:_Matrix4x4_MultiplyPoint3x4_m4145063176
k8h:_X509BasicConstraintsExtension_ToString_m1809935297
BFb:__ZN9GfxDevice20SetMaxBufferedFramesEi
yFk:_TweenRunner_1_StartTween_m1055628540_gshared
w9k:_Array_qsort_TisUIVertex_t4057497605_TisUIVertex_t4057497605_m678708019_gshared
xrk:_ReadOnlyCollection_1_System_Collections_IList_Remove_m4129318771_gshared
ucl:_GameObject_GetComponents_TisRuntimeObject_m1246177135_gshared
QXm:dynCall_vdd
Yah:_MethodAccessException__ctor_m3542088436
VAc:__Z23ConvertIntegerToTypePtrIsEbPvR14SafeBinaryRead
YD:__ZN9Scripting11UnityEngine10Animations26AnimatorControllerPlayable9InitProxyEv
Tce:__ZNK5physx14NpArticulation17releaseDriveCacheERNS_24PxArticulationDriveCacheE
u2:__ZN15AudioMixerGroup23VirtualRedirectTransferER14SafeBinaryRead
$Lf:__ZN11UnityEngine7Connect13ConfigHandler13ConfigChangedERKN4core12basic_stringIcNS2_20StringStorageDefaultIcEEEEb
K_j:_EqualityComparer_1_System_Collections_IEqualityComparer_GetHashCode_m2230215241_gshared
x4g:__ZL60ContentSizeFitter_t3850442145_CustomAttributesCacheGeneratorP21CustomAttributesCache
ebj:_Hashtable_Contains_m2145146412
uEa:__ZN6prcoreL29inner_stretch_rgb565_bilinearEPKNS_9InnerInfoE
Sse:__ZNK5physx2Sc9ClothCore25getSelfCollisionStiffnessEv
Prd:__Z13UpdateSizeTplIL27ParticleSystemCurveEvalMode3EEvRK11MinMaxCurveR23ParticleSystemParticlesbjj
Xy:__ZN15NavMeshObstacle11UpdateStateEv
rYa:__Z26TransformVerticesInnerLoopILb0ELb0ELb1EEvPhRK10Matrix4x4fRK10Matrix3x3fjPKhiS8_ii25GfxTransformVerticesFlagsj
iJh:_RemotingConfiguration_IsRemotelyActivatedClientType_m4117048589
hij:_Int32_FindCurrency_m3541026887
$di:_Interval_CompareTo_m3282557545
nRm:__ZN6il2cpp8metadata19Il2CppSignatureHash4HashERKNS_5utils13dynamic_arrayIPK10Il2CppTypeLj4EEE
k3m:_pthread_cond_wait__wrapper
esc:__ZNK14RenderSettings19GetFlatAmbientColorEv
LXa:__ZN8DrawUtil24DrawMeshRawFromNodeQueueERK15RenderNodeQueuej16VertexInputMasksi
bsb:__ZN18StreamedBinaryReadILb0EE21TransferSTLStyleArrayI10vector_mapIPKN5Unity4TypeE7Hash128NSt3__24lessIS6_EENS8_9allocatorINS8_4pairIS6_S7_EEEEEEEvRT_17TransferMetaFlags
ML:__ZNK27StateMachineBehaviourPlayer15IsSenderEnabledEv
skm:__ZN6il2cpp2gc19AppendOnlyGCHashMapINSt3__24pairIPK11Il2CppImageP11Il2CppClassEEP22Il2CppReflectionModule17ReflectionMapHashIS9_ENS2_8equal_toIS9_EEE11TryGetValueERKS9_PSB_
Awl:_RijndaelManagedTransform_TransformBlock_m1610137419
YPc:__Z40Register_UnityEngine_Transform_SetParentv
B9a:__ZN14Texture2DArray17UploadToGfxDeviceEv
OJl:_Event_set_displayIndex_m1342258734
p5:__Z14FMODMemoryFreePvjPKc
BKa:__ZN9Scripting11UnityEngine12Experimental10PlayerLoop11FixedUpdate12CleanupProxyEv
Khj:_Int16_System_IConvertible_ToType_m3672347013
vrh:_NetFxCoreExtensions_GetMethodInfo_m444570327
Bfk:_Type_get_IsSystemType_m624798880
Yvh:_Mesh_SetNormals_m2521889643
dr:__ZN12NavMeshAgent10SmartResetEv
avf:_tt_cmap0_validate
upf:_cf2_glyphpath_moveTo
BKe:__ZN5physx3Scb4Body9syncStateEv
V5c:__Z51Register_UnityEngine_Texture_get_texelSize_Injectedv
VDh:_StackTraceUtility_SetProjectFolder_m830524047
bhe:__ZN5physx12PxsRigidBody23updatePoseDependenciesVERNS_10PxsContextE
kI:__ZN7mecanim23TransformValueArrayLoopEiiiRKN4math4trsXES3_RNS_10ValueArrayEf
MJi:_ClientSessionInfo_Finalize_m2165787049
vcd:__ZN5IMGUI14GUIWindowStateD2Ev
JIi:_ClientContext_Clear_m1774063253
R1c:__ZN4Mesh17SetIndicesComplexEPKvjj16GfxPrimitiveTypeij
ZEd:__Z20UpdateWholeSheet2TplIL27ParticleSystemCurveEvalMode1ELS0_0EEvfRK11MinMaxCurveS3_RK23ParticleSystemParticlesPf
Ryj:_DateTime_AddSeconds_m332574389_AdjustorThunk
e5i:_Byte_System_IConvertible_ToSByte_m1869482168
O0f:_U3CDelayedDestroyDropdownListU3Ec__Iterator0_MoveNext_m213723240
U4b:__Z21PlayerStartFirstSceneb
kP:__ZN7mecanim5human10RetargetToEPKNS0_5HumanEPKNS0_9HumanPoseES6_RKN4math4trsXEPS4_PNS_8skeleton13SkeletonPoseTIS8_EESF_
dI:__ZN7mecanim9animation8SeekClipERKNS0_12StreamedClipERNS0_18StreamedClipMemoryEf
gth:_GameObject_Internal_AddComponentWithType_m3797731663
Nm:_emscripten_glIsTexture
DU:__ZN24CompressedAnimationCurveaSERKS_
sl:_emscripten_glHint
ZMl:_Check_SourceAndPredicate_m2332465641
Swf:_ft_var_readpackeddeltas
oXb:__Z35Transfer_Blittable_FixedBufferFieldI18StreamedBinaryReadILb1EEtEvRK29SerializationCommandArgumentsR31RuntimeSerializationCommandInfo
Vhk:_UInt32_System_IConvertible_ToInt64_m2261037378
Qm:_SDL_UpperBlit
b7j:_List_1_System_Collections_IList_Add_m49923158_gshared
z$a:__Z35GetTextureDecodeValuesWithIntensity16TextureUsageMode17TextureColorSpace10ColorSpacef
HFl:_Parser_ParseRepetitionBounds_m1246581246
eGj:_Array_InternalArray__ICollection_Remove_TisChar_t3634460470_m4143749387_gshared
fhc:__ZN15dense_hashtableINSt3__24pairIK9TextureIDiEES2_14GfxGenericHashIS2_EN14GfxDoubleCacheIS2_iS6_NS0_8equal_toIS2_EEN31GfxDoubleCacheConcurrencyPolicy11LocklessGetE42GfxDoubleCacheDefaultEmptyDeletedGeneratorIS2_EE9SelectKeyES9_13stl_allocatorIS4_L18MemLabelIdentifier24ELi16EEE14squash_deletedEv
PRc:__Z13RegisterClassI14Texture2DArrayEvPKc
DWe:__ZN5physx14PxsAABBManager21processAggregatePairsEPKNS_19AggregateSortedDataE
eXb:__Z18Transfer_BlittableI18StreamedBinaryReadILb1EELb0E9BoundsIntEvRK29SerializationCommandArgumentsR31RuntimeSerializationCommandInfo
Ycj:_GregorianCalendar__ctor_m979779718
bNi:_SslClientStream__ctor_m2402546929
J1b:__ZN14SafeBinaryRead20OverrideRootTypeNameEPKc
s4h:_DictionaryNodeEnumerator_get_Entry_m2309234501
Oua:__ZN14FileCacherRead16UnlockCacheBlockEj
bS:__ZN26AnimatorOverrideController8TransferI24GenerateTypeTreeTransferEEvRT_
Yoa:__ZN10InstancingL21OnGraphicsCapsChangedEv
RMg:__ZL101SystemInfo_t3561985952_CustomAttributesCacheGenerator_SystemInfo_GetOperatingSystemFamily_m1440411909P21CustomAttributesCache
Jdk:_WaitHandle_get_Handle_m3260446580
j6j:_Enumerator_VerifyState_m1745883925_AdjustorThunk
fd:_emscripten_glUniform1f
Eqj:_SortedList__ctor_m1261191695
Dsm:__ZN6il2cpp2vm6Thread28GetThreadStaticDataForThreadEiP12Il2CppThread
knd:__ZN14SafeBinaryRead21TransferSTLStyleArrayI13dynamic_arrayIN8UVModule10SpriteDataELj0EEEEvRT_17TransferMetaFlags
Wnf:__Z20ParseImageParametersR11UTF16StringRiRN20TextRenderingPrivate16TextFormatChangeE
m4g:__ZL55CanvasScaler_t2767979955_CustomAttributesCacheGeneratorP21CustomAttributesCache
kd:_emscripten_glUniform1i
DSb:__Z18Transfer_BlittableI24GenerateTypeTreeTransferLb1EN4math12int3_storageEEvRK29SerializationCommandArgumentsR31RuntimeSerializationCommandInfo
h4e:__ZN5physx2Sc19ShapeInstancePairLL23postIslandGenSecondPassEv
gLd:__ZN14PhysicsManager23VirtualRedirectTransferER19StreamedBinaryWriteILb0EE
oha:__ZN11UnityEngine15CloudWebService16SessionContainer20RestoreSessionHeaderERKN4core12basic_stringIcNS2_20StringStorageDefaultIcEEEES8_RNS0_13SessionHeaderE
RPe:__ZN5physx2Sq16BucketPrunerCore12updateObjectERKNS_9PxBounds3ERKNS0_13PrunerPayloadE
u3e:__ZN5physx18PxsDynamicsContext23atomIntegrationParallelEfPKPNS_11PxsBodyCoreEPKPNS_12PxsRigidBodyEjPKNS_2Cm13SpatialVectorEPNS_13PxcSolverBodyEPNS_17PxcSolverBodyDataEPSA_RjSI_RNS_10PxBaseTaskE
TE:__ZN11UnityEngine9Animation27CreateAvatarBindingConstantER9TransformPKN7mecanim9animation14AvatarConstantERNS3_6memory9AllocatorE
EMk:__Z151RuntimeInvoker_RuntimeObject_Int32_t2950945753_RuntimeObject_ObjectU5BU5DU26_t712384779_RuntimeObject_RuntimeObject_RuntimeObject_ObjectU26_t2146539884PFvvEPK10MethodInfoPvPS4_
MGf:__ZN8JSONRead19TransferSTLStyleMapINSt3__23mapIN4core12basic_stringIcNS3_20StringStorageDefaultIcEEEEN11UnityEngine9Analytics16LimitEventConfigENS1_4lessIS7_EE13stl_allocatorINS1_4pairIKS7_SA_EEL18MemLabelIdentifier6ELi16EEEEEEvRT_17TransferMetaFlags
m5c:__ZN9BlobWriteC2ER13dynamic_arrayIhLj16EE24TransferInstructionFlags19BuildTargetPlatform
WYf:_CanvasUpdateRegistry__ctor_m2005397069
Vv:__ZN12NavMeshAgent14OnNavMeshAddedEv
Wsa:__ZN14MessageHandler3GetEv
k8f:_MonoMethodInfo_GetCallingConvention_m3156036493
Rsh:_SupportedRenderingFeatures_FallbackMixedLightingModeByRef_m3859171964
zd:_emscripten_glAttachShader
Yma:__Z40DebugStringToFilePostprocessedStacktraceRK21DebugStringToFileData
N4f:_Image__cctor_m1927508576
dGc:__ZNSt3__26vectorIN4core12basic_stringIcNS1_20StringStorageDefaultIcEEEENS_9allocatorIS5_EEE6assignIPS5_EENS_9enable_ifIXaasr21__is_forward_iteratorIT_EE5valuesr16is_constructibleIS5_NS_15iterator_traitsISC_E9referenceEEE5valueEvE4typeESC_SC_
ZZd:__ZN5physx2Gu19GetRaycastFuncTableEv
Bfb:__ZThn32_N8Renderer15AddAsRenderNodeER15RenderNodeQueueRK20DeprecatedSourceData
Cdc:__ZN13dynamic_arrayIN18GlslGpuProgramGLES9GLProgramELj0EE6insertEPS1_jRKS1_
Lqi:_InternalEnumerator_1_get_Current_m3331252162_AdjustorThunk
$Mb:__Z18Transfer_BlittableI14SafeBinaryReadLb0E11QuaternionfEvRK29SerializationCommandArgumentsR31RuntimeSerializationCommandInfo
$3e:__ZN5physx17EdgeChangeManager23cleanupBrokenEdgeEventsEPKNS_4EdgeE
x_b:__Z18Transfer_BlittableI18StreamedBinaryReadILb0EELb1E12PropertyNameEvRK29SerializationCommandArgumentsR31RuntimeSerializationCommandInfo
Gma:_tlsf_walk_heap
tMk:__Z49RuntimeInvoker_Void_t1185182177_OpCode_t123070264PFvvEPK10MethodInfoPvPS4_
R2d:__ZN5physx2Sc35ParticleElementRbElementInteraction7destroyEbj
xVc:__ZNK25BlendshapePropertyBinding38SerializedPropertyPathToCurveAttributeER6ObjectPKc
yTg:__ZL59AnimatorClipInfo_t3156717155_CustomAttributesCacheGeneratorP21CustomAttributesCache
Zwj:_Convert_ToUInt32_m3592050311
tb:invoke_vif
jcl:_Component_GetComponents_TisRuntimeObject_m2416546752_gshared
ub:invoke_vid
JVm:__ZNSt3__212basic_stringIcNS_11char_traitsIcEENS_9allocatorIcEEE6insertEjPKc
Bs:__ZN12CrowdManager21UpdateAgentParametersEyPK16CrowdAgentParams
wb:invoke_vii
dlc:__ZNK12ImageFilters8DoRenderER17ShaderPassContextP13RenderTextureS3_RKNSt3__26vectorI11ImageFilterNS4_9allocatorIS6_EEEE
UIe:__ZN5physx13NpVolumeCacheD2Ev
GPa:__ZN12TLSAllocatorI14StackAllocatorE16ThreadInitializeEP13BaseAllocator
TNk:__Z82RuntimeInvoker_Boolean_t97287965_SByte_t1669577662_RuntimeObject_SByte_t1669577662PFvvEPK10MethodInfoPvPS4_
MFb:__ZN9GfxDevice32UpdateStereoViewProjectionMatrixE21MonoOrStereoscopicEye
W0e:__ZThn8_N5physx2Sc35ParticleElementRbElementInteraction12onDeactivateEj
Gja:__Z29GetCloudWebServicesModuleSpecv
FDf:__Z41CanvasRenderer_CUSTOM_DisableRectClippingP12Il2CppObject
ich:_MonoType_GetConstructorImpl_m441167626
NSe:__ZN5physx16PxsThreadContextC2EPNS_10PxsContextE
tFa:__ZL45__ManagedRegistrationHelperFunction_CoroutinePv
ztl:_Collection_1_IsFixedSize_m3709118201_gshared
ZDb:__ZN25SingleBlockMemoryFileDataD0Ev
f1:__ZNSt3__26vectorI14ConstantStringNS_9allocatorIS1_EEE6assignINS_11__wrap_iterIPS1_EEEENS_9enable_ifIXaasr21__is_forward_iteratorIT_EE5valuesr16is_constructibleIS1_NS_15iterator_traitsISA_E9referenceEEE5valueEvE4typeESA_SA_
_Vd:__ZN5physx3Cct10Controller4moveERNS0_11SweptVolumeERKNS_6PxVec3EffRKNS_19PxControllerFiltersEPKNS_17PxObstacleContextEb
jha:__ZN11UnityEngine15CloudWebService16SessionContainer21ConvertFromFolderTimeERKN4core12basic_stringIcNS2_20StringStorageDefaultIcEEEEPjPt
bvb:__Z15UnloadGameScenev
LOb:__ZNSt3__26vectorI8GUIStyle13stl_allocatorIS1_L18MemLabelIdentifier1ELi16EEE7reserveEj
wzk:_Nullable_1_Equals_m2119234996_gshared
mvm:__ZN6il2cpp6icalls8mscorlib6System9Threading6Thread27GetSerializedCurrentCultureEP12Il2CppThread
hKi:_Context_set_ReadSequenceNumber_m2154909392
vwl:_RijndaelTransform_SubByte_m3037693507
tTc:__Z31CalculateHierarchyTransformType23TransformAccessReadOnly
CFl:_ExpressionCollection_Add_m41125344
R4:__ZN4FMOD8ChannelI11setPositionEjj
Qth:_Input_INTERNAL_CALL_GetTouch_m3481893561
gLm:_GC_set_fl_marks
B9d:__ZN5physx6shdfnd8PoolBaseINS_2Sc12SimStateDataENS0_19ReflectionAllocatorIS3_EEE17releaseEmptySlabsEv
O3f:_Image__ctor_m2551076292
PFb:__ZN9GfxDevice17SetStereoViewportE15StereoscopicEyeRK5RectTIiE
UAa:__ZN17BaseObjectManager13StaticDestroyEPv
zla:__GLOBAL__sub_I_Runtime_Graphics_Mesh_1_cpp
A$l:_CanvasRenderer_INTERNAL_CALL_GetColor_m597074473
Yak:_UTF7Decoder_GetChars_m3413809261
ZPd:__ZN5physx2Gu22closestPtPointTriangleEPNS_6shdfnd3aos5Vec3VES4_S4_Rj
$ra:__ZN12CachedReader8InitReadER15CacheReaderBasejj
wje:__ZN5physx2Cm8PtrTableC2Ev
gFh:_Vector3_get_forward_m3100859705
U2:__ZN4FMOD6Reverb13setPropertiesEPK22FMOD_REVERB_PROPERTIES
Rmc:__ZN9DepthPass13PrepareSubsetEjRK10RenderNodeifRK17ShaderReplaceData
XVe:__ZN5physx16PxsBroadPhaseMBP6updateEjjRKNS_23PxcBroadPhaseUpdateDataEPNS_10PxBaseTaskE
kne:__ZN5physx9NpPhysics18createRigidDynamicERKNS_11PxTransformE
p4d:__ZN5physx6shdfnd5ArrayIPvNS0_19ReflectionAllocatorINS_2Sc18TriggerInteractionEEEE15growAndPushBackERKS2_
VEc:__ZN9ShaderLab20SerializedSubProgram16TextureParameter8TransferI14SafeBinaryReadEEvRT_
PC:__ZL63__ManagedRegistrationHelperFunction_AnimationLayerMixerPlayablePv
d2c:__Z35SetMeshComponentFromArrayFromScriptR4Mesh30InternalScriptingShaderChannel34InternalScriptingVertexChannelTypei17ScriptingArrayPtri
LLj:_Array_InternalArray__ICollection_Add_TisCustomAttributeNamedArgument_t287865710_m4157175270_gshared
ASd:__ZN5physx2Gu17intersectRayAABB2ERKNS_6shdfnd3aos5Vec3VES5_S5_S5_RKNS2_6FloatVERS6_S9_
yw:__ZN4core20StringStorageDefaultIcE6assignEPKcj
_ik:_UInt64_System_IConvertible_ToUInt64_m2135047981_AdjustorThunk
ooe:__ZNK5physx7NpShape17getSphereGeometryERNS_16PxSphereGeometryE
$Ci:_BigInteger_ModPow_m3776562770
FZd:__ZL18intersectAnyVsMeshILi1EEbPKN5physx2Gu6SphereEPKNS1_7CapsuleEPKNS1_3BoxERKNS1_13RTreeMidphaseERKNS0_11PxTransformERKNS0_11PxMeshScaleEP14LimitedResults
DCm:__ZN15dense_hashtableINSt3__24pairIK10KeyWrapperIP12Il2CppObjectEN6il2cpp2gc9CachedCCWEEES5_NS7_5utils11PointerHashIS3_EEN14dense_hash_mapIS5_S9_SD_NS5_14EqualsComparerINS0_8equal_toIS4_EEEENS0_9allocatorISA_EEE9SelectKeyESI_SK_E3endEv
XKf:__ZNSt3__26__treeINS_12__value_typeIN4core12basic_stringIcNS2_20StringStorageDefaultIcEEEE14CallbackArray3IRKS6_R8JSONReadbEEENS_19__map_value_compareIS6_SD_NS_4lessIS6_EELb1EEE13stl_allocatorISD_L18MemLabelIdentifier6ELi16EEE25__emplace_unique_key_argsIS6_JNS_4pairIS6_SC_EEEEENSN_INS_15__tree_iteratorISD_PNS_11__tree_nodeISD_PvEEiEEbEERKT_DpOT0_
jXc:__ZN15SharedLightDataC2E10MemLabelId
o7i:_ArrayList_IndexOf_m305368842
J7d:__ZN5physx6shdfnd5ArrayIPvNS0_15InlineAllocatorILj256ENS0_19ReflectionAllocatorINS_2Cm5BlockIhLj128EEEEEEEE15growAndPushBackERKS2_
Rwc:__ZN6Camera6SetFarEf
IKh:_FormatterConverter_ToBoolean_m1680758923
eEa:__ZN6prcoreL12RemapGenericI17TexFormatABGR888817TexFormatARGB8888EEvPKNS_9InnerInfoE
dQa:__ZN11GameManager17MainThreadCleanupEv
dwd:__Z25UpdateOrbitalAndRadialTplIL27ParticleSystemCurveEvalMode1ELS0_4ELS0_2EEvRK11MinMaxCurveS3_S3_S3_S3_S3_S3_R23ParticleSystemParticlesjjRKN4math8float3x3ERKNS6_7affineXERKNS6_7_float4E
mDf:__Z50Register_UnityEngine_UISystemProfilerApi_EndSamplev
$qd:__ZN14ParticleSystem10ResetSeedsEv
JLh:_SerializationCallbacks_GetSerializationCallbacks_m2939476649
Rqe:__ZNK5physx7NpCloth24getParticleAccelerationsEPNS_6PxVec4E
Evf:_UNITY_tt_slot_init
zic:__ZZ23InitPlayerLoopCallbacksvEN41PostLateUpdateUpdateResolutionRegistrator7ForwardEv
m0b:__Z25scripting_array_class_get17ScriptingClassPtrj
Raa:__ZNK10SampleClip22GetTypeVirtualInternalEv
HGb:__ZN9GfxDevice20DestroyRenderSurfaceER12ObjectHandleI17RenderSurface_TagP17RenderSurfaceBaseE
trj:_Stack__ctor_m2602729586
V2i:_Array_slow_swapper_m4116724811
Jvc:__ZN12_GLOBAL__N_15qAsinEff
zii:_InternalEnumerator_1_System_Collections_IEnumerator_get_Current_m2629988057_AdjustorThunk
HPa:__ZN12TLSAllocatorI14StackAllocatorE13ThreadCleanupEv
wkb:__ZN14SafeBinaryRead21TransferSTLStyleArrayI13dynamic_arrayI8Vector4fLj0EEEEvRT_17TransferMetaFlags
Tjk:_ValueType_InternalEquals_m1384040357
NIm:__ZThn4_N6il2cpp2vm13ComObjectBase16MarshalInterfaceEP13Il2CppIStreamRK10Il2CppGuidPvjS7_j
Kuj:_Convert_ToDouble_m996590115
fCc:__Z27FindActiveTransformWithPathPKc
Ttk:_ReadOnlyCollection_1_System_Collections_IList_Remove_m4169110229_gshared
zhk:_UInt16_ToString_m3020002356
GEe:__ZN5physx16PxsIslandManager14setEdgeRigidCMERKNS_20PxsIslandManagerHookIjLj4294967295EEEPNS_17PxsContactManagerE
XWh:_LayoutRebuilder_LayoutComplete_m68578143
hLl:_GUIStyle_get_fixedWidth_m2576616348
Uqj:_SortedList_Find_m3363512987
u8e:__ZN5physx2Gu11HeightField7releaseEv
Yoc:__ZNK6Camera7GetNearEv
mkh:_GenericTypeParameterBuilder_GetConstructorImpl_m863833310
Ty:__Z23CalcCapsuleWorldExtentsP8Vector3fRKS_S2_S2_S2_
jwi:_Enumerator_get_Current_m3687673883_AdjustorThunk
bCf:__ZN2UI13CanvasManager8SortListEv
jdc:__ZN7ApiGLES11UnmapBufferEjN2gl12BufferTargetE
cJm:__ZN6il2cpp5utilsL24Utf32CharToSurrogatePairEjRA2_Ds
pcb:__Z25GetNextAllowedTextureSizeib13TextureFormat
Bdc:__ZNK16UniformCacheGLES6SubmitEjRK13dynamic_arrayIN20GpuProgramParameters14ValueParameterELj0EERKS0_IiLj0EE
pka:__ZN19CloudServiceHandler6RetainEv
lqk:_ReadOnlyCollection_1_System_Collections_IList_IndexOf_m198887188_gshared
bwb:__ZN26LightProbeProxyVolumeUtilsL28ComputeGlobalAABBOnHierarchyER9TransformR10MinMaxAABB
iZk:__Z71RuntimeInvoker_Vector2_t2156229523_Vector2_t2156229523_Rect_t2360479859PFvvEPK10MethodInfoPvPS4_
uad:__Z36Event_CUSTOM_Internal_SetNativeEventPv
mak:_UTF32Encoding_GetBytes_m3180303867
x0e:__ZN5physx2Sc8ClothSim23addCollisionHeightfieldEPKNS0_8ShapeSimE
Yrk:_ReadOnlyCollection_1_System_Collections_IList_Clear_m2007013334_gshared
fxb:__Z34scripting_liveness_calculation_endPv
I5i:_Char_GetDataTablePointers_m754571594
gFm:__ZN6il2cpp2os6ThreadC2Ev
JXc:__ZN28ReflectionProbeAnchorManager7CleanupEv
Xkl:_List_1_set_Capacity_m725662605_gshared
Tzj:_DateTimeOffset_get_UtcDateTime_m1021718282_AdjustorThunk
It:__ZN7NavMesh25SetOffMeshConnectionFlagsEyj
yH:__ZN21AnimationClipPlayable22ProcessAnimationNoClipEPK35AnimationPlayableEvaluationConstantPK32AnimationPlayableEvaluationInputP33AnimationPlayableEvaluationOutput
P3h:_HybridDictionary_get_Count_m1166314536
Czl:_TlsStream_Write_m1412844442
Ahd:__Z18Transfer_BlittableI8JSONReadLb0E8Vector3fEvRK29SerializationCommandArgumentsR31RuntimeSerializationCommandInfo
gU:__ZN13AnimationClip12Vector3Curve8TransferI14SafeBinaryReadEEvRT_
nvh:_Matrix4x4__ctor_m53065545_AdjustorThunk
esm:__ZN6il2cpp2vm6Thread6DetachEP12Il2CppThread
dAl:_GeneralNames_get_DNSNames_m3788548987
wyf:_Render_Single_Pass
mVc:__ZZN19SkinnedMeshRenderer15InitializeClassEvEN29FunctorImpl_892kDidDeleteMesh4CallEPviR11MessageData
MFa:__ZL56__ManagedRegistrationHelperFunction_TextureMixerPlayablePv
fF:__ZN7mecanim8skeleton30SkeletonBuildReverseIndexArrayEPiPKiPKNS0_8SkeletonES6_
Gxd:__Z22UpdateOrbitalOffsetTplIL27ParticleSystemCurveEvalMode0ELS0_0EEvRK11MinMaxCurveS3_S3_S3_S3_S3_S3_R23ParticleSystemParticlesjjRKN4math8float3x3ERKNS6_7affineXERKNS6_7_float4E
Rad:__Z19GetGUIBlendMaterialv
zW:__ZN11KeyframeTplI11QuaternionfE8TransferI19StreamedBinaryWriteILb0EEEEvRT_
Nah:_Math_Round_m3018379666
XFm:__ZN6il2cpp2os10ThreadImpl5SleepEjb
d6c:__Z53Register_UnityEngine_Quaternion_LookRotation_Injectedv
jVe:__ZN5physx14SapPairManager12shrinkMemoryEv
y_:__ZN19StreamedBinaryWriteILb0EE21TransferSTLStyleArrayI22OffsetPtrArrayTransferIN7mecanim5human6HandleEEEEvRT_17TransferMetaFlags
MLf:__ZN22BaseUnityConnectClient12IsNewSessionEv
PVg:__ZL82LayoutCache_t78309876_CustomAttributesCacheGenerator_LayoutCache__ctor_m3885940174P21CustomAttributesCache
Fcf:__ZN5physx6shdfnd8internal7median3IjKNS_19SortBoundsPredicateEEEvPT_iiRT0_
nHj:_PlayableHandle_IsPlayableOfType_TisRuntimeObject_m503495943_AdjustorThunk
PW:__ZN18AnimatorController23VirtualRedirectTransferER24GenerateTypeTreeTransfer
I1m:_glBindSampler__wrapper
Hhc:__ZNSt3__26vectorIN20ArchiveStorageHeader12StorageBlockE13stl_allocatorIS2_L18MemLabelIdentifier55ELi16EEE8__appendEj
gg:_emscripten_set_mouseup_callback
GDc:__Z14resize_trimmedINSt3__26vectorIN9ShaderLab14SerializedPassENS0_9allocatorIS3_EEEEEvRT_j
fvh:_Mathf_Clamp_m3350697880
Mt:__ZN7NavMesh24ConnectOffMeshConnectionEjff
Mel:_List_1_System_Collections_IList_Remove_m3140917266_gshared
Xni:_InternalEnumerator_1_get_Current_m2112392701_AdjustorThunk
sHe:__ZN5physx7NpScene22removeBroadPhaseRegionEj
I4d:__ZL34GeomOverlapCallback_CapsuleCapsuleRKN5physx10PxGeometryERKNS_11PxTransformES2_S5_PNS_2Gu12TriggerCacheE
Y2b:__ZNK18ScreenManagerWebGL8GetWidthEv
AGe:__ZNK5physx7NpScene23getFilterShaderDataSizeEv
jek:_TimeSpan_get_TotalHours_m306507525_AdjustorThunk
Oaa:__ZN10SampleClipD2Ev
FAk:_Predicate_1_Invoke_m2389850270_gshared
zwb:__Z13GetGISettingsv
$ja:__ZN11UnityEngine15CloudWebService20WebRequestRestClientC2Ev
drf:_cff_cmap_unicode_init
pFj:_Array_InternalArray__ICollection_Contains_TisRuntimeObject_m4067783231_gshared
$Ea:__ZL60__ManagedRegistrationHelperFunction_AssemblyIsEditorAssemblyPv
csl:_Collection_1_IsValidItem_m3080586124_gshared
wZf:_ClipperRegistry_Register_m2407166513
jUm:_readlink
Mlm:__ZN15dense_hashtableINSt3__24pairIK10KeyWrapperINS1_IPK9EventInfoP11Il2CppClassEEEjEES9_17ReflectionMapHashIS8_EN14dense_hash_mapIS9_jSD_NS9_14EqualsComparerINS0_8equal_toIS8_EEEENS0_9allocatorISB_EEE9SelectKeyESI_SK_E12resize_deltaEjj
f8f:_MonoCMethod_Invoke_m2700167622
Hbj:_KeyMarker__cctor_m2590194914
Dsd:__ZN14ParticleSystem38UpdateModulesPostSimulationIncrementalER24ParticleSystemUpdateDataR23ParticleSystemParticlesjRKf
tQm:__ZN6il2cpp2os13SemaphoreImplC2Eii
Ilb:__ZNK6Sprite9GetBoundsE8Vector2fbb
IUa:__ZNK19RenderEventsContext21CleanupCommandBuffersEv
H_l:_TextGenerator_PopulateWithErrors_m1222498386
HX:__ZN7mecanim12statemachine13StateConstant8TransferI14SafeBinaryReadEEvRT_
_sk:_ReadOnlyCollection_1_System_Collections_Generic_ICollectionU3CTU3E_Clear_m2102011098_gshared
Kac:__ZN11ContextGLES6CreateEi
fZd:__ZN5physx6shdfnd5ArrayINS_10PxTriangleENS0_19ReflectionAllocatorIS2_EEE15growAndPushBackERKS2_
hil:_List_1_set_Capacity_m3382070520_gshared
vVh:_U3CMouseDragOutsideRectU3Ec__Iterator1_Dispose_m267465418
tBj:_Decimal_CompareTo_m3502307243_AdjustorThunk
m$b:__Z19TransferField_ArrayI18StreamedBinaryReadILb0EE27Converter_SimpleNativeClassI17AnimationCurveTplIfEEEvRK23StaticTransferFieldInfoR31RuntimeSerializationCommandInfoRT0_
$Pa:__ZN14StackAllocator16FrameMaintenanceEb
IYd:__ZL11SweepBoxBoxPKN5physx3Cct9SweepTestEPKNS0_11SweptVolumeEPKNS0_11TouchedGeomERKNS_14PxExtendedVec3ERKNS_6PxVec3ERNS0_12SweptContactE
Ueb:__Z18ReadStringFromFilePN4core17string_with_labelILi1EEERKNS_12basic_stringIcNS_20StringStorageDefaultIcEEEE
tgd:__ZN9JSONWrite8TransferI13dynamic_arrayIjLj0EEEEvRT_PKc17TransferMetaFlags
zva:__ZNK10GameObject20QueryComponentByTypeEPKN5Unity4TypeE
MAj:_Decimal_System_IConvertible_ToInt32_m1488426794_AdjustorThunk
obh:_MonoCustomAttrs_IsUserCattrProvider_m2878058089
Y1g:__ZL71InputField_t3762917431_CustomAttributesCacheGenerator_m_HideMobileInputP21CustomAttributesCache
_ab:__ZN11TextureData5ResetEv
_Mc:__Z53Register_UnityEngine_GameObject_get_activeInHierarchyv
tQi:_ToBase64Transform_InternalTransformFinalBlock_m360524956
e0i:_ActivationContext_Dispose_m2038725770
Fqa:__ZL30InitializeCoreScriptingClassesv
e$a:__ZN15SerializeTraitsI12fixed_bitsetILi28EjEE8TransferI18StreamedBinaryReadILb0EEEEvRS1_RT_
dh:_glBlitFramebuffer
ePe:__ZN5physx2Sq10AABBPrunerC2Eb
AQb:__Z35Transfer_Blittable_SingleValueFieldI14SafeBinaryReadhEvRT_R17GeneralMonoObjectRK23StaticTransferFieldInfo
m4c:__ZN4core8hash_setINS_4pairIKy9PlaneDataLb0EEENS_9hash_pairIN32PlaneColliderCache_dense_hashmap17UInt64HashFunctorES2_S3_EENS_10equal_pairINSt3__28equal_toIyEES2_S3_EEE4growEv
xek:_TimeSpan_Duration_m2963553230
vNf:__ZN22BaseUnityConnectClientC2ERN11UnityEngine7Connect20BasePersistentValuesE
n4c:__ZN4core8hash_setINS_4pairIKy9PlaneDataLb0EEENS_9hash_pairIN32PlaneColliderCache_dense_hashmap17UInt64HashFunctorES2_S3_EENS_10equal_pairINSt3__28equal_toIyEES2_S3_EEE4growEi
jod:__ZN24GenerateTypeTreeTransfer8TransferI13dynamic_arrayIN8UVModule10SpriteDataELj0EEEEvRT_PKc17TransferMetaFlags
OMj:_Array_InternalArray__ICollection_CopyTo_TisInt64_t3736567304_m2845057751_gshared
gbb:__ZNK12CubemapArray22GetTypeVirtualInternalEv
C0a:__ZN11Tetrahedron8TransferI18StreamedBinaryReadILb0EEEEvRT_
yo:FUNCTION_TABLE_vif
zo:FUNCTION_TABLE_vid
Bo:FUNCTION_TABLE_vii
qxb:__Z40scripting_liveness_calculation_from_root18ScriptingObjectPtrPv
_zd:__ZN13InitialModuleD2Ev
eZf:_ClipperRegistry_get_instance_m1533748353
A5a:__ZN7Texture23VirtualRedirectTransferER24GenerateTypeTreeTransfer
omf:_UNITY_FT_Set_Transform
pBm:__ZN6il2cpp8metadata15GenericMetadata20RegisterGenericClassEP18Il2CppGenericClass
l1m:_glDeleteFramebuffers__wrapper
CKk:__Z220RuntimeInvoker_Boolean_t97287965_RuntimeObject_Int32U26_t1369213839_Int32_t2950945753_Int32_t2950945753_Int32_t2950945753_RuntimeObject_SByte_t1669577662_Int32_t2950945753_ContractionU26_t961830454_ContextU26_t3937453398PFvvEPK10MethodInfoPvPS4_
rNc:__Z36Register_UnityEngine_RectOffset_Initv
TRj:_BitConverterLE_GetUIntBytes_m949779219
npf:_cff_blend_build_vector
o7h:_WebHeaderCollection_ToString_m1263025316
Vy:__ZNSt3__26vectorIi13stl_allocatorIiL18MemLabelIdentifier77ELi16EEE6insertENS_11__wrap_iterIPKiEERS6_
nag:_GetterAdapter_Invoke_m3767885970
ijl:_List_1__ctor_m747758800_gshared
ZWi:_String_CreateString_m2818852475
Wgb:__ZN28EnlightenRendererInformation8TransferI14SafeBinaryReadEEvRT_
Y$l:_CanvasRenderer_get_hasMoved_m2236392341
ake:__ZN5physx12NpBatchQuery13getUserMemoryEv
kxh:_MessageEvent__ctor_m1231650089
qzb:__ZNK15Lz4Decompressor16DecompressMemoryEPKvPjPvS2_
Ztf:_UNITY_tt_face_build_cmaps
vJc:__ZN4core8hash_mapINS_12basic_stringIcNS_20StringStorageDefaultIcEEEE10vector_setI4PPtrI11SpriteAtlasENSt3__24lessIS8_EE13stl_allocatorIS8_L18MemLabelIdentifier81ELi16EEENS_4hashIS4_EENS9_8equal_toIS4_EEEixERKS4_
l8a:__Z35UnityPropertySheet_MakeSortedColorsRKNSt3__23mapIN9ShaderLab16FastPropertyNameE10ColorRGBAfNS_4lessIS2_EENS_9allocatorINS_4pairIKS2_S3_EEEEEER10vector_mapIS2_S3_S5_NS6_INS7_IS2_S3_EEEEE
utf:_UNITY_tt_face_load_os2
q_e:__ZN5physx2GuL34fullContactsGenerationSphereConvexERKNS0_8CapsuleVERKNS0_11ConvexHullVERKNS_6shdfnd3aos12PsTransformVESB_PNS0_17PersistentContactERjRNS0_13ContactBufferEbRNS0_25PersistentContactManifoldERNS8_5Vec3VERKNS8_6FloatVEb
uNj:_Array_InternalArray__ICollection_CopyTo_TisUICharInfo_t75501106_m4268526610_gshared
x7d:__ZN5physx6shdfnd8PoolBaseINS_2Sc19ConstraintGroupNodeENS0_19ReflectionAllocatorIS3_EEE17releaseEmptySlabsEv
VPb:__Z29Transfer_Blittable_ArrayFieldI14SafeBinaryRead8Vector4fEvRT_R9ArrayInfoRK23StaticTransferFieldInfo
RDm:__GLOBAL__sub_I_BoehmGC_cpp
yR:__ZNK26AnimatorOverrideController22GetTypeVirtualInternalEv
mff:__ZNSt3__27__sort4IRNS_6__lessI24InterpolationDepthHandleS2_EEPS2_EEjT0_S6_S6_S6_T_
sbk:_UTF8Encoding_GetMaxCharCount_m3762459613
dih:_ModuleBuilder_RegisterToken_m4166846047
qic:__ZZ23InitPlayerLoopCallbacksvEN51PostLateUpdateUpdateCustomRenderTexturesRegistrator7ForwardEv
eZh:_RawImage_OnPopulateMesh_m1115858855
udm:__ZN6il2cpp2vm13MetadataCache25GetStringLiteralFromIndexEi
F0i:_Hashtable_ToPrime_m33531354
XH:__ZN7mecanim9animation12EvaluateClipEPKNS0_4ClipEPKNS0_9ClipInputEPNS0_10ClipMemoryEPNS0_10ClipOutputE
Fmk:_Collection_1_IsSynchronized_m1117613618_gshared
XOf:__ZN20UnityWebRequestProtoI24UnityWebRequestTransport16AtomicRefCounter14RedirectHelper14ResponseHelper15DownloadHandler13UploadHandler18CertificateHandler12HeaderHelper14AsyncOperationE19Task_FinishRedirectEPv
Qwi:_KeyCollection_System_Collections_Generic_ICollectionU3CTKeyU3E_Remove_m2555909644_gshared
y0d:__ZN5physx3Cct9SweepTest15onObstacleAddedEjPKNS_17PxObstacleContextERKNS_6PxVec3ES7_f
Egk:_TypeInitializationException__ctor_m3546444694
lPc:__ZNK9Transform16GetLocalRotationEv
bja:__ZN11UnityEngine15CloudWebService23WebRequestUploadHandler17ConsumeUploadDataEj
CZk:__Z68RuntimeInvoker_Void_t1185182177_Single_t1397266774_SByte_t1669577662PFvvEPK10MethodInfoPvPS4_
voj:_MemoryStream_set_Position_m3169779190
Lvc:__ZN13RenderManager29SetCurrentCameraAndStackStateEP6CameraP25CameraStackRenderingState
qUf:_ExecuteEvents_get_scrollHandler_m2659345019
AQa:__ZNSt3__26__treeINS_12__value_typeIjN4core12basic_stringIcNS2_20StringStorageDefaultIcEEEEEENS_19__map_value_compareIjS7_NS_4lessIjEELb1EEE13stl_allocatorIS7_L18MemLabelIdentifier7ELi16EEE7destroyEPNS_11__tree_nodeIS7_PvEE
hum:__ZN15dense_hashtableINSt3__24pairIK10KeyWrapperINS1_IP11Il2CppClassjEEES4_EES6_N6il2cpp8metadata14ArrayClassHashEN14dense_hash_mapIS6_S4_SB_NS6_14EqualsComparerINSA_17ArrayClassCompareEEENS0_9allocatorIS8_EEE9SelectKeyESF_SH_E12resize_deltaEjj
si:_JS_WebRequest_Release
$Mg:__ZL85Time_t2420636075_CustomAttributesCacheGenerator_Time_t2420636075____time_PropertyInfoP21CustomAttributesCache
Lha:__ZN11UnityEngine15CloudWebService14DataErrorEventD0Ev
vxm:__ZN6il2cpp6icalls8mscorlib6System4Type20internal_from_handleEi
r4i:_Boolean_System_IConvertible_ToUInt16_m3465173538_AdjustorThunk
mqd:__ZN14EmissionModule5ResetEv
Gfg:_Context__ctor_m254302079
PQe:__ZN5physx13PxsCCDContext12postCCDSweepEPNS_10PxBaseTaskE
aeb:__ZN19ShaderPropertySheet16SetArrayPropertyEN9ShaderLab16FastPropertyNameENS_12PropertyTypeEPKvj
Y_h:_Selectable_FindSelectable_m2348614027
V0f:_DropdownItem_OnPointerEnter_m1492957598
ldf:__ZN5physx6shdfnd10Foundation19AlignCheckAllocator28deregisterAllocationListenerERNS_20PxAllocationListenerE
KLa:__ZN9Scripting11UnityEngine9BoundsInt9InitProxyEv
kbd:__ZN8GUIState8EndOnGUIEv
bKf:__ZN11UnityEngine15PlatformWrapper16GetApplicationIdEv
Lvf:_UNITY_TT_Get_VMetrics
Xai:_X509Chain__cctor_m993507223
cTe:__ZN5physx33solveContactCoulombBlockWriteBackEPKNS_23PxcSolverConstraintDescEjRNS_16PxcSolverContextEPNS_25PxcThresholdStreamElementEjPi
D8i:_SimpleEnumerator__cctor_m2844299657
vah:_LocalDataStoreSlot__ctor_m4104083971
kuk:_ReadOnlyCollection_1_System_Collections_Generic_IListU3CTU3E_RemoveAt_m3849058645_gshared
jTl:_AudioSource_ReadExtensionName_m725112169
dCl:_X509CertificateEnumerator_System_Collections_IEnumerator_Reset_m2039524926
R_e:__ZN5physx9PxTaskMgr17submitUnnamedTaskERNS_6PxTaskENS_10PxTaskType4EnumE
oRk:__Z128RuntimeInvoker_Void_t1185182177_RuntimeObject_BooleanU26_t4125257963_SByte_t1669577662_Int32U26_t1369213839_Int32U26_t1369213839PFvvEPK10MethodInfoPvPS4_
Z5a:__ZN7Texture21GetMasterTextureLimitEv
pqb:__ZN13dynamic_arrayI9InputAxisLj0EE18resize_initializedEj12ResizePolicy
Dxc:__Z12CanAddScriptR10GameObject17ScriptingClassPtrPS1_S2_
Lom:__ZN6il2cpp2vm10Reflection12HasAttributeEP12Il2CppObjectP11Il2CppClass
oxk:_Comparison_1_BeginInvoke_m3263247262_gshared
zpa:__ZN9ShaderLabL25StaticInitializeShaderLabEPv
KUd:__ZN12MeshCollider23VirtualRedirectTransferER24GenerateTypeTreeTransfer
IOe:__ZNK5physx2Sq12BucketPruner5sweepERKNS0_9ShapeDataERKNS_6PxVec3ERfRNS0_14PrunerCallbackE
U:Math_max
H4g:__ZL64HorizontalLayoutGroup_t2586782146_CustomAttributesCacheGeneratorP21CustomAttributesCache
Dqm:_il2cpp_class_get_methods
vDh:_HitInfo_SendMessage_m1343099429_AdjustorThunk
GSb:__Z18Transfer_BlittableI24GenerateTypeTreeTransferLb0EN4math12int2_storageEEvRK29SerializationCommandArgumentsR31RuntimeSerializationCommandInfo
wCj:_StackTrace_get_trace_m1194606084
hUi:_Single_CompareTo_m2785801815_AdjustorThunk
oFm:__ZN6il2cpp2os6Thread16GetCurrentThreadEv
tLf:__ZN11UnityEngine7Connect20RemoteConfigSettings10UnregisterEv
R7k:_Array_InternalArray__Insert_TisUILineInfo_t4195266810_m3191124053_gshared
kKc:__ZN10GameObject13ComponentPair15SetComponentPtrEPN5Unity9ComponentE
C$m:_glBlitFramebuffer__wrapper
Aif:__ZN5physx6shdfnd8internal8HashBaseINS0_4PairIKPKNS0_14NamedAllocatorEPKcEES6_NS0_4HashIS6_EENS1_11HashMapBaseIS6_S9_SC_NS0_20NonTrackingAllocatorEE6GetKeyESE_Lb1EE15reserveInternalEj
GQa:__ZN10TagManager8TransferI19StreamedBinaryWriteILb0EEEEvRT_
Mwb:__ZN11PreloadData23VirtualRedirectTransferER18StreamedBinaryReadILb0EE
fMa:__ZN9Scripting11UnityEngine24AssemblyIsEditorAssembly12CleanupProxyEv
Q5i:_Char_System_IConvertible_ToDateTime_m3564102661
H1:__ZN13RuntimeStaticINSt3__26vectorI12WebCamDeviceNS0_9allocatorIS2_EEEELb0EE13StaticDestroyEPv
xhb:__ZN6Sprite17MainThreadCleanupEv
N$m:_glBlendFuncSeparate__wrapper
n7:__ZN10AudioMixer14UpdateMuteSoloEv
UVa:__ZN12BaseRenderer25FlattenSharedMaterialDataILb0EEEbRKS_R22PerThreadPageAllocatorR10RenderNode
Eme:__ZN5physx6shdfnd5ArrayINS_3Scb13MaterialEventENS0_19ReflectionAllocatorIS3_EEE15growAndPushBackERKS3_
rJg:__ZL101MonoBehaviour_t3962482529_CustomAttributesCacheGenerator_MonoBehaviour_StartCoroutine_Auto_m594129169P21CustomAttributesCache
tj:_JS_Eval_ClearTimeout
e5m:_glDepthFunc__wrapper
hLb:__ZN7ApiGLES16SetPatchVerticesEi
qHl:_CharacterClass_Compile_m3296067317
m9d:__ZN5physx2Sc5Scene11onBodySleepEPNS0_7BodySimE
SEm:__ZN6il2cpp2gc16GarbageCollector16InvokeFinalizersEv
d5i:_Byte_System_IConvertible_ToInt64_m285584218_AdjustorThunk
OAh:_Rect_get_size_m477575021_AdjustorThunk
j5l:__ZN6il2cpp2vm5Class20FromGenericParameterEPK22Il2CppGenericParameter
XJj:_Array_IndexOf_TisVector3_t3722313464_m4284163268_gshared
IWd:__ZL28GeomMTDCallback_PlaneCapsuleRN5physx6PxVec3ERfRKNS_10PxGeometryERKNS_11PxTransformES5_S8_
nAa:__ZN15GlobalCallbacksC2Ev
NLj:_Array_InternalArray__ICollection_Add_TisLabelData_t360167391_m1648183135_gshared
tti:_Comparer_1_System_Collections_IComparer_Compare_m2016223770_gshared
RYi:_Encoding_GetBytes_m3823106599
lQk:__Z74RuntimeInvoker_DateTime_t3738529785_DateTime_t3738529785_Int32_t2950945753PFvvEPK10MethodInfoPvPS4_
aof:_UNITY_FT_New_Memory_Face
_ul:_Collection_1_System_Collections_IList_IndexOf_m3271188411_gshared
Ilf:__ZN20TextRenderingPrivate21TextMeshGeneratorImpl5FlushEv
goj:_MonoIO_GetFileStat_m678141354
Lrf:_UNITY_FT_Load_Sfnt_Table
gy:__ZNSt3__27__sort3IRPFbRK8Vector2fS3_EPS1_EEjT0_S8_S8_T_
$me:__ZN5physx9NpPhysics16createConvexMeshERNS_13PxInputStreamE
iBj:_Decimal_IsZero_m4250358244_AdjustorThunk
fah:_UnmanagedMemoryStream_get_CanRead_m3770815400
rwc:__ZN16ReflectionProbes40UpdateRealtimeReflectionProbesTimeslicedEv
Nhb:__ZN14SafeBinaryRead21TransferSTLStyleArrayI13dynamic_arrayI8Vector2fLj0EEEEvRT_17TransferMetaFlags
vsj:_Decimal_u64_m3374804932
z8d:__ZN5physx2Sq17SceneQueryManager8addShapeERKNS_7NpShapeERKNS_12PxRigidActorEbPNS_9PxBounds3E
Xgk:_UInt16_System_IConvertible_ToInt32_m1950778303_AdjustorThunk
psb:__ZNK30RuntimeInitializeOnLoadManager22GetTypeVirtualInternalEv
qam:__ZN15dense_hashtableINSt3__24pairIK10KeyWrapperIN6il2cpp5utils13dynamic_arrayIPK10Il2CppTypeLj4EEEEPFvvEEESA_NS3_8metadata19Il2CppSignatureHashEN14dense_hash_mapISA_SD_SG_NSA_14EqualsComparerINSF_22Il2CppSignatureCompareEEENS0_9allocatorISE_EEE9SelectKeyESK_SM_E12resize_deltaEjj
qYc:__ZN16ReflectionProbes15InitializeClassEv
Vrk:_ReadOnlyCollection_1_System_Collections_ICollection_CopyTo_m2527663815_gshared
Wym:__ZN6il2cpp2vm5Image9GetCorlibEv
ZGh:_Vector3_get_left_m2428419009
dDm:__ZN6il2cpp2vm11MethodStack17GetStackFramesRawEv
LSe:__ZNK5physx2Gu29EPASupportMapPairRelativeImplINS0_8CapsuleVES2_E9doSupportERKNS_6shdfnd3aos5Vec3VERS6_S9_S9_
dUf:_ExecuteEvents_Execute_m113814934
Iwa:__ZN13RuntimeStaticINSt3__23mapIN4core12basic_stringIcNS2_20StringStorageDefaultIcEEEES6_NS0_4lessIS6_EE13stl_allocatorINS0_4pairIKS6_S6_EEL18MemLabelIdentifier13ELi16EEEELb0EE13StaticDestroyEPv
ZGm:__ZN14dense_hash_mapI10KeyWrapperIPK19Il2CppGenericMethodEP10MethodInfoN6il2cpp8metadata23Il2CppGenericMethodHashENS4_14EqualsComparerINS8_26Il2CppGenericMethodCompareEEENSt3__29allocatorINSD_4pairIKS4_S6_EEEEE13set_empty_keyERSG_
Nph:_Coroutine_ReleaseCoroutine_m947702340
vcf:__ZN5physx10SubSortSAH5sort4EPjjRNS_6shdfnd5ArrayINS_11RTreeNodeNQENS2_19ReflectionAllocatorIS4_EEEERjjPS4_
Ati:_Enumerator_System_Collections_IEnumerator_get_Current_m2979767597_AdjustorThunk
NCk:__ZN30GenericInterfaceActionInvoker1I17Color_t2555686324E6InvokeEPK10MethodInfoP12Il2CppObjectS0_
sRh:_MD5CryptoServiceProvider_ProcessFinalBlock_m2241588515
g0h:_ScrollRect_GetBounds_m449872505
rk:_glIsVertexArray
uxd:__Z25UpdateOrbitalAndRadialTplIL27ParticleSystemCurveEvalMode3ELS0_2ELS0_1EEvRK11MinMaxCurveS3_S3_S3_S3_S3_S3_R23ParticleSystemParticlesjjRKN4math8float3x3ERKNS6_7affineXERKNS6_7_float4E
Zhj:_Int16_Parse_m2276856944
EAf:__ZL42__ManagedRegistrationHelperFunction_CanvasPv
ga:invoke_fff
_Tm:_mbsinit
t_m:b14
uif:__ZN5physx2Sc7PhysicsC2ERKNS_17PxTolerancesScaleERKNS_14PxvOffsetTableE
Q5c:__Z34RenderTexture_Get_Custom_PropWidthP12Il2CppObject
kff:__ZNSt3__26__sortIRNS_6__lessI24InterpolationDepthHandleS2_EEPS2_EEvT0_S6_T_
vBf:__ZN2UI6Canvas17MainThreadCleanupEv
ZDa:__ZN6prcoreL12RemapGenericI17TexFormatARGB155517TexFormatRGBA8888EEvPKNS_9InnerInfoE
c7l:__ZN13Il2CppHashMapIPK19Il2CppGenericMethodPK26Il2CppGenericMethodIndicesN6il2cpp8metadata23Il2CppGenericMethodHashENS7_26Il2CppGenericMethodCompareENSt3__29allocatorINSA_4pairIK10KeyWrapperIS2_ES5_EEEEEC2EjRKS8_RKS9_
h6f:_TypeBuilder_HasElementTypeImpl_m1871001960
mTi:_SecurityFrame__ctor_m2140076703_AdjustorThunk
$9k:_Array_Resize_TisVector2_t2156229523_m3382835435_gshared
g_j:_DefaultComparer_Equals_m2458578172_gshared
BLb:__ZN7ApiGLES13CreateProgramEv
f2a:__ZN11HaloManager7AddHaloEv
$ti:_Enumerator_VerifyState_m4003066746_gshared
Bcb:__ZN4crnd12crn_unpackerD2Ev
X1:__ZN9Scripting11UnityEngine12Experimental5Audio19AudioSampleProvider9InitProxyEv
Hk:_emscripten_glTexImage2D
nsi:_Comparer_1_System_Collections_IComparer_Compare_m2537217645_gshared
TXa:__ZN16MeshVertexFormat20GetVertexDeclarationER9GfxDevice16VertexInputMasksPKS_
uqa:__ZN18ScriptingArguments9AddStringEPKc
pMm:_setup_header
I6i:_Char_ToString_m3588025615
KSe:__ZNK5physx2Gu29EPASupportMapPairRelativeImplINS0_8CapsuleVES2_E18doWarmStartSupportEiiRNS_6shdfnd3aos5Vec3VES7_S7_
qSj:_CryptoConvert_ToCapiKeyBlob_m3371450375
U9a:__ZL23stbir__resize_arbitraryPvPKviiiS_iiiffffPfiij14stbir_datatype12stbir_filterS4_10stbir_edgeS5_16stbir_colorspace
Yqd:__ZN23ParticleSystemParticles13array_reserveEj
_Sb:__Z18Transfer_BlittableI24GenerateTypeTreeTransferLb1E8Vector4fEvRK29SerializationCommandArgumentsR31RuntimeSerializationCommandInfo
x_m:b18
Sk:_pthread_detach
wem:__ZN6il2cpp2vm19SocketPollingThread7RunLoopEv
B1f:_FontUpdateTracker_UntrackText_m1981515690
_5g:__ZL64AnalyticsEventTracker_t2285229262_CustomAttributesCacheGeneratorP21CustomAttributesCache
RNe:__ZN5physx11EdgeManager6resizeEj
e0c:__ZN15DirectorManager20ScheduleGraphDestroyERK14HPlayableGraph
b0b:__ZNSt3__213__stable_sortIRN10vector_mapI17ScriptingClassPtrPKN5Unity4TypeENS_4lessIS2_EENS_9allocatorINS_4pairIS2_S6_EEEEE13value_compareENS_11__wrap_iterIPSB_EEEEvT0_SJ_T_NS_15iterator_traitsISJ_E15difference_typeEPNSM_10value_typeEi
ZOj:_SimpleCollator_FillSurrogateSortKeyRaw_m725998232
ull:_List_1_AddEnumerable_m1284696147_gshared
Fz:__ZNK12NavMeshQuery18ClosestPointOnPolyEyRK8Vector3fPS0_
EGc:__ZN9ShaderLab25SerializedTextureProperty8TransferI24GenerateTypeTreeTransferEEvRT_
Dmm:__ZN6il2cpp2gc19AppendOnlyGCHashMapINSt3__24pairIPK14Il2CppAssemblyP11Il2CppClassEEP24Il2CppReflectionAssembly17ReflectionMapHashIS9_ENS2_8equal_toIS9_EEEC2Ev
MVb:__Z18Transfer_BlittableI19StreamedBinaryWriteILb0EELb0EdEvRK29SerializationCommandArgumentsR31RuntimeSerializationCommandInfo
KAe:__ZN5physx2Sc5Scene12removeStaticERNS0_10StaticCoreERNS_6shdfnd11InlineArrayIPKNS0_9ShapeCoreELj64ENS4_19ReflectionAllocatorIS8_EEEEb
pla:__GLOBAL__sub_I_Runtime_Camera_RenderLoops_2_cpp
it:__ZNSt3__26__treeINS_12__value_typeIiN15HeightMeshQuery10HeightDataEEENS_19__map_value_compareIiS4_NS_4lessIiEELb1EEE13stl_allocatorIS4_L18MemLabelIdentifier77ELi16EEE7destroyEPNS_11__tree_nodeIS4_PvEE
cPa:__ZN11NamedObject8TransferI18StreamedBinaryReadILb0EEEEvRT_
rrh:_InvokableCall_remove_Delegate_m1376110510
dbj:_Hashtable_Clear_m3112193608
abk:_UTF8Encoding_InternalGetByteCount_m771565606
yid:__Z18Transfer_BlittableI8JSONReadLb1EyEvRK29SerializationCommandArgumentsR31RuntimeSerializationCommandInfo
Dgl:_List_1_System_Collections_IList_Remove_m3654336679_gshared
_Qg:__ZL51GUILayer_t2783472903_CustomAttributesCacheGeneratorP21CustomAttributesCache
VXa:__ZN9GfxDevice20GetVertexDeclarationERK18VertexChannelsInfoNS_30VertexDeclarationMRUCacheIndexE
nl:_emscripten_glMatrixMode
rYh:_MaskableGraphic_UnityEngine_UI_IClippable_get_gameObject_m1739855597
FF:__ZN8Animator23VirtualRedirectTransferER18StreamedBinaryReadILb0EE
Mgj:_Guid__ctor_m3562600567_AdjustorThunk
Cka:__ZN19CloudServiceHandler19StopEventDispatcherEv
p8e:__ZN5physx13GuMeshFactory17createHeightFieldERNS_13PxInputStreamE
TDe:__ZN5physx2Sc10NPhaseCore25createShapeInstancePairLLERNS0_8ShapeSimES3_NS_7PxFlagsINS_10PxPairFlag4EnumEtEE
byj:_DateTime_System_IConvertible_ToInt16_m3239820399
dha:__ZN11UnityEngine15CloudWebService14DataDispatcher16PrepareDataBlockERNS0_16SessionContainerE
sgc:__ZN18GfxFramebufferGLES5ClearE13GfxClearFlagsRK10ColorRGBAffib
YEe:__ZThn8_N5physx2Sc19ShapeInstancePairLL12onDeactivateEj
_Lh:_ObjectManager_DoFixups_m3038765937
yjk:_UIntPtr_ToString_m984583492_AdjustorThunk
C_b:__ZL26Transfer_SimpleNativeClassI18StreamedBinaryReadILb0EE10RectOffsetLb0EEvRK29SerializationCommandArgumentsR31RuntimeSerializationCommandInfo
mli:_InternalEnumerator_1_get_Current_m2316281569_gshared
Bmc:__ZL12DepthPassJobPN21GfxDeviceAsyncCommand10ArgScratchEPKNS_3ArgE
XEc:__ZNSt3__26vectorIN9ShaderLab20SerializedSubProgram16TextureParameterENS_9allocatorIS3_EEE6assignINS_11__wrap_iterIPS3_EEEENS_9enable_ifIXaasr21__is_forward_iteratorIT_EE5valuesr16is_constructibleIS3_NS_15iterator_traitsISC_E9referenceEEE5valueEvE4typeESC_SC_
Awh:_MonoBehaviour_IsInvoking_m3285132449
Pdd:__ZN5Unity9rapidjson6WriterI16TempBufferWriterNS0_4UTF8IcEES4_13JSONAllocatorE11WriteDoubleEd
HKd:__ZN9Rigidbody16ApplyConstraintsEv
Kck:_Thread_SetCachedCurrentUICulture_m1729523031
NJb:__ZN14GfxDeviceStats16CopyAllDrawStatsERKS_
IIi:_ClientContext_set_ClientHelloProtocol_m4189379912
wmd:__ZN11MinMaxCurve5ResetE23ParticleSystemCurveModef
un:FUNCTION_TABLE_iiiiiiiiiiii
Xqd:__ZNK14ParticleSystem27CalculateMaxActiveParticlesEv
Zkl:_List_1_get_Item_m1686506901_gshared
Awe:__ZN5physx2Sc17ParticleSystemSim8setFlagsEj
$Za:__ZN16GraphicsSettingsD0Ev
pna:__Z12FormatBufferPciPKcz
jLf:__ZNSt3__26__treeINS_12__value_typeIN4core12basic_stringIcNS2_20StringStorageDefaultIcEEEE14CallbackArray3IRKS6_R8JSONReadbEEENS_19__map_value_compareIS6_SD_NS_4lessIS6_EELb1EEE13stl_allocatorISD_L18MemLabelIdentifier6ELi16EEE7destroyEPNS_11__tree_nodeISD_PvEE
n:cttz_i8
bpf:_UNITY_FT_GlyphLoader_Add
obf:__ZN5physx2Gu15EdgeListBuilder18CreateEdgesToFacesEjPKjPKt
SYd:__ZN5physx11PxMeshQuery5sweepERKNS_6PxVec3EfRKNS_10PxGeometryERKNS_11PxTransformEjPKNS_10PxTriangleERNS_10PxSweepHitENS_7PxFlagsINS_9PxHitFlag4EnumEtEEPKjfb
rem:_RemoteSettings_RemoteSettingsUpdateCompleted_m2057218144
gOl:_EnemyHealth_OnEnable_m2772499255
rOf:__ZN9Scripting11UnityEngine10Networking29UnityWebRequestAsyncOperation9InitProxyEv
FTl:_AudioListener_INTERNAL_CALL_ReadExtensionPropertyName_m330480156
Gx:__ZN13dynamic_arrayI8Vector3fLj0EE9push_backERKS0_
Dwj:_Convert_ToUInt16_m867476252
km:_emscripten_glViewport
UIm:__ZN6il2cpp6icalls8mscorlib6System15MonoCustomAttrs17IsDefinedInternalEP12Il2CppObjectP20Il2CppReflectionType
oQe:__ZN5physx6shdfnd5ArrayIPhNS0_19ReflectionAllocatorIS2_EEE8recreateEj
m1l:_SkeletonBone_t4134054672_marshal_pinvoke_back
GLa:__ZN9Scripting11UnityEngine10CacheIndex9InitProxyEv
yqf:_cff_parse_font_bbox
wLd:__ZThn28_N14PhysicsManagerD0Ev
j$e:__ZN5physx2Sc27ConstraintProjectionManagerC2Ev
_Zd:__Z14raycast_sphereRKN5physx10PxGeometryERKNS_11PxTransformERKNS_6PxVec3ES8_fNS_7PxFlagsINS_9PxHitFlag4EnumEtEEjPNS_12PxRaycastHitEbPFbRSD_PvESG_
Fqb:__ZN14PlayerSettings23VirtualRedirectTransferER18StreamedBinaryReadILb0EE
ZJk:__Z85RuntimeInvoker_Void_t1185182177_Int32_t2950945753_Int32_t2950945753_Int32_t2950945753PFvvEPK10MethodInfoPvPS4_
NCj:_Double_System_IConvertible_ToDateTime_m2414543049_AdjustorThunk
AJf:__ZN11UnityEngine15PlatformWrapper16GetVRFieldOfViewEv
IB:__ZN13ProduceHelperI22NavMeshProjectSettingsLb0EE7ProduceE10MemLabelId18ObjectCreationMode
kDj:_Double_CompareTo_m3151899116
zRm:__ZN6il2cpp2os5Event5ResetEv
Ntf:_tt_name_ascii_from_other
M9g:_TextWriter_Write_m2252948084
eSl:_ToggleGroup__ctor_m3308114662
ZAm:__ZN6il2cpp8metadata15GenericMetadata17InflateParametersEPK13ParameterInfohPK20Il2CppGenericContextb
iOi:_RSAParameters_t1728406613_marshal_pinvoke_back
Pal:_Array_Sort_TisUILineInfo_t4195266810_m3737783007_gshared
zyh:_PlayableAsset_Internal_CreatePlayable_m2550417712
GCh:_RenderTexture_get_width_m2160921386
UI:__ZNK17AnimationPlayable27GetNextCompatibleDescendantEj
bof:__ZN13dynamic_arrayIN4core17string_with_labelILi35EEELj0EE6insertEPS2_jRKS2_
HWg:__ZL64GUIUtility_t1868551600_CustomAttributesCacheGenerator_s_SkinModeP21CustomAttributesCache
Lzl:_TlsStream_Write_m188217214
UTk:__Z50RuntimeInvoker_Ray_t3785851493_Vector3_t3722313464PFvvEPK10MethodInfoPvPS4_
L3b:__Z25SetNeedToPerformRenderingb
Jod:__ZN12LightsModule8TransferI17RemapPPtrTransferEEvRT_
OGf:__ZN8JSONRead12TransferPairINSt3__24pairIN4core12basic_stringIcNS3_20StringStorageDefaultIcEEEEN11UnityEngine9Analytics16LimitEventConfigEEEEEvRT_17TransferMetaFlagsPKN5Unity9rapidjson12GenericValueINSG_4UTF8IcEE13JSONAllocatorEE
gRa:__ZN10GameObjectD2Ev
Pmc:__ZN14qsort_internal30FindAndMovePivotToLastPositionIP15RODataDepthPassi17ROSorterDepthPassEEvT_S4_T0_T1_
VBd:__ZN29InitialModulePropertyBindings13GetFloatValueERK14ParticleSystemi
MRe:__ZN5physxL27PxcSweepAnyShapeHeightfieldERKNS_11PxsCCDShapeES2_PKNS_12PxsRigidBodyES5_RKNS_11PxTransformES8_fRNS_6PxVec3ESA_RNS_10PxcNpCacheERNS_18PxcNpThreadContextE
pvc:__ZN12CullingGroup10SendEventsEPK17CullingGroupEventj
QZ:__ZN15SerializeTraitsIN7mecanim5human6HandleEE8TransferI14SafeBinaryReadEEvRS2_RT_
FVf:_PointerInputModule__ctor_m3728889932
Cfb:__ZThn32_NK8Renderer8GetLayerEv
V1c:__ZNK4Mesh17GetPrimitiveCountEv
LKj:_Array_InternalArray__IndexOf_TisUInt64_t4134040092_m1206929132_gshared
RMe:__ZN5physx3Scb5SceneD2Ev
H5j:_Enumerator_System_Collections_IEnumerator_Reset_m2915500989_gshared
Dqf:_cff_parse_vsindex
iij:_Int32_ValidDigit_m1059003769
c4m:_emscripten_glTexParameterfv__wrapper
UBh:_RectTransform_INTERNAL_get_sizeDelta_m2173368204
fWh:_LayoutGroup_get_rectTransform_m442863741
gNb:__Z18Transfer_BlittableI14SafeBinaryReadLb1E9BoundsIntEvRK29SerializationCommandArgumentsR31RuntimeSerializationCommandInfo
QSc:__ZN2UI13RectTransform17GetLocalPositionZEv
F$m:b63
urm:_il2cpp_method_get_param_count
kwa:__ZNK5Unity4Type21FindAllDerivedClassesER13dynamic_arrayIPKS0_Lj0EENS0_17TypeFilterOptionsE
ROc:__ZN10systeminfo19ISOToSystemLanguageERN4core12basic_stringIcNS0_20StringStorageDefaultIcEEEE
wlm:__ZNK15dense_hashtableINSt3__24pairIK10KeyWrapperINS1_IPK12PropertyInfoP11Il2CppClassEEEjEES9_17ReflectionMapHashIS8_EN14dense_hash_mapIS9_jSD_NS9_14EqualsComparerINS0_8equal_toIS8_EEEENS0_9allocatorISB_EEE9SelectKeyESI_SK_E3endEv
AKd:__Z16GetDynamicsScenev
FNf:__ZN22BaseUnityConnectClient14AppRunningTickEj
Jxf:_ps_dimension_done
lzf:__Z46Register_UnityEngine_TextGenerator_Dispose_cppv
oDj:_Double_Parse_m4153729520
efj:_GregorianCalendar_GetYear_m854131864
Nxd:__Z25UpdateOrbitalAndRadialTplIL27ParticleSystemCurveEvalMode0ELS0_4ELS0_2EEvRK11MinMaxCurveS3_S3_S3_S3_S3_S3_R23ParticleSystemParticlesjjRKN4math8float3x3ERKNS6_7affineXERKNS6_7_float4E
Bgb:__ZN16LightmapSettings8TransferI14SafeBinaryReadEEvRT_
Fac:__ZN17BufferManagerGLES13ReleaseBufferEP14DataBufferGLES
HHi:_CipherSuite_Write_m1172814058
F5d:__ZN5physx6shdfnd5ArrayIPvNS0_19ReflectionAllocatorINS_16NpConnectorArrayEEEE15growAndPushBackERKS2_
p9g:_SynchronizedWriter_Write_m301917713
doa:__ZN9profiling6MarkerC2EPKc13ProfilerGroupNS0_5FlagsE
$Ce:__ZN5physx2Sc5Scene15prepareSimulateEv
vid:__Z18Transfer_BlittableI8JSONReadLb1EjEvRK29SerializationCommandArgumentsR31RuntimeSerializationCommandInfo
j7d:__ZN5physx6shdfnd5ArrayIPNS_2Sc11InteractionENS0_19ReflectionAllocatorIS4_EEE8recreateEj
hih:_ConstructorBuilder_get_IsCompilerContext_m3364441562
rqh:_Debug_LogWarning_m3752629331
_Rc:__Z13RegisterClassIN2UI13RectTransformEEvPKc
mLa:__ZN9Scripting11UnityEngine7Texture9InitProxyEv
wwk:_ReadOnlyCollection_1_System_Collections_Generic_IListU3CTU3E_RemoveAt_m4037795630_gshared
wOk:__Z117RuntimeInvoker_Void_t1185182177_RuntimeObject_Int32_t2950945753_Int32_t2950945753_Int32_t2950945753_Int32_t2950945753PFvvEPK10MethodInfoPvPS4_
Q9:__Z30GetAudioSpatializerDefinitionsR13dynamic_arrayIP29AudioEffectInternalDefinitionLj0EE31UnityAudioEffectDefinitionFlags
qYf:_U3COnFinishSubmitU3Ec__Iterator0_Reset_m3632769946
_p:stackSave
Dja:__ZN5Unity9rapidjson15GenericDocumentINS0_4UTF8IcEE13JSONAllocatorNS0_12CrtAllocatorEE6StringEPKcjb
t_f:_ColorTween_get_targetColor_m1724075482_AdjustorThunk
cyf:_ps_dimension_end
B7c:__Z41Register_UnityEngine_Mesh_Internal_Createv
XAm:__ZNK15dense_hashtableI10KeyWrapperIP18Il2CppGenericClassES3_N6il2cpp8metadata22Il2CppGenericClassHashEN14dense_hash_setIS3_S6_NS3_14EqualsComparerINS5_25Il2CppGenericClassCompareEEENSt3__29allocatorIS3_EEE8IdentityESA_SD_E12test_deletedERK30dense_hashtable_const_iteratorIS3_S3_S6_SF_SA_SD_E
m6l:__ZN6il2cpp2vm5Class14GetNestedTypesEP11Il2CppClassPPv
hef:__Z63Register_UnityEngine_Physics_INTERNAL_CALL_Internal_RaycastTestv
y2:__ZN14SafeBinaryRead21TransferSTLStyleArrayI13dynamic_arrayI4PPtrI15AudioMixerGroupELj0EEEEvRT_17TransferMetaFlags
Qrj:_Console_Open_m3077673205
kCl:_X509StoreManager_get_CurrentUser_m4040993045
Ywc:__ZN6Camera9SetAspectEf
lKj:_Array_InternalArray__IndexOf_TisDateTime_t3738529785_m2463359116_gshared
Ba:invoke_viiffiii
Yod:__ZN8UVModule8TransferI18StreamedBinaryReadILb0EEEEvRT_
E5m:_emscripten_glBindVertexArray__wrapper
zDm:__ZN6il2cpp6icalls8mscorlib6System4Enum19get_underlying_typeEP20Il2CppReflectionType
kdi:_RepeatContext_get_IsMinimum_m3640286252
_Hl:_Parser_IsECMAScript_m674158805
fSa:__ZN9Transform37InitializeTransformHierarchyRecursiveER18TransformHierarchyRii
MLb:__ZN26SinglePassStereoSupportExt23SetupStereoMatrixParamsE21MonoOrStereoscopicEye24BuiltinShaderMatrixParamRK10Matrix4x4f
TYj:_DefaultComparer_Equals_m3770904334_gshared
uIb:__ZN9GfxDevice23CreateAsyncReadbackDataEv
_Gd:__ZN14ParticleSystem22UpdateAllTransformDataEv
FOf:__ZNK25UnityWebRequestJavaScript16GetUploadedBytesEv
Nca:__Z46AudioListener_CUSTOM_GetNumExtensionPropertiesP12Il2CppObject
Hfm:__ZN6il2cpp6icalls8mscorlib6SystemL16CheckMemberMatchI9FieldInfoNS_5utils10functional6FilterINSt3__212basic_stringIcNS8_11char_traitsIcEENS8_9allocatorIcEEEENS5_13VmStringUtils23CaseInsensitiveComparerEEEEEbPKT_PK11Il2CppClassSN_iRKT0_
kBd:__ZN27ColorModulePropertyBindings13AddPropertiesER10vector_mapIi22ParticleModulePropertyNSt3__24lessIiEENS2_9allocatorINS2_4pairIiS1_EEEEE
tNi:_SslClientStream_Finalize_m1251363641
ZTk:__Z84RuntimeInvoker_RuntimeObject_RayU26_t3515555043_Single_t1397266774_Int32_t2950945753PFvvEPK10MethodInfoPvPS4_
zsd:__ZN13InitialModule18SetInheritedParamsERK23SubEmitterInheritValues
yKj:_Array_InternalArray__IndexOf_TisMonoResource_t4103430009_m1351751258_gshared
MG:__ZN17AnimationPlayable34CollectAnimatorControllerPlayablesER13dynamic_arrayIP26AnimatorControllerPlayableLj0EE
eCe:__ZN5physx2Sc9StaticSim21postActor2WorldChangeEv
bcj:_FieldAccessException__ctor_m3583219052
kEd:__ZL16ParticleGeomInitILb0EEvRK31ParticleSystemParticlesTempDatajRN4math8floatNx3ERK23ParticleSystemParticlesS5_S5_RKNS3_7_float4EPKfSB_SD_SB_RKNS3_5_int4EbSB_
HAj:_Decimal_System_IConvertible_ToDouble_m3125524987
PPc:__Z57Register_UnityEngine_Transform_INTERNAL_set_localPositionv
u9b:__ZN13GfxDeviceGLES26SetRandomWriteTargetBufferEi15ComputeBufferID
oMm:_GC_split_block
V9k:_Array_Resize_TisUICharInfo_t75501106_m3903846016_gshared
eic:__ZZ23InitPlayerLoopCallbacksvEN49EarlyUpdateResetFrameStatsAfterPresentRegistrator7ForwardEv
kie:__ZN5physx6shdfnd4sortIPvNS0_4LessIS2_EENS0_19ReflectionAllocatorINS_2Cm5BlockIhLj256EEEEEEEvPT_jRKT0_RKT1_j
vUm:_poll
gtk:_ReadOnlyCollection_1_System_Collections_IEnumerable_GetEnumerator_m1671097018_gshared
ljk:_UInt64_ToString_m1529093114_AdjustorThunk
Fdg:_TypeLibImportClassAttribute__ctor_m2302178978
HPj:_Escape_t3294788190_marshal_pinvoke
BUh:_InputField_OnUpdateSelected_m1118869681
d9e:__ZN5physx20InternalTriangleMesh7releaseEv
rQe:__ZN5physx6shdfnd5ArrayINS_16PxsCCDBlockArrayINS_13PxsCCDOverlapELi128EE9BlockInfoENS0_19ReflectionAllocatorIS5_EEE15growAndPushBackERKS5_
y8d:__ZNK5physx7NpShape8getFlagsEv
Kcb:__ZN4crnd12crn_unpacker11unpack_dxt1EPPhjjj
Nnm:__ZN15dense_hashtableINSt3__24pairIK10KeyWrapperIPK10Il2CppTypeEjEES6_N6il2cpp8metadata14Il2CppTypeHashEN14dense_hash_mapIS6_jSB_NS6_14EqualsComparerINSA_26Il2CppTypeEqualityComparerEEENS0_9allocatorIS8_EEE9SelectKeyESF_SH_E14squash_deletedEv
B0:__ZL55__ManagedRegistrationHelperFunction_CoordinateFramePairPv
lJc:__ZNK11ICallString6ToUTF8Ev
p5l:__ZN15dense_hashtableINSt3__24pairIK10KeyWrapperIPK22Il2CppGenericParameterEP11Il2CppClassEES6_N6il2cpp5utils11PointerHashIS4_EEN14dense_hash_mapIS6_S9_SE_NS6_14EqualsComparerINS0_8equal_toIS5_EEEENS0_9allocatorISA_EEE9SelectKeyESJ_SL_E15insert_noresizeERKSA_
Jyi:_Transform_1_Invoke_m2468053724_gshared
fga:__ZL60__ManagedRegistrationHelperFunction_ClothSkinningCoefficientPv
Qmc:__ZNSt3__211__sift_downIR17ROSorterDepthPassP15RODataDepthPassEEvT0_S5_T_NS_15iterator_traitsIS5_E15difference_typeES5_
Tre:__ZNK5physx7NpCloth16getContactOffsetEv
a1i:_ArgumentException__ctor_m3200406061
$N:__ZN8Animator17ApplyOnAnimatorIKEiRNS_11AnimatorJobE
Zua:__ZN12FileAccessor4ReadEyyPvPy
Pml:_List_1_set_Capacity_m2777925136_gshared
n3c:__Z21GetSceneHierarchyPathPK6Object
Awc:__ZN13RenderTexture9SetHeightEi
Dta:__ZN17PersistentManager25PreallocateObjectThreadedEiNS_9LockFlagsE
fH:__ZN7mecanim9animation17ClearMotionOutputEPNS0_18AnimationNodeStateE
tIi:_CipherSuiteCollection_get_IsFixedSize_m3127823890
Pqi:_InternalEnumerator_1_System_Collections_IEnumerator_get_Current_m3537550566_gshared
n_h:_Scrollbar_UpdateVisuals_m2492252165
aBl:_PKCS12_get_Keys_m2165478388
zvm:__ZN6il2cpp6icalls8mscorlib6System2IO6MonoIO17GetFileAttributesEP12Il2CppStringPi
JQh:_HMACMD5__ctor_m3008609295
ozj:_DateTime_ToString_m2992030064_AdjustorThunk
Fuf:_tt_cmap8_char_index
Tqa:__Z24scripting_class_get_name17ScriptingClassPtr
M7h:_Oid__ctor_m911618594
DSl:_VerticalLayoutGroup_CalculateLayoutInputHorizontal_m1404590745
exa:__ZN13RuntimeStaticI15GUIEventManagerLb0EE13StaticDestroyEPv
Fy:__ZNSt3__27__sort4IR17DetailNodeXSorterP16DetailMeshBVNodeEEjT0_S5_S5_S5_T_
bch:_ShortComparer_Compare_m1881262465
YOb:__Z29Transfer_Blittable_ArrayFieldI14SafeBinaryReadjEvRT_R9ArrayInfoRK23StaticTransferFieldInfo
Fe:_emscripten_set_keydown_callback
vYi:_EncoderReplacementFallback__ctor_m1483565116
ndi:_Interpreter_IsWordChar_m2858055765
omd:__ZN18ColorBySpeedModule8TransferI14SafeBinaryReadEEvRT_
hLa:__ZN9Scripting11UnityEngine29CustomRenderTextureUpdateZone12CleanupProxyEv
fva:__ZN12FileAccessorC2Ev
bde:__ZN5physx2Sc15ArticulationSim12applyImpulseERNS0_8BodyCoreERKNS_9PxcFsDataERKNS_6PxVec3ES9_
Ofb:__ZNK8Renderer29FlattenPerMaterialCustomPropsER22PerThreadPageAllocatorR10RenderNode
nud:__Z15UpdateRandomTplIL27ParticleSystemCurveEvalMode0EEvRK11MinMaxCurveS3_S3_R5RandNR23ParticleSystemParticlesjjRKN4math8float3x3ERKNS8_7_float4E
nL:__ZThn152_NK26AnimatorControllerPlayable25GetStateMachineBehavioursEv
GEk:_EventFunction_1_Invoke_m2429482587_gshared
FTf:_EventTrigger_OnDeselect_m1919608102
bHd:__ZN14ParticleSystem16AssignRayBudgetsEv
kkg:__ZL51Attribute_t861562559_CustomAttributesCacheGeneratorP21CustomAttributesCache
Cna:__ZN14StackAllocator10ReallocateEPvji
cqb:__ZNK12InputManager22GetTypeVirtualInternalEv
KAd:__ZN16CustomDataModuleD2Ev
f5j:_Enumerator_MoveNext_m1177880931_AdjustorThunk
wce:__ZNK5physx14NpArticulation26getInternalDriveIterationsEv
kDh:_SendMouseEvents_SetMouseMoved_m2822596724
F_l:_TextGenerator_Populate_m194003733
ejh:_DerivedType_get_FullName_m1025358827
POh:_CryptoConfig_MapNameToOID_m2044758263
dHa:__ZL50__ManagedRegistrationHelperFunction_SetupCoroutinePv
bC:__ZN13ConstraintJob23ConstraintComponentDataC2ERKS0_
gmd:__ZN14VelocityModule8TransferI14SafeBinaryReadEEvRT_
a2g:__ZL70InputField_t3762917431_CustomAttributesCacheGenerator_m_OnValueChangedP21CustomAttributesCache
m2b:__Z39WriteQueueForTransferSignatureIntoCacheRK31TransferFunctionScriptingTraitsRK24TransferRequestSignature17ScriptingClassPtrR23CachedSerializationDataRb
rvb:__ZN13RenderManager18UpdateAllRenderersEv
aZi:_Encoding_get_UTF8UnmarkedUnsafe_m320312322
Tck:_Thread_Thread_free_internal_m333849022
tY:__ZN18AnimatorController19TransferRuntimeDataI18StreamedBinaryReadILb0EEEEvRT_
lDl:_CostDelegate_BeginInvoke_m2828452701
nY:__ZN15SerializeTraitsI9OffsetPtrIN7mecanim9animation17BlendTreeConstantEEE8TransferI24GenerateTypeTreeTransferEEvRS4_RT_
flk:_Collection_1_ConvertItem_m1556170494_gshared
tH:__ZN7mecanim5human12HumanPoseAddERNS0_9HumanPoseERKS1_S4_
xtj:_DateTime_ToUniversalTime_m1945318289
C7i:_ArrayList_ToArray_m3827492363
eFd:__Z20UpdateWholeSheet2TplIL27ParticleSystemCurveEvalMode2ELS0_2EEvfRK11MinMaxCurveS3_RK23ParticleSystemParticlesPf
f2h:_Slider_get_stepSize_m1423227661
gjk:_UInt64_Parse_m819899889
ZPi:_SymmetricAlgorithm_set_IV_m3196220308
$kh:_GenericTypeParameterBuilder_GetHashCode_m852224381
Vwj:_Convert_ToUInt32_m1453583008
hdj:_CompareInfo_Compare_m894311506
MRa:__Z24MergeTransformComponentsR9TransformS0_b
J9l:__ZNK15dense_hashtableI10KeyWrapperIPK19Il2CppGenericMethodES4_N6il2cpp8metadata23Il2CppGenericMethodHashEN14dense_hash_setIS4_S7_NS4_14EqualsComparerINS6_26Il2CppGenericMethodCompareEEENSt3__29allocatorIS4_EEE8IdentityESB_SE_E10test_emptyEj
$qi:_InternalEnumerator_1_System_Collections_IEnumerator_get_Current_m3982010935_AdjustorThunk
b8d:__ZThn24_N5physx2Sc20ArticulationJointSimD0Ev
oSf:_EventSystem_UpdateModules_m3643806022
NNd:__ZN14PhysicsManager32AddToTriggerStayStatesIfRequiredEPK9Rigidbody
L0l:_AnimationOffsetPlayable__cctor_m1029460816
i2d:__ZN5physx14PxsAABBManager12createBPElemEv
Uoe:__ZThn12_N5physx7NpShape14onRefCountZeroEv
VWd:__ZL26GeomMTDCallback_ConvexMeshRN5physx6PxVec3ERfRKNS_10PxGeometryERKNS_11PxTransformES5_S8_
CIm:__ZN6il2cpp2vm13ComObjectBase19GetRuntimeClassNameEPP15Il2CppHString__
WYa:__Z37GetBarycentricCoordinatesForOuterCellPPK8Vector3fRK13dynamic_arrayIS_Lj0EERS0_RK11TetrahedronR8Vector4f
pk:_emscripten_glVertexAttribPointer
$4b:__ZN14PreloadManager26UpdatePreloadingSingleStepENS_21UpdatePreloadingFlagsEi
V0h:_ScrollRect_SetLayoutHorizontal_m3078869633
v4e:__ZN18ScBeforeSolverTask11runInternalEv
Prj:_Console_OpenStandardInput_m3262421490
nLc:__Z57Register_UnityEngine_RectTransform_INTERNAL_set_anchorMinv
K4d:__ZL33GeomOverlapCallback_CapsuleConvexRKN5physx10PxGeometryERKNS_11PxTransformES2_S5_PNS_2Gu12TriggerCacheE
Mwj:_Convert_ToUInt16_m1480956416
tEa:__ZN6prcoreL25inner_stretch_i8_bilinearEPKNS_9InnerInfoE
Zwb:__ZL30RegisterFilteredObjectCallbackPP12Il2CppObjectiPv
Uvk:_ReadOnlyCollection_1_System_Collections_Generic_IListU3CTU3E_RemoveAt_m3317217538_gshared
NUg:__ZL54AudioSource_t3935305588_CustomAttributesCacheGeneratorP21CustomAttributesCache
v5b:__Z19InitializeGfxDevicev
stc:__Z30GetScriptableCullingParametersR6CamerabR27ScriptableCullingParameters
Aha:__ZN11UnityEngine15CloudWebService16SessionContainer24GetSessionHeaderJsonDataERKN4core12basic_stringIcNS2_20StringStorageDefaultIcEEEERNS2_13StringBuilderE
Jih:_DerivedType_GetEvent_m4157575360
wwa:__ZN13RuntimeStaticI21AssetReferenceStorageLb0EE13StaticDestroyEPv
k9e:__ZN5physx20InternalTriangleMesh9loadRTreeERNS_13PxInputStreamEj
Pok:_Collection_1_ConvertItem_m618594517_gshared
KZk:__Z72RuntimeInvoker_Bounds_t2266837910_RuntimeObject_Matrix4x4U26_t3606180965PFvvEPK10MethodInfoPvPS4_
ZEm:__ZN6il2cpp6icalls8mscorlib6System9AppDomain22InternalGetProcessGuidEP12Il2CppString
gxe:__ZN5physx2Sc18ParticleSystemCore16releaseParticlesEv
SZd:__ZN5physx2Gu20intersectTriangleBoxERKNS_6shdfnd3aos5Vec3VES5_S5_S5_S5_
WD:__ZN9Scripting11UnityEngine10Animations16ConstraintSource9InitProxyEv
$5c:__Z34Quaternion_CUSTOM_Inverse_InjectedRK11QuaternionfRS_
Rxj:_DateTime__cctor_m1880035693
vTb:__Z18Transfer_BlittableI24GenerateTypeTreeTransferLb1EjEvRK29SerializationCommandArgumentsR31RuntimeSerializationCommandInfo
EXk:__Z103RuntimeInvoker_Boolean_t97287965_Ray_t3785851493_Single_t1397266774_Int32_t2950945753_Int32_t2950945753PFvvEPK10MethodInfoPvPS4_
J$a:__ZN11ColorRGBA328TransferI14SafeBinaryReadEEvRT_
Rqf:_cff_vstore_done
mgf:__ZN5physx6shdfnd5ArrayIPvNS0_19ReflectionAllocatorINS_24NpPtrTableStorageManager8PtrBlockILi4EEEEEE15growAndPushBackERKS2_
nGb:__ZN9GfxDevice33ScheduleComputeBufferJobsInternalEPFvP20ComputeBufferJobDataEPFvRK8JobFenceEPK27ComputeBufferJobInstructionj
zTk:__Z68RuntimeInvoker_Void_t1185182177_UInt16_t2177724958_SByte_t1669577662PFvvEPK10MethodInfoPvPS4_
tii:_InternalEnumerator_1_get_Current_m3008260692_AdjustorThunk
gRh:_MACTripleDES_HashFinal_m3613553534
Cik:_UInt64_System_IConvertible_ToChar_m2074245892
Q9a:__Z11IsHDRFormat13TextureFormat
ebk:_UTF8Encoding_InternalGetBytes_m1965760031
ig:_emscripten_glClearDepth
MTc:__ZNK8GUILayer22GetTypeVirtualInternalEv
qeb:__ZN14SafeBinaryRead21TransferSTLStyleArrayINSt3__26vectorIN15QualitySettings14QualitySettingENS1_9allocatorIS4_EEEEEEvRT_17TransferMetaFlags
ywi:_KeyCollection__ctor_m2388548663_gshared
Yrb:__ZNSt3__26vectorINS_4pairIPKN5Unity4TypeE7Hash128EENS_9allocatorIS7_EEE8__appendEj
ijd:__ZN8JSONRead21TransferSTLStyleArrayI13dynamic_arrayIaLj0EEEEvRT_17TransferMetaFlags
Uqf:_cff_font_load
DFm:__GLOBAL__sub_I_LibraryLoader_cpp
a4c:__Z13IsPathCreatedRKN4core12basic_stringIcNS_20StringStorageDefaultIcEEEE
gUe:__ZN5physx35solveContactPreBlock_ConcludeStaticEPKNS_23PxcSolverConstraintDescEjRNS_16PxcSolverContextE
tqh:_Debug_LogWarningFormat_m2535776735
_9a:__ZL22stbir__encode_scanlineP11stbir__infoiPvPfiii
Rcg:_ExternalException__ctor_m2877839282
Ijf:__ZN20QuadTreeNodeRenderer13StaticDestroyEPv
wia:__ZN11UnityEngine15CloudWebService20WebRequestRestClient5AbortEv
kGl:_Regex_Matches_m2080913806
_Sc:__ZN9Transform12CleanupClassEv
b1g:__ZL57FontData_t746620069_CustomAttributesCacheGenerator_m_FontP21CustomAttributesCache
Z6d:__ZN5physx6shdfnd5ArrayIPvNS0_15InlineAllocatorILj256ENS0_19ReflectionAllocatorINS_2Cm5BlockIS2_Lj32EEEEEEEE15growAndPushBackERKS2_
v3e:__ZN5physx18PxsSolverStartTask13setupDescTaskEv
dof:_UNITY_FT_Set_Pixel_Sizes
Bfh:_OperatingSystem_Clone_m1122165140
ael:_GameObject_AddComponent_TisRuntimeObject_m3469369570_gshared
AN:__ZN11UnityEngine9Animation33SetGenericTransformPropertyValuesERKNS0_30AnimatorGenericBindingConstantERKN7mecanim10ValueArrayEP9Transformy
UU:__ZN11UnityEngine9Animation28AnimationClipBindingConstant8TransferI24GenerateTypeTreeTransferEEvRT_
yVd:__ZN5physx3Cct13BoxController6resizeEf
Xil:_List_1_RemoveAll_m3165362277_gshared
Cfk:_Type_type_is_subtype_of_m1406623598
hHa:__ZL54__ManagedRegistrationHelperFunction_SpriteAtlasManagerPv
$4e:__ZN5physx6shdfnd5ArrayINS_2Cm12DelegateTaskINS_2Sc5SceneEXadL_ZNS5_19updateCCDSinglePassEPNS_10PxBaseTaskEEEEENS0_19ReflectionAllocatorIS8_EEE8recreateEj
Fbk:_Thread_get_CurrentThread_m4142136012
gYa:__Z30ProcessDynamicBatchGeometryJobP25DynamicVBOGeometryJobDataj
rnc:__ZNSt3__27__sort4IRNS_6__lessI11CulledLightS2_EEPS2_EEjT0_S6_S6_S6_T_
Wom:__ZN6il2cpp2vm14TypeNameParser26ParseArrayModifierOptionalEv
lsa:__Z26scripting_object_get_class18ScriptingObjectPtr
Cum:__ZN6il2cpp6icalls8mscorlib6System10Reflection8Assembly13get_code_baseEP24Il2CppReflectionAssemblyb
Rsb:__ZNSt3__26vectorIN4core12basic_stringIcNS1_20StringStorageDefaultIcEEEE13stl_allocatorIS5_L18MemLabelIdentifier13ELi16EEE7reserveEj
qwd:__Z25UpdateOrbitalAndRadialTplIL27ParticleSystemCurveEvalMode1ELS0_3ELS0_0EEvRK11MinMaxCurveS3_S3_S3_S3_S3_S3_R23ParticleSystemParticlesjjRKN4math8float3x3ERKNS6_7affineXERKNS6_7_float4E
XPh:_DSASignatureDeformatter__ctor_m2889130126
KUc:__ZNK28MonoBehaviourPropertyBinding15GenerateBindingERKN4core12basic_stringIcNS0_20StringStorageDefaultIcEEEEbRN11UnityEngine9Animation14GenericBindingE
_Bh:_RectTransform_INTERNAL_set_pivot_m1160676233
Onl:_List_1_set_Item_m35836043_gshared
Uai:_X509ChainElementCollection__ctor_m3424079155
XQh:_HMACSHA512__cctor_m4155933671
tDl:_LinkStack_Push_m3081279930
Kyd:__Z20StartSingleSidedEdgeILN11ShapeModule14MultiModeValueE0EEvRS0_R23ParticleSystemParticlesRK19ParticleSystemStateRK27ParticleSystemEmissionStateRKN4math8float3x3ERKNSB_7affineXEjbj
kvi:_Enumerator_MoveNext_m1107569389_gshared
Rae:__ZNK5physx21PxsBodyTransformVault12getTransformERKNS_11PxsBodyCoreE
HGm:__ZN6il2cpp6icalls8mscorlib6System11Environment15internalGetHomeEv
qvh:_Matrix4x4_GetHashCode_m4034747639_AdjustorThunk
Ubg:_ResourceCacheItem_t51292791_marshal_pinvoke_cleanup
ZMa:__ZNK5Unity9Component7GetNameEv
xHf:__ZN11UnityEngine9Analytics15UserCustomEvent15Internal_CreateE18ScriptingObjectPtrRKN4core12basic_stringIcNS3_20StringStorageDefaultIcEEEE
p8:__ZN10AudioMixer8TransferI18StreamedBinaryReadILb0EEEEvRT_
xxc:__Z23FindMonoScriptFromClass17ScriptingClassPtr
kXd:__ZN44ConvexVsHeightfieldContactGenerationCallback7onEventEjPj
iKb:__ZN21ScalableBufferManager23UnregisterRenderSurfaceEP17RenderSurfaceBaseb
fml:_List_1_System_Collections_IList_Remove_m1070694895_gshared
GKl:_LayoutCache__ctor_m3885940174
TO:__ZN7mecanim8skeleton26SkeletonPoseComputeGlobalQEPKNS0_8SkeletonEPKNS0_13SkeletonPoseTIN4math4trsXEEEPS7_ii
Bik:_UInt64_System_IConvertible_ToByte_m1501504925_AdjustorThunk
r_l:_TextGenerator_Invalidate_m1072346986
BDd:__ZN14ParticleSystem40OnTrailGeometryJobsScheduledRenderThreadERK8JobFence
dLi:_TlsClientHello_ProcessAsTls1_m2549285167
Y5k:__Z74RuntimeInvoker_Boolean_t97287965_UIVertex_t4057497605_UIVertex_t4057497605PFvvEPK10MethodInfoPvPS4_
mSe:__ZN5physx2Gu19_gjkRelativeRayCastINS0_9TriangleVENS0_8CapsuleVEEEbRT_RT0_RKNS_6shdfnd3aos15PsMatTransformVERKNS9_6FloatVERKNS9_5Vec3VESI_RSD_RSG_SK_f
Tpd:__ZN13TriggerModule8TransferI19StreamedBinaryWriteILb0EEEEvRT_
tO:__ZN9BlobWrite8TransferI22OffsetPtrArrayTransferIiEEEvRT_PKc17TransferMetaFlags
kYi:_EncoderExceptionFallback_Equals_m2760188920
Abe:__ZN5physx6shdfnd5ArrayIPvNS0_15InlineAllocatorILj256ENS0_19ReflectionAllocatorINS_11NpAggregateEEEEEE15growAndPushBackERKS2_
fvc:__ZNK15LODGroupManager17CalculateLODMasksERK13LODParametersfPhPf
Au:__ZNSt3__26vectorI14HeightMeshData13stl_allocatorIS1_L18MemLabelIdentifier77ELi16EEE8__appendEj
F5:__ZN4FMOD6System7releaseEv
lOe:__ZN5physx6shdfnd8PoolBaseINS_2Sc18TriggerInteractionENS0_19ReflectionAllocatorIS3_EEE15disposeElementsEv
w4i:_Boolean_CompareTo_m3665076258
fVi:_String_Split_m3580120853
MTj:_PrivateKeyInfo__ctor_m2811023496
Cua:__Z18PathToAbsolutePathRKN4core12basic_stringIcNS_20StringStorageDefaultIcEEEE
a5f:_PropertyBuilder_GetCustomAttributes_m2917594003
CLl:_GUILayoutUtility_LayoutFromEditorWindow_m2914699782
uKa:__ZN9Scripting11UnityEngine12Experimental10PlayerLoop13PreLateUpdate9InitProxyEv
uS:__ZN13AnimationClip23VirtualRedirectTransferER17RemapPPtrTransfer
YGf:__ZN21UnityAnalyticsManager15ThreadedCleanupEv
QNm:__ZN6il2cpp6icalls8mscorlib6System10Reflection16MonoPropertyInfo16GetTypeModifiersEPvb
gXd:__ZL31PointInConvexPolygon2D_OutCodesPKfjffffRh
E9a:__ZL13BlitImageImplR14ImageReferenceiiRKS_NS_10ColorSpaceENS_8BlitModeEb
a0c:__ZN15DirectorManager17AcquireOutputNodeEv
evd:__ZL15AccumulateNoiseILb1ELi1EEN4math8floatNx2ERKNS0_8floatNx3ERKfiS6_S6_
Mhb:__Z14resize_trimmedINSt3__26vectorI13dynamic_arrayI8Vector2fLj0EENS0_9allocatorIS4_EEEEEvRT_j
M8k:_Array_InternalArray__set_Item_TisColor32_t2600501292_m1891325855_gshared
del:_GameObject_GetComponentInChildren_TisRuntimeObject_m1310240902_gshared
bef:__ZN9Rigidbody12MoveRotationERK11Quaternionf
FNg:__ZL69PersistentCall_t3407714124_CustomAttributesCacheGenerator_m_ArgumentsP21CustomAttributesCache
v3:__ZN12AudioManager29ShutdownReinitializeAndReloadEv
l1a:__ZN16ReflectionProbes28GetMinBakedCubemapResolutionEv
j6e:__ZN5physx2Cm12DelegateTaskINS_2Sc5SceneEXadL_ZNS3_15postNarrowPhaseEPNS_10PxBaseTaskEEEE11runInternalEv
rjf:__Z20ConvertContactToMonoP9Collision
nIm:__GLOBAL__sub_I_String_cpp
m5l:__ZN15dense_hashtableINSt3__24pairIK10KeyWrapperIPK22Il2CppGenericParameterEP11Il2CppClassEES6_N6il2cpp5utils11PointerHashIS4_EEN14dense_hash_mapIS6_S9_SE_NS6_14EqualsComparerINS0_8equal_toIS5_EEEENS0_9allocatorISA_EEE9SelectKeyESJ_SL_E6insertERKSA_
KUh:_InputField_GenerateCaret_m1459647218
DHg:__ZL49Camera_t4157153871_CustomAttributesCacheGeneratorP21CustomAttributesCache
UAl:_X509CertificateEnumerator__ctor_m85694331
zac:__ZN14DataBufferGLES16RecreateWithDataEjPKv
vNa:__Z29GetGlobalAllowNameConversionsv
fXd:__ZL17transformVerticesRfS_S_S_PfjPKN5physx6PxVec3EPKhRKNS1_7PxMat33E
Qff:__ZNK5physx2Gu15HeightFieldUtil31getFaceIndexAtShapePointNoTest2Ejff
BNj:_Array_InternalArray__Insert_TisTableRange_t3332867892_m558285859_gshared
YNd:__ZNK12PhysXRaycast20FindParticleOverlapsER13dynamic_arrayI15BatchedOverlapsLj0EEPP8Colliderj
nyc:__ZN8Material8SetColorEN9ShaderLab16FastPropertyNameERK10ColorRGBAf
VUj:_StrongName_get_TokenAlgorithm_m1794722022
N6j:_Enumerator_System_Collections_IEnumerator_Reset_m3754523291_gshared
xLf:__ZN11UnityEngine7Connect20RemoteConfigSettings19ConfigUpdatedStaticEPS1_bbi
Z8:__ZN11AudioSource23VirtualRedirectTransferER18StreamedBinaryReadILb0EE
Zzh:_RangeInt_get_end_m4128831787
mPe:__ZNK5physx2Sq10AABBPruner5sweepERKNS0_9ShapeDataERKNS_6PxVec3ERfRNS0_14PrunerCallbackE
hNf:__Z25GetUnityConnectModuleSpecv
GA:__ZN24NavMeshAgentScaleJobData3JobEPS_jPK23TransformAccessReadOnlyPKyj
_kl:_List_1_set_Item_m2082115010_gshared
TYi:_Encoding_GetBytes_m3735967069
jKe:__ZN5physx2Sc5Scene21fireCallBacksPostSyncEv
Rdc:__ZN14GfxContextGLES43AddRenderSurfaceToDeferredFBOInvalidateListEPK17RenderSurfaceGLES
SQe:__ZN5physx17PxsCCDAdvanceTask11runInternalEv
Zta:__ZN14SerializedFile14SerializedTypeD2Ev
$2h:_Text_get_resizeTextMinSize_m1002355407
Tnf:__ZNSt3__26vectorIN20TextRenderingPrivate8FontImpl13CharacterInfoE13stl_allocatorIS3_L18MemLabelIdentifier1ELi16EEE6insertENS_11__wrap_iterIPKS3_EERS9_
Sn:FUNCTION_TABLE_vifiiiiiiiiiiiii
KA:__ZN34NavMeshAgentUpdateTransformJobData3JobEPS_j
k2i:_Array_CreateInstance_m1027597705
fhm:__ZN6il2cpp2vm7Runtime15InvokeWithThrowEPK10MethodInfoPvPS5_
OHm:__ZN6il2cpp5utils11StringUtils11Utf16ToUtf8ERKNSt3__212basic_stringIDsNS2_11char_traitsIDsEENS2_9allocatorIDsEEEE
ZEi:_MD4Managed_Decode_m4273685594
R$d:__ZN5physx3Cct26CharacterControllerManagerD2Ev
BUk:__Z57RuntimeInvoker_Quaternion_t2301928331_Vector3_t3722313464PFvvEPK10MethodInfoPvPS4_
dwb:__ZN21LightProbeProxyVolume18HasHardwareSupportEv
Dqc:__ZN26LightProbeProxyVolumeCacheC2ER13BatchRendererR15RenderLoopStats
zkj:_IntPtr__ctor_m620280096
sEa:__ZN6prcoreL31inner_stretch_argb8888_bilinearEPKNS_9InnerInfoE
AXb:__Z18Transfer_BlittableI18StreamedBinaryReadILb1EELb1E8BitFieldEvRK29SerializationCommandArgumentsR31RuntimeSerializationCommandInfo
jvf:_UNITY_FT_Outline_Decompose
ARc:__Z13RegisterClassI12LineRendererEvPKc
zjj:_Int64_System_IConvertible_ToChar_m1509243576_AdjustorThunk
Xec:__ZNK12GraphicsCaps24GetFallbackSampledFormatE14GraphicsFormat
eAl:_GeneralNames_get_IPAddresses_m4242915644
cGh:_UnitySynchronizationContext_Exec_m3359802660
GMm:_GC_init_size_map
tQe:__ZN5physx6shdfnd8internal8HashBaseINS0_4PairIKNS3_IPKNS_12PxsRigidCoreEPKNS_12PxsShapeCoreEEEPNS_11PxsCCDShapeEEESA_NS0_4HashISA_EENS1_11HashMapBaseISA_SD_SG_NS0_9AllocatorEE6GetKeyESI_Lb1EE15reserveInternalEj
zUa:__Z20scripting_object_new17ScriptingClassPtr
SYm:dynCall_iiiiifi
tMa:__ZN9Scripting5Unity11Collections39NativeMatchesParallelForLengthAttribute12CleanupProxyEv
ZTj:_KeyGeneratedEventHandler_Invoke_m2527485594
bpb:__ZN26SkinnedMeshRendererManager11AddRendererER19SkinnedMeshRenderer
vyd:__Z16RandomUnitVectorRKN4math7_float4ES2_
$Ke:__ZN5physx2Sc5Scene21setDominanceGroupPairEhhRKNS_20PxDominanceGroupPairE
rAj:_Decimal__ctor_m1925875020_AdjustorThunk
ZKa:__ZN9Scripting11UnityEngine6Events14UnityEventBase12CleanupProxyEv
qt:__ZN14NavMeshManager23RemoveOffMeshConnectionEy
lpd:__ZN16CustomDataModule8TransferI18StreamedBinaryReadILb0EEEEvRT_
P:Math_exp
hoh:_Vector3_Min_m1803158933
Ap:FUNCTION_TABLE_iiifi
sDm:__ZN6il2cpp2os5posix13PosixAutoLockD2Ev
IMl:_SymmetricTransform_OFB_m3690147804
wof:_cff_get_advances
I1b:__ZN13MonoBehaviour9SetScriptERK4PPtrI10MonoScriptE18ScriptingObjectPtr
$rm:_RaycastHit2D_get_collider_m1549426026
zFh:_Transform_Translate_m1990195114
ACe:__ZN5physx7NpScene12loadFromDescERKNS_11PxSceneDescE
zBb:__ZNK10FileSystem16LastErrorMessageEv
V7k:_Array_InternalArray__Insert_TisVector3_t3722313464_m3862657277_gshared
gib:__ZN15SerializeTraitsI13dynamic_arrayI12SpriteVertexLj0EEE19ResizeSTLStyleArrayERS2_i
pSi:_SecurityException__ctor_m1631242336
n7l:__ZN15dense_hashtableINSt3__24pairIK10KeyWrapperIPK11Il2CppClassEPKcEES6_N6il2cpp5utils11PointerHashIS3_EEN14dense_hash_mapIS6_S9_SE_NS6_14EqualsComparerINS0_8equal_toIS5_EEEENS0_9allocatorISA_EEE9SelectKeyESJ_SL_E14squash_deletedEv
pTf:_EventSystem_Update_m1662072334
z2c:__ZN11TimeManager16HasFixedTimeStepEv
PPf:__ZN22UnityWebRequestManager10InitializeEv
Ntb:__ZNSt3__26__treeINS_12__value_typeIN4core12basic_stringIcNS2_20StringStorageDefaultIcEEEE4PPtrI6ObjectEEENS_19__map_value_compareIS6_SA_NS_4lessIS6_EELb1EEE13stl_allocatorISA_L18MemLabelIdentifier52ELi16EEE15__emplace_multiIJRNS_4pairIS6_S9_EEEEENS_15__tree_iteratorISA_PNS_11__tree_nodeISA_PvEEiEEDpOT_
CRb:__ZL26Transfer_SimpleNativeClassI17RemapPPtrTransfer8GradientLb1EEvRK29SerializationCommandArgumentsR31RuntimeSerializationCommandInfo
TSf:_RaycasterManager_RemoveRaycasters_m3057093063
JJc:__ZN12CachedWriter9InitWriteER15CacheWriterBase
R$c:__Z21UnsignedInt64ToStringy
yZh:_GetRaycastNonAllocCallback_BeginInvoke_m3984885848
vEl:_PatternCompiler_BeginLink_m1295557963
ZKe:__ZN5physx14PxsAABBManager15createAggregateEPvb
JHl:_Group_GetAnchorInfo_m3730312864
p1g:__ZL50Graphic_t1660335611_CustomAttributesCacheGeneratorP21CustomAttributesCache
$wi:_KeyCollection_System_Collections_Generic_ICollectionU3CTKeyU3E_Add_m454648927_gshared
Vek:_TimeSpan_op_LessThanOrEqual_m300470010
QTg:__ZL139AnimatorOverrideController_t3582062219_CustomAttributesCacheGenerator_AnimatorOverrideController_OnInvalidateOverrideController_m3380737075P21CustomAttributesCache
PDd:__ZL17DrawMeshParticlesILb0EL25ParticleSystemRenderSpace1EEvRK26ParticleSystemTempMeshDataRK22ParticleSystemTempDataRK23ParticleSystemParticlesRK31ParticleSystemParticlesTempDataRK26ParticleSystemRendererDataRK21ParticleSystemModulesPfPv
aQc:__Z66Register_UnityEngine_Transform_INTERNAL_CALL_InverseTransformPointv
Sya:__ZZN15DirectorManager15InitializeClassEvEN41FixedUpdateDirectorFixedUpdateRegistrator7ForwardEv
uoj:_MemoryStream_get_Position_m3733941202
DCc:__ZN12LineRenderer8TransferI14SafeBinaryReadEEvRT_
eb:invoke_iiiiifiiiif
L3f:_HorizontalOrVerticalLayoutGroup_set_childControlWidth_m3261460516
n5m:_glLinkProgram__wrapper
Tzb:__ZN18ScriptingArguments8AddInt64Ex
DDa:__ZN6prcoreL12RemapGenericI17TexFormatARGB888815TexFormatBGR888EEvPKNS_9InnerInfoE
GLb:__ZN26SinglePassStereoSupportExt19SaveStereoConstantsEv
sAa:__ZNSt3__26vectorIP10MemoryPool13stl_allocatorIS2_L18MemLabelIdentifier76ELi16EEE21__push_back_slow_pathIRKS2_EEvOT_
lgj:_TextInfo_get_ListSeparator_m1628160079
Dtd:__Z20UpdateCustomCurveTplIL27ParticleSystemCurveEvalMode1EEvRK11MinMaxCurveR23ParticleSystemParticlesiijjRKN4math5_int4E
u1h:_Selectable_OnCanvasGroupChanged_m472903475
Obk:_EventWaitHandle_Reset_m3348053200
Mrd:__ZNK10SizeModule6UpdateER23ParticleSystemParticlesjj
Poe:__ZN5physx7NpShape8requiresERNS_23PxProcessPxBaseCallbackE
Nxm:__ZN6il2cpp6icalls8mscorlib6System13Globalization11CultureInfo35construct_internal_locale_from_nameEP17Il2CppCultureInfoP12Il2CppString
KTb:__ZL22Transfer_ManagedObjectI24GenerateTypeTreeTransferLb1EEvRK29SerializationCommandArgumentsR31RuntimeSerializationCommandInfo
Qkc:__ZN15RenderNodeQueueC2E10MemLabelId
Qbg:_ResourceEnumerator_FillCache_m1661715061
eyg:__ZL72SecuritySafeCriticalAttribute_t3505979402_CustomAttributesCacheGeneratorP21CustomAttributesCache
zk:_emscripten_set_main_loop_timing
Xnh:_Bounds_get_min_m3755135869
Fwj:_Convert_ToUInt16_m3523269149
Pbc:__ZN14DataBufferGLES12RecordRenderEv
oUf:_ExecuteEvents_get_endDragHandler_m2879610446
qXe:__ZNK5physx20SingleAABBUpdateTask7getNameEv
Txc:__ZN14ImageReference10FlipImageYEv
Tci:_Interpreter_GetLastDefined_m4107643411
yod:__ZN21InheritVelocityModule8TransferI17RemapPPtrTransferEEvRT_
gnj:_FileStream_RefillBuffer_m4186945278
eTa:__ZN21ScalableBufferManager20GetHeightScaleFactorEv
h2:__ZN4FMOD3DSP9setBypassEb
tBc:__Z19NormalizeWheelInputf
o2f:_Graphic_DoMeshGeneration_m3548487693
XT:__ZN11KeyframeTplIfE8TransferI14SafeBinaryReadEEvRT_
IFl:_Repetition__ctor_m1672362629
wkd:__Z29Transfer_Blittable_ArrayFieldI8JSONReadhEvRT_R9ArrayInfoRK23StaticTransferFieldInfo
tTi:_SecurityFrame_ToString_m339310712_AdjustorThunk
P5f:_TypeBuilder_create_runtime_class_m2581270900
bJc:__ZN11MonoManager25GetImageFromAssemblyIndexEi
oii:_InternalEnumerator_1_get_Current_m3008260692_gshared
nte:__ZN5physx2Sc9ClothCore17addCollisionPlaneERKNS_21PxClothCollisionPlaneE
gVa:__ZN22RenderingCommandBuffer20CleanupCommandBufferEv
wuj:_Decimal_op_Implicit_m2299919277
kfd:__Z18Transfer_BlittableI9JSONWriteLb1EtEvRK29SerializationCommandArgumentsR31RuntimeSerializationCommandInfo
Pyd:__Z10StartDonutILN11ShapeModule14MultiModeValueE0EEvRS0_R23ParticleSystemParticlesRK19ParticleSystemStateRK27ParticleSystemEmissionStateRKN4math8float3x3ERKNSB_7affineXEjbj
_9g:_UnexceptionalStreamReader_ReadToEnd_m920589220
lyj:_DateTime_System_IConvertible_ToType_m1242864300
EVi:_String_IndexOf_m1298810678
Uk:___syscall85
_Nl:_FlashFade_Flash_m2804174269
kEf:__ZN2UI14CanvasRenderer18UpdateTRSHierarchyEb
y8e:__ZNK5physx13PxHeightField8isKindOfEPKc
Vkc:__ZNSt3__26__sortIRPFbP10GUIElementS2_EPS2_EEvT0_S7_T_
xih:_ConstructorBuilder_GetILGenerator_m1750792206
SWi:_EncoderFallback_get_ReplacementFallback_m818398284
zFm:__ZN6il2cpp2os6Thread19DetachCurrentThreadEv
KTf:_EventTrigger_OnBeginDrag_m4203438710
I5l:__ZN6il2cpp2vmL21SetupInterfacesLockedEP11Il2CppClassRKNS_2os12FastAutoLockE
kMb:__ZN11MonoManager23VirtualRedirectTransferER24GenerateTypeTreeTransfer
rM:__ZN23AnimationPlayableOutput17SetSourcePlayableEP8Playable
IGd:__ZL24BuildParticleLineSegmentILb1EEvjRPhRKN4math8float4x4EPK15LineBuilderDataRKfSA_11ColorRGBA32
uek:_TimeSpan_CompareTo_m3633415627_AdjustorThunk
Tph:_CullingGroup_Dispose_m782801025
au:__ZN11NavMeshData23VirtualRedirectTransferER14SafeBinaryRead
x_d:__ZN16ControllerFilter9preFilterERKN5physx12PxFilterDataEPKNS0_7PxShapeEPKNS0_12PxRigidActorERNS0_7PxFlagsINS0_9PxHitFlag4EnumEtEE
wha:__ZN11UnityEngine15CloudWebService14DataDispatcher15SetupWebRequestEv
zvl:_Collection_1_ConvertItem_m492501417_gshared
qKf:__ZN11UnityEngine15PlatformWrapper13GetShaderCapsEv
T6:__ZN10AudioMixer14OnExitPlayModeEv
mWe:__ZN16MBPOS_TmpBuffers16allocateSleepingEjj
Jkh:_GenericTypeParameterBuilder_IsDefined_m98179866
WSj:_KeyPairPersistence_get_MachinePath_m3812267291
Erj:_Stack_Peek_m2216191248
_xj:_DateTime_System_IConvertible_ToDecimal_m1044850612_AdjustorThunk
cUc:__ZN21FixedBehaviourManager6UpdateEv
sPc:__ZN9Transform9SetParentEPS_NS_15SetParentOptionE
gpd:__ZN15CollisionModule8TransferI18StreamedBinaryReadILb0EEEEvRT_
sXa:__ZN19ShaderPropertySheet8SetFloatEN9ShaderLab16FastPropertyNameEfNS_8SetFlagsE
e3l:_Physics_Raycast_m952690504
Bub:__ZN19RuntimeSceneManager24BeginIntegrateMainThreadEP10UnityScene
xce:__ZN5physx14NpArticulation26setExternalDriveIterationsEj
MQd:__ZN16RayRTreeCallbackILi0ELb0EED0Ev
K$e:__ZN5physx20PxsParticleSystemSim23scheduleCollisionUpdateERNS_10PxBaseTaskE
xGm:__ZNSt3__2plIcNS_11char_traitsIcEENS_9allocatorIcEEEENS_12basic_stringIT_T0_T1_EERKS9_S6_
Y8g:_StringReader_CheckObjectDisposedException_m3796163530
Rhk:_UInt32_System_IConvertible_ToInt16_m1659441601
rFc:__ZN9ShaderLab20SerializedSubProgramaSERKS0_
bXm:_roundf
d2m:_emscripten_glDeleteFramebuffers__wrapper
h5i:_Byte_System_IConvertible_ToSingle_m324484566_AdjustorThunk
usj:_Decimal_op_Explicit_m2848387298
s3j:_KeyValuePair_2_ToString_m1238786018_gshared
NF:__ZN8Animator15SetPrepareStageEv
VNm:__ZN6il2cpp6icalls8mscorlib6System4Text8Encoding16InternalCodePageEPi
N$:__ZN8AnimatorC2E10MemLabelId18ObjectCreationMode
J5l:__ZN6il2cpp2vmL24SetupTypeHierarchyLockedEP11Il2CppClassRKNS_2os12FastAutoLockE
DBc:__ZL11TextHandleriPK23EmscriptenKeyboardEventPv
mqc:__Z20CalculateLightMatrixRK15SharedLightDataP10Matrix4x4f
fnf:_destroy_face
FGh:_Vector3__ctor_m1719387948
j1m:_glBlendEquationSeparate__wrapper
dOm:__ZN6il2cpp6icalls8mscorlib6System8Security12Cryptography24RNGCryptoServiceProvider13RngInitializeEP11Il2CppArray
yAd:__ZN21RotationBySpeedModuleD0Ev
g9:__ZN20SoundChannelInstance7setMuteEb
K$d:__ZN5physx3Cct26CharacterControllerManager21createObstacleContextEv
nyj:_DateTimeUtils_ToString_m1782212840
sMj:_Array_InternalArray__ICollection_Add_TisVector2_t2156229523_m4029235359_gshared
ifh:_NumberFormatter_NumberToString_m3906556024
BYb:__Z19TransferField_ArrayI18StreamedBinaryReadILb1EE27Converter_SimpleNativeClassI17AnimationCurveTplIfEEEvRK23StaticTransferFieldInfoR31RuntimeSerializationCommandInfoRT0_
xFd:__Z19UpdateSingleRow2TplIL27ParticleSystemCurveEvalMode1ELS0_1EEvfRK11MinMaxCurveS3_RK23ParticleSystemParticlesPfbiii
fcc:__ZN18GfxFramebufferGLES22MakeCurrentFramebufferENS_7BuiltinE
MEe:__ZN5physx6shdfnd5ArrayIPNS_2Sc19ShapeInstancePairLLENS0_19ReflectionAllocatorIS4_EEE15growAndPushBackERKS4_
g$a:__ZN12CachedReader4ReadEPvj
Xof:_cf2_blues_init
Lge:__ZN5physx2Sc8BodyCore24clearSpatialAccelerationEbb
bSl:_Toggle_OnPointerClick_m3526893169
zpc:__Z24CalculateLightShadowFadeRK6CamerafffR8Vector4f
bra:__ZN19RuntimeSceneManagerD2Ev
Ccj:_CCGregorianCalendar_GetMonth_m1547203696
Mia:__ZN11UnityEngine15CloudWebService25WebRequestDownloadHandler17OnCompleteContentEv
lab:__ZN6prcore17GetIntegerBlitterE13TextureFormatS0_N14ImageReference8BlitModeE
fMm:_GC_print_block_descr
FEe:__ZN5physx10PxsContext20createContactManagerERKNS_24PxvManagerDescRigidRigidEPNS_18PxsMaterialManagerE
ZGa:__ZL51__ManagedRegistrationHelperFunction_ResourceRequestPv
G6d:__ZN5physx2Sc5Scene31removeActiveBreakableConstraintEPNS0_13ConstraintSimE
L8g:__ZL73LightningAttack_t2037095336_CustomAttributesCacheGenerator__lightningBoltP21CustomAttributesCache
v5c:__ZN9BlobWrite14ReduceCopyImplERK14ReduceCopyDataj
eLj:_Array_LastIndexOf_TisRuntimeObject_m1677937501_gshared
ada:__ZN11AudioSource18IsPlayingScriptingEv
o7b:__Z18IsCompressedFormat14GraphicsFormat
aJe:__ZN5physx6shdfnd5ArrayINS_12PxActorShapeENS0_19ReflectionAllocatorIS2_EEE15growAndPushBackERKS2_
nDb:__ZN25MultiBlocksMemoryFileData17AdjustBlocksCountEj
Oum:__ZNSt3__214__split_bufferIN6il2cpp2vm22EmbeddedResourceRecordERNS_9allocatorIS3_EEED2Ev
mlf:__ZN13TextRendering4Font8TransferI24GenerateTypeTreeTransferEEvRT_
Xv:__ZNSt3__26vectorINS_4pairINS1_IiiEEjEE13stl_allocatorIS3_L18MemLabelIdentifier77ELi16EEE6insertENS_11__wrap_iterIPKS3_EEOS3_
SLc:__Z27CullingGroup_CUSTOM_DisposeP12Il2CppObject
KEd:__Z18UpdateSingleRowTplIL27ParticleSystemCurveEvalMode0EEvfRK11MinMaxCurveS3_RK23ParticleSystemParticlesPfbiii
Qv:__ZN20NavMeshBuildSettingsC2Ev
tle:__ZN5physx2Sc14ConstraintCore8setFlagsENS_7PxFlagsINS_16PxConstraintFlag4EnumEtEE
an:_glStencilMask
ZFm:__ZN6il2cpp2os10ThreadImpl16GetCurrentThreadEv
u7e:__ZNK5physx2Sc15ClothFabricCore20getNbParticleIndicesEv
vBc:__ZN15GUIEventManager10QueueEventERK10InputEvent
Jbg:_ResourceReader_ReadNonPredefinedValue_m2638853518
Bdm:_AnalyticsEvent_OnValidationFailed_m2609604624
qVg:__ZL62EventType_t3528516131_CustomAttributesCacheGenerator_mouseMoveP21CustomAttributesCache
zcg:_DecimalConstantAttribute__ctor_m3583301917
PU:__ZN24GenerateTypeTreeTransfer21TransferSTLStyleArrayINSt3__26vectorI24CompressedAnimationCurve13stl_allocatorIS3_L18MemLabelIdentifier26ELi16EEEEEEvRT_17TransferMetaFlags
HLm:_GC_push_conditional_with_exclusions
vPe:__ZN5physx2Sq8AABBTree11shiftOriginERKNS_6PxVec3E
DDk:__ZN30GenericInterfaceActionInvoker4IP12Il2CppObjectS1_S1_S1_E6InvokeEPK10MethodInfoS1_S1_S1_S1_S1_
yJl:_UriParser_InitializeAndValidate_m2008117311
lLm:_GC_make_disappearing_links_disappear
gUm:_strrchr
Y5d:__ZN5physx2Sc7BodySim6wakeUpEv
xXf:_UIBehaviour_IsDestroyed_m3033055982
vEe:__ZN5physx6shdfnd8PoolBaseINS_2Gu30LargePersistentContactManifoldENS0_19ReflectionAllocatorIS3_EEE17releaseEmptySlabsEv
t6d:__ZN5physx2Sc21ConstraintInteraction7destroyEv
jTh:_InputField_get_readOnly_m3111985574
y1a:__ZN14RenderSettings27UpdateIndirectSpecularColorEv
dMg:__ZL59RectOffset_t1369453676_CustomAttributesCacheGenerator_m_PtrP21CustomAttributesCache
frb:__ZN14PlayerSettings8TransferI18StreamedBinaryReadILb0EEEEvRT_
Zfm:__ZN6il2cpp6icalls8mscorlib6System8MonoType16GetMethodsByNameEP20Il2CppReflectionTypeP12Il2CppStringibS5_
cob:__Z11SkinMeshCPUR12SkinMeshInfo
$Fe:__ZNK5physx7NpScene16getNbConstraintsEv
Yre:__ZN5physx7NpCloth14setWakeCounterEf
Cwl:_RijndaelTransform__cctor_m2439033240
$hf:__ZN5physx7profile11EventBufferINS_24PxDefaultContextProviderENS_6shdfnd6MutexTINS0_26WrapperReflectionAllocatorIhEEEENS0_14ScopedLockImplIS7_EENS_24PxProfileNullEventFilterEE17doAddProfileEventINS0_10StartEventEEEvtRKT_
Rxf:_ps_hints_t2mask
BGj:_Array_InternalArray__ICollection_Remove_TisMonoResource_t4103430009_m238733686_gshared
p2h:_Slider_Set_m1476104429
a4f:_Image_set_fillClockwise_m2210525152
mnb:__ZN10BlendShape8TransferI19StreamedBinaryWriteILb0EEEEvRT_
Iif:__ZN14PhysicsManagerC2E10MemLabelId18ObjectCreationMode
Axh:_PlayerConnection_DisconnectedCallback_m1697017309
Wpb:__Z19GetTimeSinceStartupv
A4f:_Image_AddQuad_m2161647989
B6j:_Enumerator_System_Collections_IEnumerator_Reset_m2953002685_gshared
lxf:_TT_Load_Composite_Glyph
Lob:__Z33MultiplyMatrixArrayWithBase4x4REFPK10Matrix4x4fS1_S1_PS_j
ntj:_DateTime_FromTicks_m4059645178
ZC:__ZL51__ManagedRegistrationHelperFunction_ScaleConstraintPv
w6a:__ZN9ShaderLab11shaderprops9GetTexEnvEPK19ShaderPropertySheetS3_NS_16FastPropertyNameE16TextureDimensionb
ht:__ZN15HeightMeshQueryD0Ev
Lnc:__ZN29RenderNodeQueuePrepareContextC2Ev
grm:_il2cpp_gc_disable
AGc:__ZN9ShaderLab20SerializedSubProgram16TextureParameter8TransferI24GenerateTypeTreeTransferEEvRT_
zMa:__ZN9Scripting5Unity11Collections8LowLevel6Unsafe29NativeSetThreadIndexAttribute12CleanupProxyEv
ZPh:_DSASignatureDeformatter_SetKey_m2999549245
DOm:__ZN6il2cpp2os11MutexHandle4WaitEb
TFb:__ZN9GfxDevice19SaveStereoConstantsEv
COm:__ZN6il2cpp2os11MutexHandle4WaitEj
bMc:__ZL34GetComponentsImplementationRecurseILb1ELi1ELi1EEbR10GameObjectbRK17CompareParametersRK39GetComponentsImplementation_ReturnValue
rKk:__Z114RuntimeInvoker_Boolean_t97287965_RuntimeObject_RuntimeObject_Int32_t2950945753_Int32_t2950945753_Int32_t2950945753PFvvEPK10MethodInfoPvPS4_
Thh:_AssemblyBuilder_GetTypes_m3415680380
RCa:__ZN6prcoreL17RemapGenericFloatI15TexFormatRGHalf18TexFormatARGBFloatEEvPKNS_9InnerInfoE
h4b:__Z18SimulateMouseInputi
Hjc:__ZN13RenderManager23AddRemoveCamerasDelayedEv
aHf:__ZN11UnityEngine9Analytics15AnalyticsConfigC2Ev
Kfh:_OverflowException__ctor_m4029085969
K3i:_BitConverter__cctor_m3841343255
bsj:_Decimal_Compare_m3062820418
fei:_IntervalCollection_GetMetaCollection_m4029522214
Ldf:__ZNK5Unity5Joint16GetCurrentForcesER8Vector3fS2_
Hr:__ZNK22NavMeshProjectSettings11GetAreaCostEj
M_l:_TextGenerator_get_characterCount_m864136654
nCc:__ZN12LineRenderer13AwakeFromLoadE17AwakeFromLoadMode
zw:__ZNSt3__26vectorIN22NavMeshProjectSettings15NavMeshAreaDataENS_9allocatorIS2_EEE21__push_back_slow_pathIRKS2_EEvOT_
zwc:__ZN13RenderTexture8SetWidthEi
iAd:__ZN11ColorModuleD0Ev
ydl:_Array_InternalArray__get_Item_TisSingle_t1397266774_m1672589487_gshared
zwa:__ZN22BuiltinResourceManager16StaticInitializeEPv
Ctl:_Collection_1_System_Collections_ICollection_CopyTo_m1516601228_gshared
jxa:__ZN23DefaultMeshVertexFormatC2E18VertexChannelsInfo
yhj:_Int16_System_IConvertible_ToDouble_m1661805412
Yne:__ZNK5physx9NpFactory11getNbShapesEv
Hjd:__ZN8JSONRead21TransferSTLStyleArrayI13dynamic_arrayI5RectTIiELj0EEEEvRT_17TransferMetaFlags
Roa:__ZN9ShaderLab16FastPropertyName4InitEPKc
cX:__ZN14SafeBinaryRead21TransferSTLStyleArrayI13dynamic_arrayI4PPtrI13MonoBehaviourELj0EEEEvRT_17TransferMetaFlags
E5a:__ZN6ObjectC2E10MemLabelId18ObjectCreationMode
Wn:FUNCTION_TABLE_iiiii
zOg:__ZL56PlayableGraph_t3515989261_CustomAttributesCacheGeneratorP21CustomAttributesCache
dmi:_InternalEnumerator_1_get_Current_m3911557813_AdjustorThunk
VJf:__ZN11UnityEngine15PlatformWrapper19GetPhysicalMemoryMBEv
CI:__ZN17AnimationPlayable17GetAnimationClipsER13dynamic_arrayIP13AnimationClipLj0EE
cSj:_BitConverterLE_ToDouble_m1601000678
O5i:_Char_System_IConvertible_ToByte_m2347554595_AdjustorThunk
nFd:__Z20UpdateWholeSheet2TplIL27ParticleSystemCurveEvalMode0ELS0_2EEvfRK11MinMaxCurveS3_RK23ParticleSystemParticlesPf
YId:__ZN9Scripting11UnityEngine14ContactPoint2D9InitProxyEv
YWi:_String_CreateString_m860434552
Y$e:__ZN5physx2Sc10ClothShape21updateBoundsInAABBMgrEv
Vpi:_InternalEnumerator_1_System_Collections_IEnumerator_get_Current_m2649471526_AdjustorThunk
iPc:__Z38Transform_CUSTOM_INTERNAL_get_rotationP12Il2CppObjectP11Quaternionf
xtm:__ZNK15dense_hashtableINSt3__24pairIK10KeyWrapperIP11Il2CppClassES4_EES5_N6il2cpp8metadata16SZArrayClassHashEN14dense_hash_mapIS5_S4_SA_NS5_14EqualsComparerINS9_19SZArrayClassCompareEEENS0_9allocatorIS7_EEE9SelectKeyESE_SG_E3endEv
hkm:__ZNK15dense_hashtableINSt3__24pairIK10KeyWrapperINS1_IPK10MethodInfoP11Il2CppClassEEEjEES9_17ReflectionMapHashIS8_EN14dense_hash_mapIS9_jSD_NS9_14EqualsComparerINS0_8equal_toIS8_EEEENS0_9allocatorISB_EEE9SelectKeyESI_SK_E5beginEv
Aac:__ZN7ApiGLES19UploadBufferSubDataEjN2gl12BufferTargetEllPKv
cQe:__ZN5physx2Sc5Scene17createClothSolverEv
LBa:__ZNSt3__216__rotate_forwardINS_11__wrap_iterIPN4core12basic_stringIcNS2_20StringStorageDefaultIcEEEEEEEET_S9_S9_S9_
pGh:_Vector2_GetHashCode_m3916089713
o$i:_SmallXmlParserException__ctor_m1976648878
wX:__ZN7mecanim12statemachine20StateMachineConstant8TransferI14SafeBinaryReadEEvRT_
edh:_MulticastDelegate_Equals_m2502840627
bQi:_SymmetricAlgorithm_set_KeySize_m3805756466
phf:__ZThn116_N5physx7profile8ZoneImplINS_28PxProfileNameProviderForwardEE12removeClientERNS_19PxProfileZoneClientE
$Cf:__Z44Register_UnityEngine_Canvas_get_pixelPerfectv
BVe:__ZN15MBP_PairManager17removeMarkedPairsEPK10MBP_ObjectPN5physx16PxsBroadPhaseMBPERK8BitArrayS8_
l5i:_Byte_System_IConvertible_ToUInt32_m1049546902_AdjustorThunk
nTk:__Z53RuntimeInvoker_Double_t594665363_Interval_t1802865632PFvvEPK10MethodInfoPvPS4_
w6b:__Z21InitializeBatchedJobsv
u$l:_CanvasGroup_get_blocksRaycasts_m1805542303
LOi:_SHA1Internal_ProcessBlock_m1991889327
COb:__Z19TransferField_ArrayI14SafeBinaryRead27Converter_SimpleNativeClassI8GUIStyleEEvRK23StaticTransferFieldInfoR31RuntimeSerializationCommandInfoRT0_
x0b:__ZN9TextAsset23VirtualRedirectTransferER19StreamedBinaryWriteILb0EE
kal:_Array_Sort_TisRuntimeObject_TisRuntimeObject_m1685639929_gshared
Rxd:__Z25UpdateOrbitalAndRadialTplIL27ParticleSystemCurveEvalMode0ELS0_1ELS0_3EEvRK11MinMaxCurveS3_S3_S3_S3_S3_S3_R23ParticleSystemParticlesjjRKN4math8float3x3ERKNS6_7affineXERKNS6_7_float4E
Cdk:_TimerCallback_Invoke_m1938221087
T0a:__ZN14RenderSettings5ResetEv
xJc:__ZN6Sprite9BindAtlasERK4PPtrI11SpriteAtlasE
eed:__ZN5Unity9rapidjson12GenericValueINS0_4UTF8IcEE13JSONAllocatorE10FindMemberIS4_EENS0_21GenericMemberIteratorILb0ES3_S4_EERKNS1_IS3_T_EE
zne:__ZN5physx9NpPhysics33unregisterDeletionListenerObjectsERNS_18PxDeletionListenerEPKPKNS_6PxBaseEj
$li:_InternalEnumerator_1_System_Collections_IEnumerator_get_Current_m3892960115_AdjustorThunk
TIc:__ZN9ShaderLabL18AddPropertyToArrayERK19ShaderPropertySheetR13dynamic_arrayIiLj0EERKNS_8FloatValE
Wte:__ZNK5physx2Sc9ClothCore22getAngularInertiaScaleEv
E7i:_ArrayList_Clone_m2682741233
DQh:_HMAC_HashCore_m3684104066
iNf:__Z13RegisterClassI20UnityConnectSettingsEvPKc
dyk:__ZN28GenericInterfaceFuncInvoker2Ii20UIVertex_t4057497605S0_E6InvokeEPK10MethodInfoP12Il2CppObjectS0_S0_
vdd:__ZN5Unity9rapidjson13GenericReaderINS0_4UTF8IcEES3_13JSONAllocatorE11ParseNumberILj1ENS0_25GenericInsituStringStreamIS3_EENS0_15GenericDocumentIS3_S4_S4_EEEEvRT0_RT1_
ife:__ZN5physx20NpRigidActorTemplateINS_18PxArticulationLinkEE12setActorFlagENS_11PxActorFlag4EnumEb
pJf:__ZN22BaseUnityConnectClient20StartEventDispatcherEv
Z7g:__ZL71PlayerAttack_t171730867_CustomAttributesCacheGenerator__lightningAttackP21CustomAttributesCache
JFm:__ZN6il2cpp2os10ThreadImplD2Ev
aHd:__ZN14ParticleSystem18MarkAllSubEmittersEPS_
ted:__ZN8Gradient8TransferI9JSONWriteEEvRT_
cUl:_AudioSource_set_clip_m31653938
DPa:__ZNK12TLSAllocatorI14StackAllocatorE22GetAllocatedMemorySizeEv
EW:__ZN7mecanim6memory16ChainedAllocator8AllocateEjj
o3c:__Z32GetSceneHierarchyPathDescriptivePK6Object
V$j:_EqualityComparer_1_System_Collections_IEqualityComparer_GetHashCode_m2138064395_gshared
jAb:__ZN12HandlerChain4NameEv
Lhj:_Int16_System_IConvertible_ToType_m3672347013_AdjustorThunk
nn:FUNCTION_TABLE_fiiiiiifiiiiiif
Sij:_Int32_System_IConvertible_ToType_m3009233912_AdjustorThunk
qij:_Int16_ToString_m2013897809
Q2e:__ZN5physx37setupFinalizeSolverConstraintsCoulombERNS_13PxcNpWorkUnitERKNS_2Gu13ContactBufferERKNS_27PxcCorrelationBufferCoulombERKNS_11PxTransformESB_bPhRKNS_13PxcSolverBodyESF_RKNS_17PxcSolverBodyDataESI_ffjffff
Lwd:__Z25UpdateOrbitalAndRadialTplIL27ParticleSystemCurveEvalMode2ELS0_1ELS0_3EEvRK11MinMaxCurveS3_S3_S3_S3_S3_S3_R23ParticleSystemParticlesjjRKN4math8float3x3ERKNS6_7affineXERKNS6_7_float4E
CEf:__Z44Register_UnityEngine_CanvasRenderer_get_cullv
x8:__ZN10AudioMixer8TransferI19StreamedBinaryWriteILb0EEEEvRT_
xJf:__ZN11UnityEngine7Connect17XRDeviceInfoEvent12XRDeviceInfoD2Ev
FMb:__Z44InitializeTransferFunctionScriptingTraitsForI17RemapPPtrTransferEvR31TransferFunctionScriptingTraits
dTc:__ZNSt3__26vectorI16MessageForwarder13stl_allocatorIS1_L18MemLabelIdentifier7ELi8EEE6resizeEj
pai:_X509Chain_SelectBestFromCollection_m1068759221
LMl:_SymmetricTransform_TransformBlock_m851059707
ssd:__Z19UpdateProceduralTplIL27ParticleSystemCurveEvalMode4EEvRK20DualMinMaxPolyCurvesR23ParticleSystemParticlesPfRKN4math7_float4E
Tpl:_Enumerator_System_Collections_IEnumerator_Reset_m2261065994_AdjustorThunk
f0h:_ScrollRect_get_verticalNormalizedPosition_m3693218937
CUe:__ZN5physx31ComputeCreatedDeletedPairsListsEPKjS1_jRPNS_17PxcBroadPhasePairERjS5_S4_S5_S5_RNS_14SapPairManagerE
Aub:__ZN18LoadSceneOperation21MustCompleteNextFrameEv
r2h:_Slider_UpdateDrag_m1102107039
K9f:_MonoMethodInfo_get_method_info_m88651774
Gca:__ZNK12AudioManager16GetAudioListenerEv
Cij:_Int32_System_IConvertible_ToDateTime_m1824716955
sNh:_RuntimeTypeHandle__ctor_m3315980708_AdjustorThunk
$_l:_Canvas_set_overrideSorting_m4088794420
cwc:__ZNSt3__26vectorI11CameraStackNS_9allocatorIS1_EEE8__appendEj
DZe:__ZN5physx2Gu16pcmContactBoxBoxERKNS0_13GeometryUnionES3_RKNS_11PxTransformES6_RKfRNS0_5CacheERNS0_13ContactBufferE
lH:__ZN7mecanim9animation12GetHumanPoseERKNS0_18ClipMuscleConstantEPKNS0_10ValueDeltaERNS_5human9HumanPoseE
zHf:__ZN11UnityEngine9Analytics15UserCustomEvent12CustomParams6InsertEPKcRNS1_11CustomValueE
fJ:__ZN22AnimationMixerPlayable17ProcessRootMotionEP35AnimationPlayableEvaluationConstantP32AnimationPlayableEvaluationInputP33AnimationPlayableEvaluationOutput
Iua:__Z13GetFileSystemv
gXc:__ZZL23RegisterLightPropertiesR22GenericPropertyBindingEN29Wrapper_LightColorTemperature13SetFloatValueEPvf
dxa:__ZN13RuntimeStaticI15GUIEventManagerLb0EE16StaticInitializeEPv
Dwh:_MonoBehaviour_IsObjectMonoBehaviour_m2134950949
hOd:__ZN15RaycastCallback14processTouchesEPKN5physx12PxRaycastHitEj
fHa:__ZL45__ManagedRegistrationHelperFunction_Texture2DPv
jkk:_Version_CompareTo_m3146217210
QKi:_TlsClientCertificate_FindParentCertificate_m3844441401
yIl:_Uri_ParseAsUnixAbsoluteFilePath_m1476768041
CMj:_Array_InternalArray__ICollection_CopyTo_TisKeyValuePair_2_t71524366_m1056941380_gshared
V9e:__ZN5physx2Gu5RTree15exportExtraDataERNS_22PxSerializationContextE
pfk:_Type_get_IsClass_m589177581
qGg:__ZL62NativeTypeAttribute_t2250406315_CustomAttributesCacheGeneratorP21CustomAttributesCache
SLb:__ZN19ShaderPropertySheet9SetMatrixEN9ShaderLab16FastPropertyNameERK10Matrix4x4fNS_8SetFlagsE
vcb:__Z29GetTextureSizeAllowedMultiple13TextureFormat
ZV:__ZN19StreamedBinaryWriteILb0EE8TransferINSt3__26vectorIN13AnimationClip12Vector3CurveE13stl_allocatorIS5_L18MemLabelIdentifier26ELi16EEEEEEvRT_PKc17TransferMetaFlags
lPe:__ZNK5physx2Sq10AABBPruner7overlapERKNS0_9ShapeDataERNS0_14PrunerCallbackE
aBj:_Decimal_Subtract_m835601464
Vdk:_TimeSpan__ctor_m3689759052_AdjustorThunk
Zxd:__Z25UpdateOrbitalAndRadialTplIL27ParticleSystemCurveEvalMode0ELS0_2ELS0_4EEvRK11MinMaxCurveS3_S3_S3_S3_S3_S3_R23ParticleSystemParticlesjjRKN4math8float3x3ERKNS6_7affineXERKNS6_7_float4E
rqm:_il2cpp_array_element_size
wEe:__ZN5physx6shdfnd5ArrayIPvNS0_19ReflectionAllocatorINS_2Gu30LargePersistentContactManifoldEEEE4copyINS0_15InlineAllocatorILj256ES6_EEEEvRKNS1_IS2_T_EE
n6a:__ZN19ShaderPropertySheet22CopyVectorPropertyFromERKS_i
skg:__ZL62ComVisibleAttribute_t1362837655_CustomAttributesCacheGeneratorP21CustomAttributesCache
xQa:__ZNSt3__26__treeINS_12__value_typeIN4core12basic_stringIcNS2_20StringStorageDefaultIcEEEEjEENS_19__map_value_compareIS6_S7_NS_4lessIS6_EELb1EEE13stl_allocatorIS7_L18MemLabelIdentifier7ELi16EEE25__emplace_unique_key_argsIS6_JNS_4pairIS6_jEEEEENSH_INS_15__tree_iteratorIS7_PNS_11__tree_nodeIS7_PvEEiEEbEERKT_DpOT0_
WBh:_RectTransform_INTERNAL_set_sizeDelta_m188783163
vg:_glCheckFramebufferStatus
JNm:__ZN6il2cpp2os11EventHandle4WaitEv
Oqa:__Z43scripting_class_get_method_from_name_filter17ScriptingClassPtrPKciN24ScriptingMethodFiltering18MethodSearchFilterEPK16ScriptingTypePtr
SEf:__Z13RegisterClassIN2UI6CanvasEEvPKc
yka:__ZN19CloudServiceHandler20StartEventDispatcherERKN11UnityEngine15CloudWebService18CloudServiceConfigERNS1_23WebRequestRestHeaderMapE
O2f:_GraphicRaycaster__ctor_m646559428
o5e:__ZN5physx2Cm12DelegateTaskINS_2Sc5SceneEXadL_ZNS3_19updateCCDSinglePassEPNS_10PxBaseTaskEEEE11runInternalEv
r1d:__ZN5physx6string9sprintf_sEPcjPKcz
Ncf:__ZThn8_N5physx19TriangleMeshBuilderD1Ev
z9i:_BitArrayEnumerator_get_Current_m4220391712
qgh:__Z37il2cpp_codegen_get_executing_assemblyPK10MethodInfo
X5h:_HttpWebRequest_GetServicePoint_m2640244283
yCh:_Transform_get_parent_m835071599
CRd:__ZN5physx2Gu16intersectRayAABBERKNS_6PxVec3ES3_S3_S3_RfS4_
v6h:_IPAddress_get_ScopeId_m4237202723
tKa:__ZN9Scripting11UnityEngine12Experimental10PlayerLoop9PreUpdate12CleanupProxyEv
xG:__ZN21AnimationClipPlayable7SetTimeEd
MFl:_ExpressionCollection_get_Item_m3510736379
h1g:__ZL62FontData_t746620069_CustomAttributesCacheGenerator_m_AlignmentP21CustomAttributesCache
wWf:_StandaloneInputModule_get_inputActionsPerSecond_m3946624274
jbk:_UTF8Encoding_InternalGetCharCount_m82458470
DGh:_Vector2__cctor_m2108982652
Bxh:_U3CBlockUntilRecvMsgU3Ec__AnonStorey2_U3CU3Em__0_m2225790220
TWc:__ZZL23RegisterLightPropertiesR22GenericPropertyBindingEN22Wrapper_LightIntensity13GetFloatValueEPv
kIa:__ZN9Scripting11UnityEngine9Rendering20SphericalHarmonicsL29InitProxyEv
Y2e:__ZN5physx30setupFinalizeSolverConstraintsERNS_13PxcNpWorkUnitERKNS_2Gu13ContactBufferERKNS_20PxcCorrelationBufferERKNS_11PxTransformESB_bPhRKNS_13PxcSolverBodyESF_RKNS_17PxcSolverBodyDataESI_ffffff
bym:__ZN14dense_hash_mapI10KeyWrapperIP14Il2CppIUnknownEjN6il2cpp5utils11PointerHashIS1_EENS3_14EqualsComparerINSt3__28equal_toIS2_EEEENS9_9allocatorINS9_4pairIKS3_jEEEEE15set_deleted_keyERSF_
oW:__ZN7mecanim4hand8HandPose8TransferI19StreamedBinaryWriteILb0EEEEvRT_
oke:__ZN5physx7NpScene17releaseBatchQueryEPNS_12PxBatchQueryE
Mmm:__ZN13Il2CppHashMapIPK14Il2CppAssemblyPK22Il2CppMonoAssemblyNameN6il2cpp5utils11PointerHashIS1_EENSt3__28equal_toIS2_EENSA_9allocatorINSA_4pairIK10KeyWrapperIS2_ES5_EEEEEC2EjRKS9_RKSC_
p2e:__ZN5physx26solveVBlockDefaultFrictionEPNS_13PxsSolverCoreEfjjPNS_13PxcSolverBodyEPNS_17PxcSolverBodyDataEjjPNS_25PxcArticulationSolverDescEjPNS_23PxcSolverConstraintDescEjS9_jRNS_6shdfnd5ArrayINS_24PxsConstraintBatchHeaderENSA_19ReflectionAllocatorISC_EEEESG_PNS_2Cm13SpatialVectorEPNS_25PxcThresholdStreamElementEjRj
K0i:_DelegatePInvokeWrapper_AppDomainInitializer_t682969308
SS:__ZN14AnimationEvent8TransferI14SafeBinaryReadEEvRT_
jwd:__Z25UpdateOrbitalAndRadialTplIL27ParticleSystemCurveEvalMode1ELS0_1ELS0_1EEvRK11MinMaxCurveS3_S3_S3_S3_S3_S3_R23ParticleSystemParticlesjjRKN4math8float3x3ERKNS6_7affineXERKNS6_7_float4E
Nta:__ZN8Remapper6RemoveEi
xTe:__ZN5physx11writeBack1DERKNS_23PxcSolverConstraintDescERNS_16PxcSolverContextERNS_17PxcSolverBodyDataES6_
SYi:_Encoding_GetBytes_m3148649984
u4c:__ZN9Scripting27CreateArgumentNullExceptionEPKc
$nf:__ZL36CleanupTextRenderingScriptingClassesv
RQd:__ZThn4_N16RayRTreeCallbackILi0ELb0EED0Ev
wwc:__ZN15ReflectionProbe17UseRendererResultEP13ProbeRenderer
kv:__ZN16HeightMeshBVNode8TransferI18StreamedBinaryReadILb0EEEEvRT_
v7c:__Z34Mesh_CUSTOM_SetArrayForChannelImplP12Il2CppObject30InternalScriptingShaderChannel34InternalScriptingVertexChannelTypeiP11Il2CppArrayi
C$l:_CanvasRenderer_INTERNAL_CALL_EnableRectClipping_m3318097918
Hik:_UInt64_System_IConvertible_ToDecimal_m806594027_AdjustorThunk
LFa:__ZL58__ManagedRegistrationHelperFunction_MaterialEffectPlayablePv
wNf:__ZN11UnityEngine7Connect20RemoteConfigSettings18StaticCallOnUpdateEPS1_
Kui:_Enumerator_get_CurrentValue_m3103267885_gshared
ugl:_List_1__ctor_m3395838871_gshared
Ndj:_CultureInfo_get_Parent_m672689885
_0:__ZN9Scripting11UnityEngine18AssetBundleRequest9InitProxyEv
uAl:_PKCS12__ctor_m1854440921
L9k:_Array_Resize_TisCustomAttributeNamedArgument_t287865710_m885566878_gshared
Nva:__ZN17TransformInternal19FreeTransformThreadER18TransformHierarchyjj
pD:__ZN9Scripting11UnityEngine12SkeletonBone12CleanupProxyEv
FE:__ZN11UnityEngine9Animation28GenericAnimationBindingCache25RegisterIAnimationBindingEPKN5Unity4TypeEiP17IAnimationBinding
rOe:__ZN5physx2Gu17GetGeomSweepFuncsEv
l8d:__ZN5physx6shdfnd8PoolBaseINS_15PxsArticulationENS0_16AlignedAllocatorILj64ENS0_9AllocatorEEEE17releaseEmptySlabsEv
lmj:_DirectoryInfo__ctor_m481305441
Qoa:__ZN10MemoryPoolC2E10MemLabelIdbPKciii
DGf:__ZN14UnityAnalytics25UnregisterGlobalCallbacksEv
P$k:__Z80RuntimeInvoker_Boolean_t97287965_ColorBlockU26_t337120346_ColorBlock_t2139031574PFvvEPK10MethodInfoPvPS4_
Ouc:__Z40ProcessCameraIndexListIsNodeVisibleInOutRK22SceneCullingParametersPK9SceneNodePK4AABBR9IndexList
GLl:_GUIScrollGroup_SetHorizontal_m291416666
X_a:__ZN16GraphicsSettings8TransferI17RemapPPtrTransferEEvRT_
yFf:__ZN2UI6Canvas13UpdateBatchesEb
l8h:_X509BasicConstraintsExtension_Decode_m120598446
oM:__ZNK23AnimationPlayableOutput11DerivesFromE17ScriptingClassPtr
W$m:_glGetShaderInfoLog__wrapper
TLh:_ObjectReader_ReadObjectGraph_m340866276
cpe:__ZN5physx2Gu5Debug9visualizeERKNS_13PxBoxGeometryERNS_2Cm12RenderOutputERKNS5_8Matrix34ERKNS_9PxBounds3Eyfj
Uw:__ZN15SerializeTraitsINSt3__26vectorIN22NavMeshProjectSettings15NavMeshAreaDataENS0_9allocatorIS3_EEEEE8TransferI24GenerateTypeTreeTransferEEvRS6_RT_
PKf:__ZN11UnityEngine7Connect13ConfigHandler12GetListenersERKN4core12basic_stringIcNS2_20StringStorageDefaultIcEEEE
TGb:__ZN9GfxDevice18AllocRenderSurfaceEb
H5i:_Char__cctor_m2787437263
c3e:__ZN5physx31setupFinalizeSolverConstraints4EPNS_21PxcSolverContact4DescERNS_18PxcNpThreadContextEPhffRKNS_6shdfnd3aos5Vec4VES9_S9_S9_
KGe:__ZN5physx7NpScene5flushEb
ZZc:__ZN10TagManager32GetSortingLayerUniqueIDFromValueEi
_If:__ZN11UnityEngine7Connect15DeviceInfoEvent7GFXInfoD2Ev
LXf:_AspectRatioFitter_get_rectTransform_m2996235303
Gqa:__ZL27CleanupCoreScriptingClassesv
CFd:__Z19UpdateSingleRow2TplIL27ParticleSystemCurveEvalMode2ELS0_1EEvfRK11MinMaxCurveS3_RK23ParticleSystemParticlesPfbiii
dti:_Comparer_1_System_Collections_IComparer_Compare_m1313384821_gshared
wQc:__Z26AnimationCurve_CUSTOM_InitP12Il2CppObjectP11Il2CppArray
K3m:_glUniform1uiv__wrapper
xmm:__ZN6il2cpp2vm10Reflection7IsEventEP12Il2CppObject
Ota:__ZN17PersistentManager26GetStreamNameSpaceInternalEi
Y9:__ZN4FMOD6System11createSoundEPKcjP22FMOD_CREATESOUNDEXINFOPPNS_5SoundE
Mo:FUNCTION_TABLE_iiifiiii
Qjf:__ZN13SpeedTreeWind20AdvanceWithoutUpdateEd
Uok:_ReadOnlyCollection_1_System_Collections_Generic_ICollectionU3CTU3E_Add_m1422506275_gshared
Zxj:_DateTime_System_IConvertible_ToDecimal_m1044850612
Jhf:__ZThn128_N5physx7profile8ZoneImplINS_28PxProfileNameProviderForwardEED1Ev
Mpa:__ZN9ShaderLab19CommonPropertyNames13StaticCleanupEPv
bta:__Z31scripting_method_get_returntype18ScriptingMethodPtr
IPe:__ZN5physx2Sq17AABBTreeUpdateMap10invalidateEjjRNS0_8AABBTreeE
Zgb:__ZN15SerializeTraitsI12LightmapDataE8TransferI24GenerateTypeTreeTransferEEvRS0_RT_
zRi:_SecurityElement_AddAttribute_m311510562
xMa:__ZN9Scripting5Unity11Collections44NativeDisableParallelForRestrictionAttribute12CleanupProxyEv
u2e:__ZN5physx28solveParallelDefaultFrictionERNS_18PxsDynamicsContextEjjPNS_13PxcSolverBodyEPNS_17PxcSolverBodyDataEjjPNS_25PxcArticulationSolverDescEjPNS_23PxcSolverConstraintDescEjS9_jPiSA_SA_SA_SA_SA_PNS_25PxcThresholdStreamElementEjSA_PNS_2Cm13SpatialVectorEPKPNS_11PxsBodyCoreERNSD_10BitMapBaseINS_6shdfnd9AllocatorEEEPKPNS_15PxsArticulationEjPViRNSL_5ArrayINS_24PxsConstraintBatchHeaderENSL_19ReflectionAllocatorISW_EEEES10_RNSV_IjNSX_IjEEEES13_PPNS_12PxsRigidBodyEj
a0m:_glStencilOpSeparate__wrapper
J1c:__ZN4Mesh5SetUvEiPKfjj
Jeb:__ZN7Texture13SetAnisoLimitENS_20AnisotropicFilteringE
yQa:__ZNSt3__26__treeINS_12__value_typeIjN4core12basic_stringIcNS2_20StringStorageDefaultIcEEEEEENS_19__map_value_compareIjS7_NS_4lessIjEELb1EEE13stl_allocatorIS7_L18MemLabelIdentifier7ELi16EEE25__emplace_unique_key_argsIjJNS_4pairIjS6_EEEEENSH_INS_15__tree_iteratorIS7_PNS_11__tree_nodeIS7_PvEEiEEbEERKT_DpOT0_
LG:__ZN21AnimationClipPlayable22PrepareAnimationEventsEfR13dynamic_arrayI22AnimationClipEventInfoLj0EE
A3i:_Attribute_IsDefined_m4069052474
pi:_emscripten_glCompressedTexSubImage2D
Gdc:__ZN13GfxDeviceGLES22MemoryBarrierImmediateEyN2gl17MemoryBarrierTypeE
rm:_abort
tDa:__ZN6prcoreL26RemapGenericFloatToIntegerI18TexFormatARGBFloat17TexFormatARGB8888EEvPKNS_9InnerInfoE
Hol:_List_1_set_Capacity_m1977188119_gshared
lIm:__ZN6il2cpp6icalls8mscorlib6System10Reflection9MonoField16GetValueInternalEP21Il2CppReflectionFieldP12Il2CppObject
J3c:__Z46GetShaderModelNumericValueFromRequirementsMask18ShaderRequirements
Jak:_UTF7Encoding_InternalGetBytes_m797138468
Brf:_cff_ps_has_glyph_names
Scf:__ZN5physx15writeWordBufferEPKtjbRNS_14PxOutputStreamE
hYj:_Dictionary_2_Resize_m3287623642_gshared
jKm:_GC_write
dIh:_SoapTypeAttribute_SetReflectionObject_m1691526413
v2f:_Graphic_OnPopulateMesh_m767318148
SB:__ZN17ConstraintManagerD2Ev
HVj:_Dictionary_2_Remove_m4193450060_gshared
kkj:_Int64_TryParse_m3606398488
IJh:_RemotingServices_IsTransparentProxy_m1535738947
F8k:_Array_InternalArray__set_Item_TisMark_t3471605523_m1299772331_gshared
_bd:__Z44Register_UnityEngine_GUIStyle_SetDefaultFontv
GFm:__GLOBAL__sub_I_ThreadImpl_cpp
IWb:__Z18Transfer_BlittableI18StreamedBinaryReadILb1EELb1EiEvRK29SerializationCommandArgumentsR31RuntimeSerializationCommandInfo
rO:__ZN9BlobWrite8TransferI22OffsetPtrArrayTransferIKN4math7_float3EEEEvRT_PKc17TransferMetaFlags
zob:__ZN16MeshSkinningData14GetBoneWeightsEi
xKk:__Z173RuntimeInvoker_Int32_t2950945753_RuntimeObject_Int32_t2950945753_Int32_t2950945753_Int32_t2950945753_RuntimeObject_Int32_t2950945753_SByte_t1669577662_ContextU26_t3937453398PFvvEPK10MethodInfoPvPS4_
mil:_List_1__ctor_m2576108087_gshared
mlm:__ZN15dense_hashtableINSt3__24pairIK10KeyWrapperINS1_IPK12PropertyInfoP11Il2CppClassEEEjEES9_17ReflectionMapHashIS8_EN14dense_hash_mapIS9_jSD_NS9_14EqualsComparerINS0_8equal_toIS8_EEEENS0_9allocatorISB_EEE9SelectKeyESI_SK_E12maybe_shrinkEv
_5d:__ZN5physx2Sc7BodySim37checkSleepReadinessBesidesWakeCounterEv
zXl:__ZL25UnresolvedVirtualCall_150P12Il2CppObject19Vector2_t2156229523S1_fiPK10MethodInfo
RAl:_X509Certificate_get_DSA_m565099499
hXb:__Z18Transfer_BlittableI18StreamedBinaryReadILb1EELb1EsEvRK29SerializationCommandArgumentsR31RuntimeSerializationCommandInfo
t9j:_StringBuilder_Remove_m940064945
Wqb:__ZN14SafeBinaryRead21TransferSTLStyleArrayI13dynamic_arrayI16SplashScreenLogoLj0EEEEvRT_17TransferMetaFlags
yKb:__ZN13dynamic_arrayIN16GeometryJobTasks15GeometryJobTaskELj0EE18resize_initializedEjRKS1_12ResizePolicy
sPh:_DESCryptoServiceProvider_GenerateIV_m683687014
wFd:__Z19UpdateSingleRow2TplIL27ParticleSystemCurveEvalMode1ELS0_2EEvfRK11MinMaxCurveS3_RK23ParticleSystemParticlesPfbiii
agg:_Context_NotifyDynamicSinks_m1841702879
Peb:__ZL21SetAnisoLimitEnumImplN7Texture20AnisotropicFilteringEb
KKf:__ZN22BaseUnityConnectClient17OnEnterStateReadyEv
ZNe:__ZN5physx13PxsCCDContextD2Ev
h3h:_Text_get_fontSize_m1677872538
Sel:_List_1_System_Collections_IList_get_Item_m995551621_gshared
aKa:__ZN9Scripting11UnityEngine12Experimental9Rendering15ShadowSplitData9InitProxyEv
lnb:__ZN16BlendShapeVertex8TransferI19StreamedBinaryWriteILb0EEEEvRT_
QQc:__Z29Input_CUSTOM_GetMouseButtonUpi
WXd:__ZN5physx2Gu12selectNormalEhff
xgm:__ZN6il2cpp6icalls8mscorlib6System8MonoType16InternalGetEventEP20Il2CppReflectionTypeP12Il2CppStringi
mef:__Z13RegisterClassI9RigidbodyEvPKc
rJl:_UriScheme_t722425697_marshal_pinvoke_back
ttf:_UNITY_tt_face_load_maxp
dRc:__Z46Input_CUSTOM_INTERNAL_set_compositionCursorPosRK13Vector2fIcall
pG:__ZN7mecanim5human12FullBodyMaskEv
hxe:__ZN5physx3Scb14ParticleSystem16releaseParticlesEjRKNS_16PxStrideIteratorIKjEE
Hmc:__ZN13BatchRenderer15ApplyShaderPassER17ShaderPassContextPK18SharedMaterialDataP6ShaderPN9ShaderLab4PassEi13BatchingFlagsbbPKNS7_10GrabPassesEPK22DeviceRenderStateBlock
Nlb:__ZN19ShaderPropertySheet11ComputeHashEv
K9l:__ZN30dense_hashtable_const_iteratorI10KeyWrapperIPK19Il2CppGenericMethodES4_N6il2cpp8metadata23Il2CppGenericMethodHashEN14dense_hash_setIS4_S7_NS4_14EqualsComparerINS6_26Il2CppGenericMethodCompareEEENSt3__29allocatorIS4_EEE8IdentityESB_SE_EppEv
TJe:__ZN5physx2Sc5Scene21processLostTouchPairsEv
via:__ZN11UnityEngine15CloudWebService20WebRequestRestClient6IsDoneEv
Sxl:_X509CertificateCollection_get_Item_m1033426577
mj:_llvm_fabs_f32
_ha:__ZN11UnityEngine15CloudWebService16SessionContainer16GetJsonDataBlockEjRKN4core12basic_stringIcNS2_20StringStorageDefaultIcEEEERS6_PjSA_
DRj:_ASN1_Decode_m1695284166
jYe:__ZN5physx22PxcContactConvexConvexERKNS_2Gu13GeometryUnionES3_RKNS_11PxTransformES6_RKfRNS_10PxcNpCacheERNS0_13ContactBufferE
QDj:_Enum_ToString_m3248653065
peg:_ChannelServices__cctor_m2475086854
BPd:__ZNK5physx2Gu11ConvexHullV12HillClimbingERKNS_6shdfnd3aos5Vec3VE
fsa:__ZN14SafeBinaryReadD2Ev
Xwe:__ZN5physx2Sc18ParticleSystemCore10setDampingEf
I6j:_Enumerator_MoveNext_m3859993671_gshared
Rkf:__ZN14SafeBinaryRead21TransferSTLStyleArrayI13dynamic_arrayIN20TextRenderingPrivate8FontImpl13CharacterInfoELj0EEEEvRT_17TransferMetaFlags
xYb:__ZN8Gradient8TransferI18StreamedBinaryReadILb1EEEEvRT_
Ybi:_Capture__ctor_m3103117740
vJk:__Z113RuntimeInvoker_Void_t1185182177_RuntimeObject_Int64_t3736567304_RuntimeObject_Int64_t3736567304_Int64_t3736567304PFvvEPK10MethodInfoPvPS4_
J2d:__ZN5physx2Sc10NPhaseCore16deleteFilterPairEPNS0_10FilterPairE
Wzd:__ZN14ParticleSystem15ThreadedCleanupEv
_zh:_RangeInt_get_end_m4128831787_AdjustorThunk
zxm:__ZN6il2cpp6icalls8mscorlib6System4Type15MakeGenericTypeEP20Il2CppReflectionTypeP11Il2CppArray
Xef:_PxCreateBasePhysics
Oj:_SDL_PauseAudio
jbj:_Hashtable_Clone_m3078962909
Oqm:_il2cpp_class_from_type
yhm:__ZN6il2cpp2os4File11GetStdErrorEv
a4l:_NativeHeaderAttribute__ctor_m457462113
u0l:_AnimationLayerMixerPlayable__ctor_m860721801
K6d:__ZN5physx2Sc5Scene28addActiveBreakableConstraintEPNS0_13ConstraintSimE
Lpa:__ZN9ShaderLab19CommonPropertyNames16StaticInitializeEPv
Ile:__ZN5physx6shdfnd8PoolBaseINS_16NpParticleSystemENS0_19ReflectionAllocatorIS2_EEE15disposeElementsEv
esi:_Comparer_1__cctor_m2517796511_gshared
RE:__ZN7mecanim9animation18CreateAvatarOutputEPKNS0_14AvatarConstantEbbRNS_6memory9AllocatorE
dif:__ZN5physx7profile11EventBufferINS_24PxDefaultContextProviderENS_6shdfnd6MutexTINS0_26WrapperReflectionAllocatorIhEEEENS0_14ScopedLockImplIS7_EENS_24PxProfileNullEventFilterEE10eventValueEtyx
qLi:_TlsServerCertificateRequest_Update_m2763887540
hvd:__Z14UpdateSpeedTplIL27ParticleSystemCurveEvalMode1EEvRK11MinMaxCurveR23ParticleSystemParticlesjj
Z1h:_Slider_set_maxValue_m2251404465
$8:__ZN11AudioSource23VirtualRedirectTransferER24GenerateTypeTreeTransfer
l1c:__ZN7Texture11SetWrapModeE15TextureWrapMode
s9a:__ZN14Texture2DArray23VirtualRedirectTransferER14SafeBinaryRead
cbh:_MissingMemberException__ctor_m1220732369
upc:__ZNK6Camera21CalculateCanDoShadowsEv
sIe:__ZNK5physx2Sc5Scene17getBroadPhaseCapsERNS_16PxBroadPhaseCapsE
wie:__ZN5physx9NpFactory14onActorReleaseEPNS_7PxActorE
Gmh:_Application_InvokeOnBeforeRender_m2875673833
sFm:__ZN6il2cpp2os6Thread12SetStackSizeEj
M8d:__ZN5physx2Sc5Actor15onElementAttachERNS0_7ElementE
qYh:_MaskableGraphic_RecalculateMasking_m183336762
kdl:_Array_InternalArray__get_Item_TisRuntimeObject_m3347010206_gshared
u6f:_TypeBuilder_IsSubclassOf_m3458909121
fhh:_Default_check_arguments_with_score_m3467814020
Iwe:__ZN5physx2Sc18ParticleSystemCore23setSimulationFilterDataERKNS_12PxFilterDataE
GZb:__Z18Transfer_BlittableI18StreamedBinaryReadILb0EELb1EhEvRK29SerializationCommandArgumentsR31RuntimeSerializationCommandInfo
F_i:_X509Certificate__cctor_m198658613
TT:__ZN14SafeBinaryRead21TransferSTLStyleArrayI13dynamic_arrayI11KeyframeTplIfELj0EEEEvRT_17TransferMetaFlags
Jyh:_PlayableHandle_Equals_m1666612586_AdjustorThunk
$Ca:__ZN6prcoreL27StretchGenericFloatBilinearI15TexFormatRFloatEEvPKNS_9InnerInfoE
BOe:__ZN5physx6shdfnd8internal8HashBaseINS0_4PairIKNS_2Sq13PrunerPayloadEjEES5_NS0_4HashIS5_EENS1_11HashMapBaseIS5_jS9_NS0_9AllocatorEE6GetKeyESB_Lb1EE15reserveInternalEj
uEg:__ZL139ServicePointManager_t170559685_CustomAttributesCacheGenerator_ServicePointManager_t170559685____CheckCertificateRevocationList_PropertyInfoP21CustomAttributesCache
j5:__ZNK11AudioSource19GetFilterComponentsERNSt3__26vectorIPN4FMOD3DSPENS0_9allocatorIS4_EEEEb
iJ:__Z24ProcessAnimationMixBeginP35AnimationPlayableEvaluationConstantP32AnimationPlayableEvaluationInputP33AnimationPlayableEvaluationOutput
Sml:_List_1_set_Item_m2057272351_gshared
Lib:__ZN19StreamedBinaryWriteILb0EE21TransferSTLStyleArrayI13dynamic_arrayI8Vector2fLj0EEEEvRT_17TransferMetaFlags
ddb:__Z14PadImageBorderR14ImageReferenceii
Ojm:__ZN15dense_hashtableINSt3__24pairIK10KeyWrapperINS1_IPK10MethodInfoP11Il2CppClassEEEjEES9_17ReflectionMapHashIS8_EN14dense_hash_mapIS9_jSD_NS9_14EqualsComparerINS0_8equal_toIS8_EEEENS0_9allocatorISB_EEE9SelectKeyESI_SK_E4findERSA_
Ucm:__ZN6il2cpp2vm13MetadataCache28GetFieldDefaultValueForFieldEPK9FieldInfo
VJj:_Array_IndexOf_TisUIVertex_t4057497605_m3336763564_gshared
MJ:__ZN27AnimationLayerMixerPlayableD2Ev
XZf:_ColorBlock_Equals_m518833916_AdjustorThunk
nSe:__ZN5physx2Gu22gjkRelativePenetrationINS0_9TriangleVENS0_8CapsuleVEEEjRKT_RKT0_RKNS_6shdfnd3aos15PsMatTransformVERKNSB_6FloatVERNSB_5Vec3VESJ_SJ_RSF_PhSL_Rh
aQm:__ZN6il2cpp2os9FastMutexC2Ev
wKd:__ZN9Rigidbody14SetIsKinematicEb
pii:_InternalEnumerator_1_System_Collections_IEnumerator_get_Current_m1514266661_AdjustorThunk
B3:__ZN12AudioManager39HandlePendingAudioConfigurationCallbackEv
mHa:__ZL43__ManagedRegistrationHelperFunction_Vector3Pv
Nk:_emscripten_glIsFramebuffer
cUj:_RSAManaged_EncryptValue_m799827583
Ivc:__ZN12_GLOBAL__N_16qAtan2Eff
Rk:_JS_Sound_SetLoopPoints
SOm:__ZN6il2cpp2vm26MetadataAllocGenericMethodEv
MGj:_Array_InternalArray__ICollection_Remove_TisUInt16_t2177724958_m1766181761_gshared
Wfc:__ZN19ConstantBuffersGLES12RecordRenderEv
cOe:__ZN5physx13ActorAABBTaskD2Ev
jgd:__ZN9JSONWrite8TransferI10RectOffsetEEvRT_PKc17TransferMetaFlags
Wcb:__ZN4crnd12symbol_codec11decode_bitsEj
Bpf:_cf2_doFlex
cNl:_AesManaged_GenerateIV_m1368817386
u0a:__ZN10Matrix3x4f8TransferI24GenerateTypeTreeTransferEEvRT_
O2:__ZN4FMOD6System12createReverbEPPNS_6ReverbE
oIm:__ZN6il2cpp2vm6String21InitializeEmptyStringEP11Il2CppClass
KDd:__ZL17DrawMeshParticlesILb1EL25ParticleSystemRenderSpace1EEvRK26ParticleSystemTempMeshDataRK22ParticleSystemTempDataRK23ParticleSystemParticlesRK31ParticleSystemParticlesTempDataRK26ParticleSystemRendererDataRK21ParticleSystemModulesPfPv
DJ:__ZN7mecanim19ValueArrayBlendNodeILb1EEEvRKNS_10ValueArrayERKNS_14ValueArrayMaskERS1_RS4_RNS_16ValueArrayWeightEf
dxb:__Z16MarkDependenciesR27GarbageCollectorThreadStatej
S2l:_ObjectPool_1_get_countInactive_m526975942_gshared
KIh:_RemotingServices_DisposeIdentity_m2605848806
YBa:__ZNK9Transform11GetPositionEv
Tnh:_Bounds_set_size_m4127623202
Cgj:_GuidParser_Reset_m2640004655
u0d:__ZN5physx3Cct13HandleManager3AddEPv
z$c:__ZN31CanvasBatchIntermediateRenderer11AddSubBatchERK16DrawBuffersRangePK19ShaderPropertySheet
lXc:__ZN19RenderEventsContextC2Ei
Tfa:__Z6simd4fRKf
tl:_emscripten_glEnable
Xji:_InternalEnumerator_1_System_Collections_IEnumerator_get_Current_m2982675020_gshared
UCd:__ZNK14ParticleSystem16GetParticleCountEv
mQa:__ZN10TagManager23VirtualRedirectTransferER14SafeBinaryRead
N2g:__ZL51RawImage_t3182918964_CustomAttributesCacheGeneratorP21CustomAttributesCache
v7e:__ZNK5physx2Sc15ClothFabricCore9getNbSetsEv
tza:__ZN14PlayableOutput26ClearInvalidSourcePlayableEv
qsc:__Z15InitLightMeshesv
t8f:_MonoCMethod_ToString_m3992577062
J3l:_RaycastHit_get_collider_m1464180279
zHe:__ZNK5physx7NpScene26getNbContactDataBlocksUsedEv
io:FUNCTION_TABLE_iifiii
kTd:__ZN5physx2Gu29computeCapsule_HeightFieldMTDERKNS_21PxHeightFieldGeometryERKNS_11PxTransformERNS0_8CapsuleVEffbjRNS_10PxSweepHitE
M8e:__ZN5physx2Gu11HeightField15exportExtraDataERNS_22PxSerializationContextE
Eeb:__ZN15QualitySettings8TransferI19StreamedBinaryWriteILb0EEEEvRT_
ggj:_SortKey_GetHashCode_m3547067087
zXh:_LayoutUtility_U3CGetFlexibleHeightU3Em__7_m2991026842
dpf:_cf2_arrstack_init
tdl:_Array_InternalArray__get_Item_TisResourceCacheItem_t51292791_m1306056717_gshared
kYk:__Z157RuntimeInvoker_Void_t1185182177_RuntimeObject_RuntimeObject_RuntimeObject_RuntimeObject_RuntimeObject_RuntimeObject_RuntimeObject_RuntimeObject_RuntimeObjectPFvvEPK10MethodInfoPvPS4_
$ma:__Z15CleanLogHandler7LogTypePKcz
peh:_NumberFormatter_NumberToString_m2481532188
dHc:__ZN9ShaderLab19SerializedSubShader8TransferI19StreamedBinaryWriteILb0EEEEvRT_
Jne:__ZN5physx10NpMaterialC2ERKNS_2Sc12MaterialCoreE
i0h:_ScrollRect_InternalGetBounds_m599803667
f$e:__ZN5physx9PxTaskMgr10resolveRowEjb
QMa:__ZN9Scripting5Unity11Collections8LowLevel6Unsafe41NativeContainerIsAtomicWriteOnlyAttribute9InitProxyEv
s1b:__ZN6Camera17RemoveImageFilterERK11ImageFilter
cLb:__ZNSt3__218__insertion_sort_3IR25ValueParameterArraySorterPN20GpuProgramParameters14ValueParameterEEEvT0_S6_T_
vsd:__ZN14EmissionModule15AccumulateBurstER27ParticleSystemEmissionStateRK11MinMaxCurvef
paj:_Comparer__cctor_m3311686689
KNl:_U3CUpdateCountdownBarU3Ec__Iterator0_Reset_m1268897741
Uzd:__ZN11ShapeModule17MainThreadCleanupEv
Cqd:__ZN9SubModule5ResetEv
js:__ZN12NavMeshAgent13SetBaseOffsetEf
QIl:_Uri__ctor_m3040793867
Cz:__ZN12NavMeshQuery20UpdateSlicedFindPathEiPi
zji:_InternalEnumerator_1_get_Current_m3500427238_AdjustorThunk
kGf:__ZN2UI26InitializeDeviceForOverlayEi
R6e:__ZNK5physx13NpClothFabric13getRestvaluesEPfj
voa:__Z27LogRepeatingStringWithFlagsRKN4core12basic_stringIcNS_20StringStorageDefaultIcEEEE15LogMessageFlagsi
WPd:__ZN5physx2Gu16_gjkLocalRayCastINS0_9TriangleVENS0_11ConvexHullVEEEbRT_RT0_RKNS_6shdfnd3aos6FloatVERKNS9_5Vec3VESF_RSA_RSD_SH_f
bEj:_Enum_IsDefined_m1442314461
zck:_Thread__cctor_m817723615
fTl:_AudioExtensionManager_RegisterBuiltinDefinitions_m2742744104
RG:__ZN17AnimationPlayable28ComputeNeedsBindingRebuildedEv
WF:__ZN17AnimationPlayable23RequestAllocateBindingsEv
V6d:__ZN5physx6shdfnd8PoolBaseINS_2Cm5BlockIPvLj32EEENS0_19ReflectionAllocatorIS5_EEE17releaseEmptySlabsEv
sUe:__ZN5physx23PxsBroadPhaseContextSap21batchUpdateFewUpdatesEjRPNS_17PxcBroadPhasePairERjS4_
dYi:_DecoderReplacementFallbackBuffer_Fallback_m1261056214
WYd:__ZN5physx3Cct17getSceneTimestampEPKNS0_30InternalCBData_FindTouchedGeomE
kch:_Binder_get_DefaultBinder_m950908649
HLf:__ZN18UnityConnectClient33OnPlayerSessionStateChangedStaticEPS_jyy
uXk:__Z109RuntimeInvoker_Boolean_t97287965_Vector3_t3722313464_Vector3_t3722313464_Single_t1397266774_Int32_t2950945753PFvvEPK10MethodInfoPvPS4_
UNi:_RSA_ToXmlString_m2922661427
fja:__ZNK11UnityEngine15CloudWebService23WebRequestUploadHandler11GetProgressEv
kbc:__ZN7ApiGLES4LoadE16GfxDeviceLevelGL
Sme:__ZN5physx9NpPhysics15createAggregateEjb
Qcb:__ZN4crnd12crn_unpacker22decode_color_endpointsEv
Yr:__ZL19ProjectToPolyDetailPK11NavMeshTilePK11NavMeshPolyRK8Vector3fPf
fBm:__ZN15dense_hashtableI10KeyWrapperIP18Il2CppGenericClassES3_N6il2cpp8metadata22Il2CppGenericClassHashEN14dense_hash_setIS3_S6_NS3_14EqualsComparerINS5_25Il2CppGenericClassCompareEEENSt3__29allocatorIS3_EEE8IdentityESA_SD_E15insert_noresizeERKS3_
PYc:__ZZL31RegisterOtherRendererPropertiesR22GenericPropertyBindingEN30Wrapper_RendererReceiveShadows13GetFloatValueEPv
CNd:__ZN9Rigidbody5ResetEv
hFj:_Array_InternalArray__ICollection_Contains_TisSlot_t384495010_m688761886_gshared
tcb:__ZN17SharedTextureDataC2E10MemLabelIdii13TextureFormatjiibb
YZk:__Z114RuntimeInvoker_RuntimeObject_RuntimeObject_Int32_t2950945753_Int32_t2950945753_Int32_t2950945753_Int32_t2950945753PFvvEPK10MethodInfoPvPS4_
v4b:__ZN8Material11SetPassFastEPN9ShaderLab4PassER17ShaderPassContextP6Shaderib
qLf:__ZN11UnityEngine7Connect20BasePersistentValues10SaveValuesER9JSONWrite
Vlk:_Collection_1_IsFixedSize_m3748602684_gshared
$xj:_DateTime_System_IConvertible_ToDouble_m2116720007
dEi:_BitConverterLE_GetUIntBytes_m795219058
Jqh:_Display_GetSystemExtImpl_m2808197389
Odk:_WaitHandle_WaitOne_m2577152516
hOh:_SByte_Parse_m2899090751
hqd:__ZN11ShapeModule18MultiModeParameterIN25IParticleSystemProperties8PropertyIfNS1_5ClampILi0ELi360EEEEEE8TransferI19StreamedBinaryWriteILb0EEEEvRT_
rJa:__ZN9Scripting11UnityEngine20ManagedStreamHelpers12CleanupProxyEv
ofi:_ArrayReadOnlyList_1_GetEnumerator_m1835926958_gshared
Y_e:__ZN5physx9PxTaskMgr12addReferenceEj
b3c:__Z14ScaleCurveTimeR17AnimationCurveTplIfEf
Swa:__ZN20GlobalCachingManager7DisposeEv
$lc:__Z12SetupLODFadeR9GfxDeviceR17ShaderPassContextf
S8a:__ZNK14PlayableOutput7GetTypeEv
$gd:__ZN9JSONWrite8TransferI13dynamic_arrayI4AABBLj0EEEEvRT_PKc17TransferMetaFlags
xy:__ZNSt3__27__sort4IR17DetailNodeZSorterP16DetailMeshBVNodeEEjT0_S5_S5_S5_T_
dsc:__ZL24CollectForwardObjectsJobP27CollectForwardObjectsHeader
Nnl:_List_1_get_Item_m1378751541_gshared
$id:__ZN8JSONRead21TransferSTLStyleArrayI13dynamic_arrayIdLj0EEEEvRT_17TransferMetaFlags
zuc:__Z13IsNodeVisibleRK9SceneNodeRK4AABBRK22SceneCullingParameters
wKj:_Array_InternalArray__IndexOf_TisLabelFixup_t858502054_m1491765395_gshared
YOj:_SortKeyBuffer_AppendCJKExtension_m2591091991
zHd:__ZN11ShapeModuleC2E10MemLabelId
dbk:_UTF8Encoding_GetByteCount_m4153686982
R5m:_emscripten_glStencilMask__wrapper
kIk:__Z49RuntimeInvoker_Void_t1185182177_Double_t594665363PFvvEPK10MethodInfoPvPS4_
A9l:__ZN15dense_hashtableI10KeyWrapperIPK19Il2CppGenericMethodES4_N6il2cpp8metadata23Il2CppGenericMethodHashEN14dense_hash_setIS4_S7_NS4_14EqualsComparerINS6_26Il2CppGenericMethodCompareEEENSt3__29allocatorIS4_EEE8IdentityESB_SE_EC2ERKSH_j
abm:__ZN15dense_hashtableINSt3__24pairIK10KeyWrapperIN6il2cpp5utils13dynamic_arrayIPK10Il2CppTypeLj4EEEEPFvvEEESA_NS3_8metadata19Il2CppSignatureHashEN14dense_hash_mapISA_SD_SG_NSA_14EqualsComparerINSF_22Il2CppSignatureCompareEEENS0_9allocatorISE_EEE9SelectKeyESK_SM_EC2EjRKSG_RKSK_RKSO_
YUa:__ZN15RenderNodeQueue7CleanupEv
oHg:__ZL66RuntimePlatform_t4159857903_CustomAttributesCacheGenerator_XBOX360P21CustomAttributesCache
DJd:__ZN16NovodexAllocator8allocateEjPKcS1_i
zrc:__Z17PrepareShadowMapsRK11CullResultsRK11ActiveLightRK10MinMaxAABB
IAl:_DeriveBytes_DeriveIV_m973925711
Nij:_Int32_System_IConvertible_ToSByte_m3133688512
sRf:__ZN9Scripting11UnityEngine12Experimental23SubsystemDescriptorBase9InitProxyEv
$rc:__ZN9ShaderLab10GrabPassesD2Ev
tab:__ZN14Texture2DArray13UploadTextureEv
aYh:_MaskableGraphic_UpdateCull_m2805101913
$tf:_tt_cmap14_done
dvb:__ZN18AwakeFromLoadQueue25RegisterObjectInstanceIDsEv
cSh:_InputField_UpdateLabel_m1837760870
RJ:__ZNK27AnimationLayerMixerPlayable11DerivesFromE17ScriptingClassPtr
Ylf:__ZN20TextRenderingPrivate19NativeTextGenerator15InsertCharacterEiPj
kIe:__ZN5physx2Sc5Scene22removeBroadPhaseRegionEj
M0d:__ZN5physx2Cm12RenderBuffer5clearEv
Zsh:_SpriteBone_t303320096_marshal_pinvoke_back
Yte:__ZNK5physx2Sc9ClothCore21getStiffnessFrequencyEv
ech:_MonoType_get_attributes_m1332507727
VKl:_GUIContent_ClearStaticCache_m1205116045
h2g:__ZL66InputField_t3762917431_CustomAttributesCacheGenerator_m_CaretWidthP21CustomAttributesCache
zmd:__ZN24OptimizedPolynomialCurve19BuildOptimizedCurveERK17AnimationCurveTplIfEf
CQe:__ZN5physx13PxsCCDContext14postCCDAdvanceEPNS_10PxBaseTaskE
GSi:_WindowsIdentity_Dispose_m3466258450
NKh:_BinaryCommon__cctor_m2978407547
hla:__GLOBAL__sub_I_Runtime_Burst_0_cpp
cqc:__Z19GetReflectionSampleRK23ReflectionProbesContextRK22ActiveReflectionProbesRK27PerObjectLightCullingOutputRK10RenderNodejP16ReflectionSample
AYc:__ZN28ReflectionProbeAnchorManager23HandleAnchorDestructionEPK15TransformAccessj
Lvm:__ZN6il2cpp6icalls8mscorlib6System2IO6MonoIO20GetFileSystemEntriesEP12Il2CppStringS6_iiPi
nOf:__ZL65__ManagedRegistrationHelperFunction_UnityWebRequestAsyncOperationPv
OEk:_IndexedSet_1__ctor_m2250384602_gshared
uhk:_UInt16_TryParse_m4139137016
h6c:__Z41MonoBehaviour_Set_Custom_PropUseGUILayoutP12Il2CppObjecth
hIa:__ZN9Scripting11UnityEngine15ResourceRequest12CleanupProxyEv
JYi:_Encoding__ctor_m2997749867
Duh:_ManagedStreamHelpers_ManagedStreamSeek_m3158782053
DHl:_ExpressionAssertion_Compile_m2166597834
aMb:__ZN16ScriptingManagerD0Ev
UTi:_Single_System_IConvertible_ToSByte_m1208276900_AdjustorThunk
RKi:_TlsClientCertificate_ProcessAsSsl3_m3265529850
fJm:__ZN6il2cpp6icalls8mscorlib6System7Convert24InternalFromBase64StringEP12Il2CppStringb
TWe:__ZNK5physx10BPWorkTask7getNameEv
cje:__ZN5physx2Sc8ShapeSim16onResetFilteringEv
Qxd:__Z25UpdateOrbitalAndRadialTplIL27ParticleSystemCurveEvalMode0ELS0_1ELS0_0EEvRK11MinMaxCurveS3_S3_S3_S3_S3_S3_R23ParticleSystemParticlesjjRKN4math8float3x3ERKNS6_7affineXERKNS6_7_float4E
vzm:__ZN30dense_hashtable_const_iteratorINSt3__24pairIK10KeyWrapperINS1_IPKcS4_EEEiEES6_24NamespaceAndNamePairHashN14dense_hash_mapIS6_iS9_NS6_14EqualsComparerI26NamespaceAndNamePairEqualsEENS0_9allocatorIS8_EEE9SelectKeyESD_SF_EppEv
H8c:__Z44Register_UnityEngine_Component_get_transformv
wP:__ZN12_GLOBAL__N_120ProcessPlayableGraphERN8Animator11AnimatorJobER35AnimationPlayableEvaluationConstantR32AnimationPlayableEvaluationInputR33AnimationPlayableEvaluationOutputPFvS4_R17AnimationPlayableEPFvS4_S6_S8_EPFvS8_S4_S6_S8_fESE_MS9_FvPS3_PS5_PS7_E
pgj:_TextInfo_ToLower_m2744057472
ohc:__ZN17ArchiveFileSystem12MountArchiveEPKcS1_
h8l:__ZN14dense_hash_mapI10KeyWrapperIP9FieldInfoEiN6il2cpp5utils11PointerHashIS1_EENS3_14EqualsComparerINSt3__28equal_toIS2_EEEENS9_9allocatorINS9_4pairIKS3_iEEEEE15set_deleted_keyERSF_
p1j:_EqualityComparer_1_System_Collections_IEqualityComparer_Equals_m3977314386_gshared
nfd:__Z18Transfer_BlittableI9JSONWriteLb1E8Vector4fEvRK29SerializationCommandArgumentsR31RuntimeSerializationCommandInfo
Jqa:__Z11RequireTypePKcS0_S0_
vcj:_CCGregorianCalendar_year_from_fixed_m463929682
JAf:__ZN2UI13CanvasManagerD0Ev
yLi:_TlsServerHello_Update_m3935081401
Dmh:_Debug_get_unityLogger_m2239795986
bpk:_ReadOnlyCollection_1_System_Collections_IEnumerable_GetEnumerator_m2123446296_gshared
OEi:_MD2Managed_Initialize_m2341076836
wvk:_ReadOnlyCollection_1_System_Collections_IList_Add_m4240023232_gshared
zHb:__ZN9GfxDevice15ImmediateVertexEfff
vgb:__ZNK16LightmapSettings22GetTypeVirtualInternalEv
cnm:__ZN30dense_hashtable_const_iteratorINSt3__24pairIK10KeyWrapperIPK14Il2CppAssemblyEPK22Il2CppMonoAssemblyNameEES6_N6il2cpp5utils11PointerHashIS4_EEN14dense_hash_mapIS6_SA_SF_NS6_14EqualsComparerINS0_8equal_toIS5_EEEENS0_9allocatorISB_EEE9SelectKeyESK_SM_EppEv
G7b:__ZN13GfxDeviceGLES15SetStencilStateEPK18DeviceStencilStatei
M4i:_Buffer_BlockCopyInternal_m418318694
kTm:_cycle
XIm:__ZN6il2cpp2vm8Profiler7GCEventE13Il2CppGCEvent
XJk:__Z76RuntimeInvoker_Void_t1185182177_RuntimeObject_RuntimeFieldHandle_t1871169219PFvvEPK10MethodInfoPvPS4_
Slk:_Collection_1_ConvertItem_m4023613763_gshared
kEh:_Texture_CreateNonReadableException_m1462630389
ce:_emscripten_glUniform1iv
kKb:__ZN13ComputeShader14SetBufferParamEjRKN9ShaderLab16FastPropertyNameE15ComputeBufferIDb
Xck:_Thread_get_ManagedThreadId_m1068113671
rEb:__ZN16MemoryFileSystemD2Ev
mKk:__Z150RuntimeInvoker_Int32_t2950945753_RuntimeObject_Int32_t2950945753_Int32_t2950945753_RuntimeObject_Int32_t2950945753_Int32_t2950945753_Int32_t2950945753PFvvEPK10MethodInfoPvPS4_
N3i:_BitConverter_DoubleToInt64Bits_m3574395137
Ysj:_DateTime_Parse_m3729096069
ril:_List_1_System_Collections_IList_Add_m1540114404_gshared
qqh:_Debug_LogException_m2248249292
q_a:__ZN16GraphicsSettings27SetLightsUseLinearIntensityEb
e7c:__Z37Register_UnityEngine_Camera_get_depthv
KYc:__ZZN8Renderer15InitializeClassEvEN32FunctorImpl_146kCullSceneChanged4CallEPviR11MessageData
Z8g:_StringReader_Read_m3322058819
Eeg:_CrossAppDomainChannel_get_ChannelPriority_m3418073750
YUh:_Selectable_StartColorTween_m3618813981
wSf:_BaseInputModule_HandlePointerExitAndEnter_m1705532066
fhf:__ZN5physx7profile8ZoneImplINS_28PxProfileNameProviderForwardEE10startEventEty
WQe:__ZN5physx10PxsCCDPair17sweepAdvanceToToiEfb
WAc:__Z23ConvertIntegerToTypePtrItEbPvR14SafeBinaryRead
ZBj:_Delegate_CombineImpl_m3572135514
l_c:__Z13RegisterClassI15EditorExtensionEvPKc
qeh:_NumberFormatter_IntegerToString_m1679294587
Jsk:_ReadOnlyCollection_1_System_Collections_IList_RemoveAt_m422909114_gshared
iQ:__ZN7mecanim5human29HumanGetGoalOrientationOffsetENS0_4GoalE
te:_emscripten_glStencilFunc
eie:__ZN5physx6shdfnd8PoolBaseINS_2Cm5BlockIhLj384EEENS0_19ReflectionAllocatorIS4_EEE17releaseEmptySlabsEv
Y4e:__ZN5physx16PxsIslandManager11freeBuffersEv
jU:__ZN13dynamic_arrayI11KeyframeTplI8Vector3fELj0EE18resize_initializedEj12ResizePolicy
ujf:__ZN5Unity12PhysicsQuery21OverlapBoxUserCollectERK8Vector3fS3_RK11Quaternionfi23QueryTriggerInteractionRN8IPhysics12IUserCollectE
sIc:__ZN9ShaderLab20SerializedSubProgram14AddMatrixParamEPKcii15ShaderParamTypei
Ae:_glGetActiveUniformBlockName
WI:__ZN7mecanim13CopyValueMaskILb0EEEvPKNS_14ValueArrayMaskEPS1_
YHl:_Parser_IsIgnoreCase_m2210120858
x1e:__ZL28removeBrokenEdgesFromIslandsPKjjS0_jS0_RKN5physx11NodeManagerERNS1_11EdgeManagerERNS1_13IslandManagerERNS1_2Cm10BitMapBaseINS1_6shdfnd9AllocatorEEEPSD_
fBd:__ZN31CollisionModulePropertyBindings13GetFloatValueERK14ParticleSystemi
vRi:_SecurityPermission_IsSubsetOf_m545000671
Kcm:__ZN6il2cpp2vm13MetadataCache28GetGenericContainerFromIndexEi
y4:__ZN4FMOD7Channel20set3DConeOrientationEP11FMOD_VECTOR
Yn:FUNCTION_TABLE_iiifii
Shh:_AssemblyBuilder_not_supported_m1735277432
XCm:__ZN6il2cpp2vm12GenericClass11SetupEventsEP11Il2CppClass
d5b:__ZN19RuntimeSceneManager18LoadSceneAsyncIntoER10UnitySceneRKN4core12basic_stringIcNS2_20StringStorageDefaultIcEEEENS_11LoadingModeEb
xuf:_tt_cmap12_get_info
Vaj:_Hashtable_get_Keys_m625158339
Fym:__ZN6il2cpp2vm15ReboxIReferenceEP14Il2CppIUnknownP11Il2CppClass
nDm:__ZN6il2cpp2os5posix15PosixWaitObjectD2Ev
y1l:__ZN6il2cpp6icalls8mscorlib6System7Decimal14decimalCompareEP19il2cpp_decimal_reprS5_
GVj:_Dictionary_2_OnDeserialization_m4209543208_gshared
FJm:__ZThn4_N6il2cpp2vm13CachedCCWBaseINS0_13ManagedObjectEE7ReleaseEv
mde:__ZN5physx26PxcFsComputeJointLoadsSimdERKNS_9PxcFsDataEPKNS_12PxcFsInertiaEPNS_6shdfnd3aos6Mat33VEPKfjjNS_21PxcFsScratchAllocatorE
PCe:__ZN5physx6shdfnd8SyncImpl7getSizeEv
NNi:_RNGCryptoServiceProvider_GetNonZeroBytes_m1918423726
CTk:__Z100RuntimeInvoker_Void_t1185182177_RuntimeObject_Int32_t2950945753_Int32_t2950945753_UInt16_t2177724958PFvvEPK10MethodInfoPvPS4_
Wwd:__Z25UpdateOrbitalAndRadialTplIL27ParticleSystemCurveEvalMode2ELS0_3ELS0_2EEvRK11MinMaxCurveS3_S3_S3_S3_S3_S3_R23ParticleSystemParticlesjjRKN4math8float3x3ERKNS6_7affineXERKNS6_7_float4E
I2m:_glCopyTexImage2D__wrapper
Z_f:_FloatTween_TweenValue_m52237061
G4b:__Z18ClearByDrawingQuad13GfxClearFlagsRK10ColorRGBAffjR17ShaderPassContext
GCa:__ZN6prcoreL17RemapGenericFloatI14TexFormatRHalf15TexFormatRFloatEEvPKNS_9InnerInfoE
Oeh:_NumberFormatter_FormatExponential_m2139559983
FNk:__Z155RuntimeInvoker_Void_t1185182177_RuntimeObject_SByte_t1669577662_SByte_t1669577662_Int64U26_t200113976_ObjectU26_t2146539884_SerializationInfoU26_t419328957PFvvEPK10MethodInfoPvPS4_
mza:__ZN15DirectorManager21RebuildStageCallbacksEv
Y4b:__ZN19RuntimeSceneManager9LoadSceneERKN4core12basic_stringIcNS0_20StringStorageDefaultIcEEEES6_S6_RK9UnityGUIDiNS_11LoadingModeE
Fmh:_Application_Internal_ApplicationQuit_m2936209313
oac:__ZN7ApiGLES10DrawArraysE16GfxPrimitiveTypejjj
R9:__ZN10SampleClip13LoadBaseSoundEv
_Qd:__ZN5physx2Gu22gjkRelativePenetrationINS0_17ShrunkConvexHullVES2_EEjRKT_RKT0_RKNS_6shdfnd3aos15PsMatTransformVERKNSA_6FloatVERNSA_5Vec3VESI_SI_RSE_PhSK_Rh
p_:__ZN18StreamedBinaryReadILb0EE21TransferSTLStyleArrayI22OffsetPtrArrayTransferIN7mecanim8skeleton4NodeEEEEvRT_17TransferMetaFlags
w$i:_SmallXmlParser_SkipWhitespaces_m4243606597
pdj:_CompareInfo_IndexOf_m2631915198
MPb:__ZN14SafeBinaryRead21TransferSTLStyleArrayI13dynamic_arrayI10Matrix4x4fLj0EEEEvRT_17TransferMetaFlags
o5i:_Byte_CompareTo_m4285128861
PTf:_TriggerEvent__ctor_m87299207
xRf:__ZN9Scripting11UnityEngine12Experimental27Internal_SubsystemInstances12CleanupProxyEv
lda:__Z57AudioSource_CUSTOM_INTERNAL_CALL_ClearExtensionPropertiesP12Il2CppObjectRK12PropertyName
hW:__ZN7mecanim9animation4Clip8TransferI19StreamedBinaryWriteILb0EEEEvRT_
QCm:__ZN15dense_hashtableINSt3__24pairIK10KeyWrapperIP12Il2CppObjectEN6il2cpp2gc9CachedCCWEEES5_NS7_5utils11PointerHashIS3_EEN14dense_hash_mapIS5_S9_SD_NS5_14EqualsComparerINS0_8equal_toIS4_EEEENS0_9allocatorISA_EEE9SelectKeyESI_SK_E15insert_noresizeERKSA_
RDd:__ZL17DrawMeshParticlesILb0EL25ParticleSystemRenderSpace3EEvRK26ParticleSystemTempMeshDataRK22ParticleSystemTempDataRK23ParticleSystemParticlesRK31ParticleSystemParticlesTempDataRK26ParticleSystemRendererDataRK21ParticleSystemModulesPfPv
W5e:__ZN5physx2Sc19ParticlePacketShapeC2ERNS0_17ParticleSystemSimEjPNS_16PxvParticleShapeE
E_j:_EqualityComparer_1__cctor_m3962593840_gshared
O8a:__ZN22DeviceMVPMatricesStateC2ER9GfxDevice
vud:__Z9UpdateTplIL27ParticleSystemCurveEvalMode1EEvRK11MinMaxCurveS3_S3_R23ParticleSystemParticlesjjRKN4math8float3x3ERKNS6_7_float4E
Ume:__ZN5physx9NpPhysics18createTriangleMeshERNS_13PxInputStreamE
jo:FUNCTION_TABLE_iiiiifiiiif
Hn:FUNCTION_TABLE_iifii
I9i:_Comparer_Compare_m3984347512
Mom:__ZN6il2cpp2vm10Reflection12HasAttributeEP9FieldInfoP11Il2CppClass
iKa:__ZN9Scripting11UnityEngine12Experimental9Rendering11CullResults9InitProxyEv
Ec:invoke_viiifi
RRc:__Z13RegisterClassI6SpriteEvPKc
cag:_MonoProperty_GetCustomAttributes_m3619796755
eaf:__ZN5physx6shdfnd5ArrayIPNS_7PxActorENS0_19ReflectionAllocatorIS3_EEE8recreateEj
Sig:_MethodDictionary_System_Collections_IEnumerable_GetEnumerator_m4169036899
Ywl:_RIPEMD160Managed_JJJ_m4161373884
KYj:_DefaultComparer_Equals_m3257444875_gshared
Kf:_JS_Sound_SetPosition
G3a:__ZN19RenderBufferManager13GetTempBufferEii17DepthBufferFormat19RenderTextureFormatj22RenderTextureReadWrite14VRTextureUsagei23RenderTextureMemoryless
vcm:__ZL13GetSharedInstPK17Il2CppGenericInst
cZa:__Z27ConvertSubMeshesToTrianglesIjEvR13dynamic_arrayI7SubMeshLj0EERS0_IhLj0EE
V7l:__ZNK15dense_hashtableINSt3__24pairIK10KeyWrapperIPKcEP11Il2CppClassEES5_N6il2cpp5utils11StringUtils12StringHasherIS4_EEN14dense_hash_mapIS5_S8_SE_NS5_14EqualsComparerINSB_13VmStringUtils21CaseSensitiveComparerEEENS0_9allocatorIS9_EEE9SelectKeyESJ_SL_E3endEv
lJf:__ZN22BaseUnityConnectClient17SaveSessionValuesEv
Chi:_InternalEnumerator_1_get_Current_m476140818_gshared
lqe:__ZNK5physx7NpCloth14getNbParticlesEv
P2d:__ZN5physx2Sc10NPhaseCore24releaseShapeInstancePairEPNS0_19ShapeInstancePairLLEjj
gsc:__Z24SetupActiveLightsContextR21ActiveLightingContextRK12ActiveLightsRK11CullResultsP14ShadowMapCacheRK10MinMaxAABB
yKc:__Z38Sprite_CUSTOM_INTERNAL_get_textureRectP12Il2CppObjectP5RectTIfE
KU:__ZNSt3__26vectorIN13AnimationClip15QuaternionCurveE13stl_allocatorIS2_L18MemLabelIdentifier26ELi16EEE7reserveEj
OMc:__ZN9TextAsset7SetTextERKN4core12basic_stringIcNS0_20StringStorageDefaultIcEEEE
KTa:__ZN6Camera8TransferI24GenerateTypeTreeTransferEEvRT_
Qa:invoke_iiiiiiif
La:invoke_iiiiiiii
_7k:_Array_InternalArray__set_Item_TisByte_t1134296376_m3104140039_gshared
kBh:_Rect_ToString_m447614148
kBl:_PKCS12_GetBytes_m415958948
Wjc:__ZN8Renderer17PendingAddToSceneEv
Nie:__ZN5physx7NpActor18releaseConstraintsERNS_12PxRigidActorE
S0d:__ZN5physx6shdfnd5ArrayINS_11PxDebugLineENS0_19ReflectionAllocatorIS2_EEE8recreateEj
z6m:b125
y6m:b124
B6m:b127
A6m:b126
D6m:b129
lLc:__Z52Register_UnityEngine_RectTransform_INTERNAL_get_rectv
tqa:__Z21PostprocessStacktracePKcRN4core12basic_stringIcNS1_20StringStorageDefaultIcEEEE
Euh:_ManagedStreamHelpers_ManagedStreamLength_m2930872960
XKc:__Z43RectTransform_CUSTOM_INTERNAL_get_anchorMinP12Il2CppObjectP13Vector2fIcall
AAe:__ZNK5physx14NpRigidDynamic25getContactReportThresholdEv
boj:_FileStreamAsyncResult_CBWrapper_m1670848754
$Nc:__Z47Register_UnityEngine_Camera_get_allCamerasCountv
pE:__ZN16MecanimAnimation25RegisterIAnimationBindingEPKN5Unity4TypeEiP17IAnimationBinding
P1c:__ZNSt3__26vectorIj13stl_allocatorIjL18MemLabelIdentifier1ELi16EEE6assignIPKtEENS_9enable_ifIXaasr21__is_forward_iteratorIT_EE5valuesr16is_constructibleIjNS_15iterator_traitsIS9_E9referenceEEE5valueEvE4typeES9_S9_
NO:__ZN7mecanim9animation16EvaluateAvatarIKEPKNS0_14AvatarConstantEPKNS0_11AvatarInputEPNS0_12AvatarOutputEPNS0_12AvatarMemoryEPNS0_15AvatarWorkspaceEb
bL:__ZN26AnimatorControllerPlayable10GetIntegerEiRi
b4c:__Z12Base64EncodePKhjRN4core12basic_stringIcNS1_20StringStorageDefaultIcEEEEiRKS5_
y1e:__Z22updateIslandsToProcessRKN5physx2Cm10BitMapBaseINS_6shdfnd9AllocatorEEEPKjRKNS_11NodeManagerERS4_
gjc:__ZN12InputManager13InputEndFrameEv
bwh:_Object_get_name_m4211327027
lsm:__ZN6il2cpp2vm6Thread5SetupEP12Il2CppThread
xMd:__ZN8Collider30GetRelativePositionAndRotationERK9TransformR10Matrix4x4f
aRe:__ZN5physx35PxcSweepEstimateAnyShapeHeightfieldERKNS_11PxsCCDShapeES2_PKNS_12PxsRigidBodyES5_RKNS_11PxTransformES8_f
evi:_Enumerator_System_Collections_IDictionaryEnumerator_get_Key_m2500634048_gshared
d1d:__ZN5physx3Cct13BoxControllerC2ERKNS_16PxControllerDescERNS_9PxPhysicsEPNS_7PxSceneE
g4l:_NativeNameAttribute__ctor_m3296876808
oUm:___munmap
$Tj:_RSAManaged_get_PublicOnly_m595121416
Bg:_localtime_r
vkc:__ZN22RenderingCommandBuffer13GetAndCheckRTE24BuiltinRenderTextureTypeRKN9ShaderLab16FastPropertyNameEPKcPP13RenderTexture
qtd:__ZN14ParticleSystem13KillParticlesILb1EEEvRjbR24ParticleSystemUpdateDataR23ParticleSystemParticlesjPj
GEd:__Z16UpdateSpritesTplIL27ParticleSystemCurveEvalMode3EEvfRK11MinMaxCurveS3_RK23ParticleSystemParticlesPf
Zla:__Z19free_alloc_internalPv10MemLabelId
O5l:__ZNSt3__26vectorIjNS_9allocatorIjEEE6resizeEj
SD:__ZN9Scripting11UnityEngine10Animations18PositionConstraint9InitProxyEv
Eg:_strftime
X3a:__ZN7Texture33SetStoredColorSpaceNoDirtyNoApplyE17TextureColorSpace
hcg:_ResourceSet__ctor_m3618395942
IAj:_Decimal_System_IConvertible_ToDouble_m3125524987_AdjustorThunk
gva:__ZN12FileAccessorD2Ev
rZa:__ZN14VertexDataInfoC2Ev
BEm:__ZN6il2cpp2gc16GarbageCollector14CollectALittleEv
T$c:__ZNK9HPlayable15GetPlayableTypeEv
WXb:__ZL17Transfer_GUIStyleI18StreamedBinaryReadILb1EELb1EEvRK29SerializationCommandArgumentsR31RuntimeSerializationCommandInfo
mtd:__ZNSt3__227__insertion_sort_incompleteIR31SortCollisionEventsByGameObjectP22ParticleCollisionEventEEbT0_S5_T_
mZh:_RectMask2D_IsRaycastLocationValid_m1652308696
woa:__ZNSt3__26__treeINS_12__value_typeIPKciEENS_19__map_value_compareIS3_S4_15compare_tstringIS3_ELb1EEENS_9allocatorIS4_EEE21__emplace_unique_implIJNS_4pairIPciEEEEENSD_INS_15__tree_iteratorIS4_PNS_11__tree_nodeIS4_PvEEiEEbEEDpOT_
ngm:__ZN6il2cpp6icalls8mscorlib6SystemL9IsPrivateEPK12PropertyInfo
tBl:_X501_ToString_m1148552872
gRe:__ZNK5physx18PxcConvexTriangles16getPolygonNormalEj
$Bh:_RectTransform_add_reapplyDrivenProperties_m1374850920
Hpa:__ZN9shadertag10InitializeEv
ggf:__ZN5physx24NpPtrTableStorageManager8canReuseEjj
Cjf:__GLOBAL__sub_I_Modules_Terrain_Public_1_cpp
Beb:__ZN15QualitySettings14QualitySetting8TransferI24GenerateTypeTreeTransferEEvRT_
Dxm:__ZN6il2cpp6icalls8mscorlib6System13Globalization11CultureInfo25construct_datetime_formatEP17Il2CppCultureInfo
qFe:__ZN5physx2Sc27ConstraintProjectionManager33processConstraintForGroupBuildingEPNS0_13ConstraintSimERNS0_20ScratchAllocatorListIS3_Lj64EEE
Ryf:__Z28Font_Get_Custom_PropMaterialP12Il2CppObject
nwj:_Convert_ToSingle_m835189399
RJc:__ZN22BlockMemoryCacheWriter14LockCacheBlockEjPPhS1_
uDe:__ZN5physx2Cm29ConstraintImmediateVisualizer19visualizeDoubleConeERKNS_11PxTransformEfb
JPg:__ZL60MovedFromAttribute_t481952341_CustomAttributesCacheGeneratorP21CustomAttributesCache
mD:__ZN9Scripting11UnityEngine21StateMachineBehaviour9InitProxyEv
_id:__Z22TransferField_NonArrayI8JSONRead27Converter_SimpleNativeClassI8GUIStyleEEvRK23StaticTransferFieldInfoR31RuntimeSerializationCommandInfoRT0_
sWd:__ZN5physx6shdfnd5ArrayINS_13PxExtendedBoxENS0_19ReflectionAllocatorIS2_EEE8recreateEj
SKa:__ZN9Scripting11UnityEngine26ExcludeFromPresetAttribute9InitProxyEv
_6d:__ZN5physx6shdfnd5ArrayIPvNS0_19ReflectionAllocatorINS_2Cm5BlockIS2_Lj16EEEEEE4copyINS0_15InlineAllocatorILj256ES7_EEEEvRKNS1_IS2_T_EE
jh:_llvm_eh_typeid_for
Lt:__ZN8FreeListI17OffMeshConnectionE4GrowEj
g3m:_glGetUniformLocation__wrapper
NJh:_RemotingServices_FindInterfaceMethod_m2125212568
nM:__ZNK23AnimationPlayableOutput7GetTypeEv
YFe:__ZN5physx7NpScene19getActiveTransformsERjh
Xpj:_StreamWriter__cctor_m1229272693
F$c:__ZN13RendererScene38UpdatePreviousFrameDataForRendererTypeEii12RendererType
Q2d:__ZN5physx2Sc10NPhaseCore39pool_deleteParticleElementRbElementPairEPNS0_35ParticleElementRbElementInteractionEjj
MDj:_Enum_System_IConvertible_ToSByte_m779472798
WPe:__ZN5physx6shdfnd8internal8HashBaseIjjNS0_4HashIjEENS1_11HashSetBaseIjS4_NS0_9AllocatorELb0EE6GetKeyES6_Lb0EE6createERKjRb
l_b:__Z18Transfer_BlittableI18StreamedBinaryReadILb0EELb1E8Vector4fEvRK29SerializationCommandArgumentsR31RuntimeSerializationCommandInfo
Vkf:__ZN14SafeBinaryRead21TransferSTLStyleArrayI13dynamic_arrayIN4core17string_with_labelILi35EEELj0EEEEvRT_17TransferMetaFlags
rXl:__ZL25UnresolvedVirtualCall_142P12Il2CppObject17Color_t2555686324faaaPK10MethodInfo
vYj:_Dictionary_2_U3CCopyToU3Em__0_m2023886030_gshared
r5m:_glBindVertexArray__wrapper
Bcf:__ZN5physx6shdfnd5ArrayINS_11RTreeNodeNQENS0_19ReflectionAllocatorIS2_EEE19resizeUninitializedEj
cT:__ZN13dynamic_arrayIN11UnityEngine9Animation14GenericBindingELj0EE18resize_initializedEj12ResizePolicy
L3d:__ZNK5physx2Sc16InteractionScene18getLLIslandManagerEv
ILh:_SerializationInfo__ctor_m2923079689
e7a:__ZN8Material8TransferI14SafeBinaryReadEEvRT_
FQe:__ZN5physx17PxcNpMemBlockPool34acquireExceptionalConstraintMemoryEj
vbb:__ZN12CubemapArray17UploadToGfxDeviceEv
hZ:__ZN19StreamedBinaryWriteILb0EE21TransferSTLStyleArrayI22OffsetPtrArrayTransferI9OffsetPtrIN7mecanim9animation17BlendTreeConstantEEEEEvRT_17TransferMetaFlags
fij:_Int32_JumpOverWhite_m208298144
RRe:__ZN5physxL23PxcSweepConvexTrianglesERKNS_11PxsCCDShapeES2_RKNS_11PxTransformES5_S5_S5_fRNS_6PxVec3ES7_RNS_10PxcNpCacheERNS_18PxcNpThreadContextERKNS_2Cm23FastVertex2ShapeScalingERNS_2Gu9TriangleVEf
qoe:__ZNK5physx7NpShape16getPlaneGeometryERNS_15PxPlaneGeometryE
T1k:__Z53RuntimeInvoker_Int32_t2950945753_UIVertex_t4057497605PFvvEPK10MethodInfoPvPS4_
h4m:_emscripten_glGetUniformiv__wrapper
yJm:__ZN6il2cpp2vm13ManagedObject14QueryInterfaceERK10Il2CppGuidPPv
AU:__ZNSt3__26vectorI24CompressedAnimationCurve13stl_allocatorIS1_L18MemLabelIdentifier26ELi16EEE6assignINS_11__wrap_iterIPS1_EEEENS_9enable_ifIXaasr21__is_forward_iteratorIT_EE5valuesr16is_constructibleIS1_NS_15iterator_traitsISB_E9referenceEEE5valueEvE4typeESB_SB_
Lcf:__ZN5physx27InternalTriangleMeshBuilder14fillRemapTableEv
f5:__ZN11AudioSource4StopEb
lbe:__ZN5physx6shdfnd8PoolBaseINS_13NpRigidStaticENS0_19ReflectionAllocatorIS2_EEE17releaseEmptySlabsEv
CLb:__ZN18GlslGpuProgramGLESD2Ev
wyc:__ZN13RenderTexture14SetVolumeDepthEi
qhf:__ZThn116_NK5physx7profile8ZoneImplINS_28PxProfileNameProviderForwardEE10hasClientsEv
_Ze:__ZN5physx2Gu20pcmContactCapsuleBoxERKNS0_13GeometryUnionES3_RKNS_11PxTransformES6_RKfRNS0_5CacheERNS0_13ContactBufferE
USk:__Z86RuntimeInvoker_Void_t1185182177_UInt16_t2177724958_SByte_t1669577662_SByte_t1669577662PFvvEPK10MethodInfoPvPS4_
fIc:__Z22LoadGpuProgramFromDataPKhS0_Rj
Ejd:__ZN10Matrix4x4f8TransferI8JSONReadEEvRT_
LZb:__Z15Transfer_StringI18StreamedBinaryReadILb0EELb0EEvRK29SerializationCommandArgumentsR31RuntimeSerializationCommandInfo
YYh:_PositionAsUV1_ModifyMesh_m4231919476
Kaj:_Hashtable__ctor_m1941859523
Apc:__Z26FindForwardLightsForObjectR13dynamic_arrayIhLj0EEPK11CulledLightjRK12ActiveLightsRK10RenderNodePK19ShaderPropertySheetbRK23FindForwardLightsParamsf
UGa:__ZL44__ManagedRegistrationHelperFunction_GPUFencePv
S$h:_ScrollRect_set_horizontalScrollbarSpacing_m2209919081
rec:__ZN25TransformFeedbackSkinning31CleanupTransformFeedbackShadersEv
Ofk:_Type_GetTypeCodeInternal_m1968182887
rUa:__Z22scripting_object_unbox18ScriptingObjectPtr
_lf:__ZNK20TextRenderingPrivate8FontImpl19GetCharacterAdvanceEjijfPj
cMj:_Array_InternalArray__ICollection_Add_TisUriScheme_t722425697_m3142345403_gshared
NSm:_fmt_u
Dib:__ZN10VertexData8TransferI18StreamedBinaryReadILb0EEEEvRT_
$ae:__ZN5physx2Sc5Scene9addStaticERNS0_10StaticCoreEPKPvjj
PRm:__ZN6il2cpp8metadata25Il2CppGenericClassCompare7CompareEPK18Il2CppGenericClassS4_
Mch:_MonoType_get_Assembly_m4290914179
t_:__ZN6Avatar8TransferI19StreamedBinaryWriteILb0EEEEvRT_
QIc:__ZN9ShaderLab7ProgramC2E10MemLabelIdi10ShaderType
Hyc:__ZN14PreloadManager16UpdatePreloadingEv
tSa:__ZN12BaseRendererD2Ev
Z$a:__ZN14SafeBinaryRead21TransferSTLStyleArrayI19StaticArrayTransferIiLi4EEEEvRT_17TransferMetaFlags
NMc:__ZNSt3__26vectorI4PPtrI10MonoScriptE13stl_allocatorIS3_L18MemLabelIdentifier79ELi16EEE6insertENS_11__wrap_iterIPKS3_EERS9_
EMe:__ZN5physx2Sc5Scene9addShapesEPKPvjjRNS0_8RigidSimEPNS_12PxsRigidBodyERPNS0_8ShapeSimEPNS_9PxBounds3E
X8k:_Array_InternalArray__set_Item_TisUILineInfo_t4195266810_m2313892078_gshared
QYe:__ZN5physx23PxcPCMContactConvexMeshERKNS_2Gu13GeometryUnionES3_RKNS_11PxTransformES6_RKfRNS_10PxcNpCacheERNS0_13ContactBufferE
v2:__ZN15AudioMixerGroup8TransferI14SafeBinaryReadEEvRT_
TBc:__ZNK21UnityDefaultAllocatorI17LowLevelAllocatorE8ContainsEPKv
uNh:_RuntimeTypeHandle_Equals_m2857439487
ti:_emscripten_get_main_loop_timing
Edg:_SafeHandle_Finalize_m3866180675
pWc:__ZN19SkinnedMeshRenderer22GetBonesPerVertexCountEv
Aeb:__ZN24GenerateTypeTreeTransfer21TransferSTLStyleArrayINSt3__26vectorIN15QualitySettings14QualitySettingENS1_9allocatorIS4_EEEEEEvRT_17TransferMetaFlags
Yz:__Z13RegisterClassI12NavMeshAgentEvPKc
Eoj:_MemoryStream_ToArray_m3911744835
Fui:_Enumerator_System_Collections_IDictionaryEnumerator_get_Entry_m859540448_AdjustorThunk
Kxc:__ZN23ManagedAttributeManager52CallManagedGetParentTypeDisallowingMultipleInclusionE17ScriptingClassPtr
kqb:__Z10AddGUIAxesR13dynamic_arrayI9InputAxisLj0EE
Vfk:_Type_GetHashCode_m1947148725
bOk:__Z91RuntimeInvoker_Void_t1185182177_RuntimeObject_RuntimeObject_RuntimeObject_SByte_t1669577662PFvvEPK10MethodInfoPvPS4_
nyb:__ZNK2UI13RectTransform22GetTypeVirtualInternalEv
Rld:__ZNK15PolynomialCurve18EvaluateIntegratedERKN4math7_float4E
dq:getTempRet0
YAd:__ZN26SizeModulePropertyBindings13GetFloatValueERK14ParticleSystemi
QSf:_BaseRaycaster_OnEnable_m2678466030
Urh:_UnityEventBase__ctor_m1851535676
abl:_Array_Sort_TisVector4_t3319028937_m2797285308_gshared
MKi:_HandshakeMessage_Update_m2417837686
y3l:_Physics_RaycastAll_m3796226007
hvm:__ZN6il2cpp6icalls8mscorlib6System9ThreadingL21lookup_cached_cultureEP12Il2CppThreadi
S8c:__Z40LineRenderer_CUSTOM_SetPosition_InjectedP12Il2CppObjectiRK8Vector3f
prh:_NetFxCoreExtensions_CreateDelegate_m751211712
dtc:__ZN18DeferredRenderLoopD2Ev
z0l:_AnimationLayerMixerPlayable__cctor_m4086299972
rNa:__ZNK16TypeTreeIterator4NameEv
Gua:__ZN15FileSystemEntry3SetEPKc
U3e:__ZN5physx6shdfnd5ArrayIPNS_13PxcNpMemBlockENS0_19ReflectionAllocatorIS3_EEE6resizeEjRKS3_
ypk:_ReadOnlyCollection_1_System_Collections_Generic_IListU3CTU3E_Insert_m568455025_gshared
f4:__ZN20SoundChannelInstance15ParameterBuffer5ApplyEPN4FMOD7ChannelE
o6h:_IPv6Address__ctor_m4117281080
Jvj:_Convert_ToInt64_m2075293963
Xlf:__ZN20TextRenderingPrivate19NativeTextGenerator9InsertTabEv
dXm:_sbrk
hud:__Z13DragUpdateTplIL27ParticleSystemCurveEvalMode2EEvRK11MinMaxCurvebbR23ParticleSystemParticlesjjRKN4math7_float4E
Hnh:_Bounds_GetHashCode_m1844059663
S1:__ZL49__ManagedRegistrationHelperFunction_AudioSettingsPv
Ygf:__ZN5physx7profile8ZoneImplINS_28PxProfileNameProviderForwardEE21setProfileZoneManagerEPNS_20PxProfileZoneManagerE
LKf:__ZN11UnityEngine15PlatformWrapper24GetRuntimePlatformStringEv
dj:_glIsEnabled
N_d:__ZN5physx3Cct17CapsuleController15setFootPositionERKNS_14PxExtendedVec3E
pTd:__ZN5physx2Gu33PCMCapsuleVsMeshContactGeneration13generateEEMTDERKNS_6shdfnd3aos5Vec3VES6_RKNS3_6FloatVES6_jS6_S6_PNS0_21MeshPersistentContactERj
Xhh:_DerivedType__ctor_m1853298054
yOb:__Z25scripting_class_get_image17ScriptingClassPtr
pib:__ZN10SpriteBone8TransferI24GenerateTypeTreeTransferEEvRT_
mfl:_List_1_RemoveAt_m2730968292_gshared
Usb:__ZNSt3__26vectorIN4core12basic_stringIcNS1_20StringStorageDefaultIcEEEE13stl_allocatorIS5_L18MemLabelIdentifier13ELi16EEEC2INS_11__wrap_iterIPS5_EEEET_SE_RKS8_PNS_9enable_ifIXaasr21__is_forward_iteratorISE_EE5valuesr16is_constructibleIS5_NS_15iterator_traitsISE_E9referenceEEE5valueEvE4typeE
hj:_emscripten_glDrawElementsInstanced
ZK:__ZN26AnimatorControllerPlayable27SetupStateMachineBehavioursEv
XIg:__ZL48Mathf_t3464937446_CustomAttributesCacheGeneratorP21CustomAttributesCache
EHg:__ZL79Camera_t4157153871_CustomAttributesCacheGenerator_Camera_RaycastTry_m3913529496P21CustomAttributesCache
kWh:_LayoutGroup_get_preferredWidth_m3816902260
c2a:__ZN18JobBatchDispatcherD2Ev
iyb:__ZN9Transform17MainThreadCleanupEv
lMm:_GC_clear_hdr_marks
XFd:__Z17UpdateSprites2TplIL27ParticleSystemCurveEvalMode1ELS0_4EEvfRK11MinMaxCurveS3_RK23ParticleSystemParticlesPf
Cof:_cff_fd_select_get
A4m:_emscripten_glTexParameteri__wrapper
_2h:_Text_set_resizeTextForBestFit_m4095249125
x8h:_OidEnumerator_MoveNext_m3138911739
B0k:__Z53RuntimeInvoker_Boolean_t97287965_Keyframe_t4206410242PFvvEPK10MethodInfoPvPS4_
sj:_emscripten_glGetShaderiv
sPl:_PlayerHealth_Start_m3292611012
y5:__ZN4FMOD6System10getVersionEPj
P4e:__ZN5physx2Sc7BodySim10sleepCheckEffb
CBf:__ZN2UI6Canvas23VirtualRedirectTransferER24GenerateTypeTreeTransfer
h1h:_Selectable_set_animationTriggers_m2970345687
oVc:__ZZN19SkinnedMeshRenderer15InitializeClassEvEN47PostLateUpdateUpdateAllSkinnedMeshesRegistrator7ForwardEv
ghd:__ZN9JSONWrite8TransferIN4math12int2_storageEEEvRT_PKc17TransferMetaFlags
Hkf:__ZN13TextRendering4Font13AwakeFromLoadE17AwakeFromLoadMode
vdj:_CompareInfo_LastIndexOf_m2688553706
N5m:_emscripten_glCullFace__wrapper
Fum:__ZNSt3__213__vector_baseIN6il2cpp2vm22EmbeddedResourceRecordENS_9allocatorIS3_EEED2Ev
wGb:__ZN9GfxDevice21ReleaseSharedMeshDataEP14SharedMeshData
GVf:_MouseState__ctor_m1467839005
OIl:_Uri_IsDomainAddress_m2867513594
Vrb:__ZNSt3__27__sort5IRNS_6__lessINS_4pairIPKN5Unity4TypeE7Hash128EES8_EEPS8_EEjT0_SC_SC_SC_SC_T_
G0f:_Dropdown_CreateItem_m2954407740
sLm:_GC_unreachable_finalize_mark_proc
fzh:_PlayerConnectionInternal_PollInternal_m3759016321
U9h:_X509Chain_ProcessCrlExtensions_m236234529
zg:___syscall192
QMm:_maybe_finalize
Z6l:__ZN6il2cpp2vm5Class40GetInterfaceInvokeDataFromVTableSlowPathEPK12Il2CppObjectPK11Il2CppClassj
mod:__ZN11ShapeModule18MultiModeParameterIN25IParticleSystemProperties8PropertyIfNS1_5ClampILi0ELi360EEEEEE8TransferI24GenerateTypeTreeTransferEEvRT_
_Kc:__Z43RectTransform_CUSTOM_INTERNAL_get_anchorMaxP12Il2CppObjectP13Vector2fIcall
vje:__ZN5physx14NpShapeManagerC2Ev
uJh:_RemotingConfiguration_RegisterChannelTemplate_m3105688054
auj:_Decimal_Parse_m942471224
$Wa:__ZN8Material28UpdateHashesOnPropertyChangeEN9ShaderLab16FastPropertyNameE
MNc:__Z53Register_UnityEngine_SortingLayer_GetLayerValueFromIDv
ZDi:_ASN1_GetBytes_m1968380955
rNb:__Z18Transfer_BlittableI14SafeBinaryReadLb1E8Vector4fEvRK29SerializationCommandArgumentsR31RuntimeSerializationCommandInfo
tQf:__ZN13RuntimeStaticINSt3__26vectorI23UnityVRDeviceDefinition13stl_allocatorIS2_L18MemLabelIdentifier90ELi16EEEELb0EE13StaticDestroyEPv
d9:__ZN11AudioSource12AddToManagerEv
EF:__ZN8Animator23VirtualRedirectTransferER19StreamedBinaryWriteILb0EE
JM:__ZN11UnityEngine9Animation32CreateAnimatorGenericBindingsOptERKNS0_20AnimationSetBindingsER9TransformPKN7mecanim9animation14AvatarConstantEPKNS0_21AvatarBindingConstantEbRNS6_6memory9AllocatorER8Animator
s8:__ZN18StreamedBinaryReadILb0EE21TransferSTLStyleArrayI22OffsetPtrArrayTransferIN5audio5mixer13GroupConstantEEEEvRT_17TransferMetaFlags
VXm:dynCall_vdddddd
nGc:__ZN24GenerateTypeTreeTransfer21TransferSTLStyleArrayINSt3__26vectorIN9ShaderLab14SerializedPassENS1_9allocatorIS4_EEEEEEvRT_17TransferMetaFlags
hqa:__ZL32MarkLevelGameManagerDependenciesR27GarbageCollectorThreadState
w9b:__ZNK13GfxDeviceGLES26HasActiveRandomWriteTargetEv
Ong:__ZL54_MemberInfo_t3922476713_CustomAttributesCacheGeneratorP21CustomAttributesCache
R0m:_glGetActiveUniformsiv__wrapper
s7a:__ZN14SafeBinaryRead8TransferINSt3__24pairIN9ShaderLab16FastPropertyNameE10ColorRGBAfEEEEvRT_PKc17TransferMetaFlags
WVd:__ZNK5physx3Cct10Controller16getInternalStateERNS_17PxControllerStateE
uZc:__Z17BuildSmoothCornerILb0EEvjRPhRKN4math8float4x4EPK15LineBuilderDataRKfSA_RK11ColorRGBA32
Csa:__ZN13MonoBehaviour19SetupScriptingCacheE17ScriptingClassPtrP10MonoScript
SP:__Z20AnimationEventToMonoRK14AnimationEventR18MonoAnimationEvent
Ju:__ZN15SerializeTraitsI15NavMeshTileDataE8TransferI14SafeBinaryReadEEvRS0_RT_
JYc:__ZZN8Renderer15InitializeClassEvEN28FunctorImpl_145kLayerChanged4CallEPviR11MessageData
uVf:_PointerEventData_get_dragging_m746831934
ELe:__ZN5physx10PxsContext15setScratchBlockEPvj
vvk:_ReadOnlyCollection_1_System_Collections_IEnumerable_GetEnumerator_m2781605075_gshared
bKa:__ZN9Scripting11UnityEngine12Experimental9Rendering15ShadowSplitData12CleanupProxyEv
Yya:__ZZN15DirectorManager15InitializeClassEvEN52PreLateUpdateDirectorUpdateAnimationBeginRegistrator7ForwardEv
KEj:_Array_get_swapper_TisCustomAttributeNamedArgument_t287865710_m4254011335_gshared
K2f:_Graphic_RegisterDirtyMaterialCallback_m106898453
_Kl:_GUILayoutEntry_get_margin_m3174861737
p2d:__ZN5physx2Cm27getDynamicGlobalPoseAlignedERKNS_11PxTransformES3_S3_RS1_
czm:__ZNK15dense_hashtableINSt3__24pairIK10KeyWrapperINS1_IPKcS4_EEEiEES6_24NamespaceAndNamePairHashN14dense_hash_mapIS6_iS9_NS6_14EqualsComparerI26NamespaceAndNamePairEqualsEENS0_9allocatorIS8_EEE9SelectKeyESD_SF_E13find_positionERS7_
EFc:__ZNSt3__26vectorIN9ShaderLab14SerializedPassENS_9allocatorIS2_EEE8__appendEj
taf:__ZN5physx6shdfnd5ArrayIPvNS0_19ReflectionAllocatorIN17PxcPoolMallocData10PoolData32EEEE15growAndPushBackERKS2_
TEc:__ZNSt3__26vectorIN9ShaderLab20SerializedSubProgram13BufferBindingENS_9allocatorIS3_EEEC2INS_11__wrap_iterIPS3_EEEET_SB_RKS5_PNS_9enable_ifIXaasr21__is_forward_iteratorISB_EE5valuesr16is_constructibleIS3_NS_15iterator_traitsISB_E9referenceEEE5valueEvE4typeE
NWi:_Encoding_get_ISOLatin1_m2107621369
LWc:__ZZL23RegisterLightPropertiesR22GenericPropertyBindingEN20Wrapper_LightColorb213GetFloatValueEPv
mDi:_BigInteger_op_Inequality_m2697143438
Hzh:_Quaternion_LookRotation_Injected_m3680180073
L2b:__ZNK25PathNamePersistentManager30PathIDToFileIdentifierInternalEi
Gdb:__ZN9Texture2D23VirtualRedirectTransferER18StreamedBinaryReadILb0EE
ayj:_DateTime_System_IConvertible_ToDouble_m2116720007_AdjustorThunk
x9i:_BitArrayEnumerator__ctor_m2359341397
e5j:_Enumerator_MoveNext_m1177880931_gshared
OSg:__ZL73g_UnityEngine_TextRenderingModule_Assembly_CustomAttributesCacheGeneratorP21CustomAttributesCache
hta:__ZN16ScriptingManager27NativeTypeForScriptingClassE17ScriptingClassPtr
Eik:_UInt64_System_IConvertible_ToDateTime_m3434604642
Afk:_Type_get_IsSerializable_m1040556850
jtf:_get_sfnt_table
oFl:_Parser_ResolveReferences_m1518052352
AUb:__Z29Transfer_Blittable_ArrayFieldI24GenerateTypeTreeTransferiEvRT_R9ArrayInfoRK23StaticTransferFieldInfo
qfb:__ZN8Renderer20RendererAddedToSceneEv
Huc:__ZL22ScheduleSceneNodesJobsP25ScheduleSceneNodesJobDataj
jUe:__ZN5physx22concludeContactCoulombERKNS_23PxcSolverConstraintDescERNS_16PxcSolverContextE
kl:_emscripten_set_canvas_size
O1f:_Graphic_SetVerticesDirty_m2124914069
Cve:__ZNK5physx15NpParticleFluid12getStiffnessEv
ydj:_CultureInfo__ctor_m3285927757
$Xh:_MaskableGraphic_get_rootCanvasRect_m3492154629
WId:__ZN9Scripting11UnityEngine9Physics2D9InitProxyEv
T9k:_Array_Resize_TisRaycastResult_t3360306849_m1811054291_gshared
ZUc:__ZN12MeshRenderer27PrepareSingleRendererUpdateER13RendererSceneRS_10MemLabelId
kFc:__ZNSt3__26vectorIN9ShaderLab20SerializedSubProgramENS_9allocatorIS2_EEE8__appendEj
kma:__ZN20DynamicHeapAllocatorI17LowLevelAllocatorE8AllocateEji
dHf:__ZN11UnityEngine9Analytics15UserCustomEvent12ToJsonStringER9JSONWrite
wMl:_Locale_GetText_m2427493201
Kmc:__ZN20DynamicPropertySheet15SetVectorQueuedERKN9ShaderLab16FastPropertyNameERK8Vector4fN19ShaderPropertySheet8SetFlagsE
YN:__ZN7mecanim9animation22EvaluateAvatarRetargetEPKNS0_14AvatarConstantEPKNS0_11AvatarInputEPNS0_12AvatarOutputEPNS0_12AvatarMemoryEPNS0_15AvatarWorkspaceEb
V0a:__ZN14RenderSettings23VirtualRedirectTransferER19StreamedBinaryWriteILb0EE
Efd:__ZL26Transfer_SimpleNativeClassI9JSONWrite10RectOffsetLb0EEvRK29SerializationCommandArgumentsR31RuntimeSerializationCommandInfo
MLm:_GC_push_conditional
WGf:__ZN21UnityAnalyticsManager23VirtualRedirectTransferER24GenerateTypeTreeTransfer
hlb:__ZN17GenericDynamicVBO10AllocateVBEjR21DynamicVBOChunkHandle
oYe:__ZL27PxcTestFacesSepAxesBackfaceRKN5physx2Gu13PolygonalDataES3_RKNS_2Cm8Matrix34ES7_RKNS4_23FastVertex2ShapeScalingESA_S7_RKNS_6PxVec3ERfRSB_RjPjSG_fSD_
kAj:_DBNull_ToString_m3638608738
UAm:__ZN30dense_hashtable_const_iteratorI10KeyWrapperIP18Il2CppGenericClassES3_N6il2cpp8metadata22Il2CppGenericClassHashEN14dense_hash_setIS3_S6_NS3_14EqualsComparerINS5_25Il2CppGenericClassCompareEEENSt3__29allocatorIS3_EEE8IdentityESA_SD_EppEv
u9i:_BitArray_Clone_m3537018332
kLh:_ObjectRecord_UnchainFixup_m3191243952
rzl:_TlsStream_get_CanWrite_m16389328
REf:__Z15GetUIModuleSpecv
tkf:__ZN9Scripting11UnityEngine8UIVertex9InitProxyEv
Jl:_glMapBufferRange
ydb:__ZN9Texture2D8TransferI18StreamedBinaryReadILb0EEEEvRT_
PQc:__Z31Input_CUSTOM_GetMouseButtonDowni
g0c:__ZN13PlayableGraph4PlayEv
Pqe:__ZNK5physx7NpCloth23getExternalAccelerationEv
Vyb:__ZNK9Transform16GetLocalPositionEv
Pch:_MonoType_get_BaseType_m1098640416
aub:__ZN13LoadOperation19IntegrateTimeSlicedEi
Kzl:_TlsStream_Read_m3392972801
JVe:__ZN5physx16PxsBroadPhaseMBP9updatePPUEPNS_10PxBaseTaskE
G9b:__ZN13GfxDeviceGLES22DispatchComputeProgramE12ObjectHandleI18ComputeProgram_TagPvE15ComputeBufferIDj
b9j:_Latin1Encoding_GetString_m254210343
cwb:__Z17TransformAABBSlowRK4AABBRK10Matrix4x4fRS_
H2i:_Array_combsort_m4052486289
e6i:_Char_System_IConvertible_ToUInt16_m2449138174
v6:__ZN24AudioScriptBufferManager27InitialCompleteDomainReloadEv
KDc:__ZN9ShaderLab21SerializedShaderState8TransferI14SafeBinaryReadEEvRT_
BEj:_Environment_GetWindowsFolderPath_m1738399646
r9e:__ZN5physx2Gu13RTreeMidphaseC2Ev
Cpf:_cf2_stack_pushInt
QN:__ZN8Animator19FireAnimationEventsERNS_11AnimatorJobE
Lxe:__ZN5physx6shdfnd8PoolBaseINS_16NpParticleSystemENS0_19ReflectionAllocatorIS2_EEE12allocateSlabEv
T7f:_Module_GetCustomAttributes_m76573271
QOh:_CryptoConfig_EncodeOID_m2635914623
V7a:__ZN15SerializeTraitsINSt3__24pairIN4core12basic_stringIcNS2_20StringStorageDefaultIcEEEES6_EEE8TransferI24GenerateTypeTreeTransferEEvRS7_RT_
D2m:b89
C2m:b88
s2m:b81
r2m:b80
Tec:__ZN7ApiGLES19CreateSparseTextureEjj14GraphicsFormatiiiiRiS1_S1_
Xta:__ZN18ResourceImageGroup7CleanupEv
z2m:b85
c5d:__ZN5physx2Gu36closestPtPointTetrahedronTesselationEPNS_6shdfnd3aos5Vec3VES4_S4_RjRS3_S6_
B2m:b87
aXi:_String_CharCopy_m3838781968
DYe:__ZN5physx25PxcPCMContactSphereConvexERKNS_2Gu13GeometryUnionES3_RKNS_11PxTransformES6_RKfRNS_10PxcNpCacheERNS0_13ContactBufferE
Hjg:_RemotingSurrogateSelector_GetSurrogate_m3900875713
UGi:_CertificateValidationCallback_Invoke_m1014111289
u3a:__ZN8Playable19SetOutputConnectionEPS_i
KXa:__Z20RenderMultipleMeshesRK15RenderNodeQueueRK18RenderMultipleData16VertexInputMasks
xw:__ZN14SafeBinaryRead21TransferSTLStyleArrayINSt3__26vectorIN22NavMeshProjectSettings15NavMeshAreaDataENS1_9allocatorIS4_EEEEEEvRT_17TransferMetaFlags
xm:_glDeleteShader
c4:__ZN11SoundHandle8Instance15UpdateLoadStateEv
OCa:__ZN6prcoreL17RemapGenericFloatI15TexFormatRGHalf16TexFormatRGFloatEEvPKNS_9InnerInfoE
Nal:_Array_Sort_TisUICharInfo_t75501106_m128665067_gshared
Prf:_otv_GSUB_validate
vOi:_RSAPKCS1SignatureDeformatter_SetHashAlgorithm_m1602190713
EDj:_Enum_System_IConvertible_ToByte_m1219166845
Mle:__ZN5physx6shdfnd8PoolBaseINS_10NpMaterialENS0_19ReflectionAllocatorIS2_EEE15disposeElementsEv
vVj:_Dictionary_2_CopyToCheck_m45332585_gshared
ihh:_ConstructorInfo__cctor_m1016079270
BKf:__ZN11UnityEngine15PlatformWrapper20IsRootedOrJailbrokenEv
XIc:__Z27scripting_add_internal_callPKcPKv
t0i:_AppDomain_Load_m4174353770
_Bm:__GLOBAL__sub_I_GarbageCollector_cpp
hXd:__ZL21ContactReductionAllInRN5physx2Gu13ContactBufferEjjRKNS_7PxMat33EPKNS_6PxVec3EPKh
Y9c:__ZN9Scripting11UnityEngine3GUI9InitProxyEv
Nui:_Enumerator_MoveNext_m1556953412_AdjustorThunk
_F:__ZN26AnimatorControllerPlayable18SetLayerAutoWeightEv
Yb:invoke_vffff
NHl:_Literal_GetAnchorInfo_m810577400
JKm:_GC_alloc_large
Mpd:__ZN20ExternalForcesModule8TransferI19StreamedBinaryWriteILb0EEEEvRT_
dGf:__ZN2UI14CanvasRenderer12SyncMaterialENS0_8SyncFlagE
gqj:_StreamWriter_Write_m1660535366
MPm:__ZN6il2cpp2vm9Parameter30GetDefaultParameterValueObjectEPK10MethodInfoPK13ParameterInfoPb
cbk:_UTF8Encoding_GetByteCount_m4152118078
kTj:_KeyPairPersistence__CanSecure_m3516574278
MOk:__Z95RuntimeInvoker_Void_t1185182177_RuntimeObject_RuntimeObject_Int32_t2950945753_SByte_t1669577662PFvvEPK10MethodInfoPvPS4_
oRh:_MD5CryptoServiceProvider_Dispose_m3502499818
fvl:_Collection_1_System_Collections_IList_get_Item_m2422562729_gshared
J1a:__ZN12LightManager28IsLightTransformDataUpToDateEPK5Light
cW:__ZN14AnimationEvent8TransferI19StreamedBinaryWriteILb0EEEEvRT_
bV:__ZN7mecanim9animation9DenseClip8TransferI24GenerateTypeTreeTransferEEvRT_
Xtf:_UNITY_tt_face_done_kern
qef:__Z13RegisterClassI15CapsuleColliderEvPKc
sfi:_ArrayReadOnlyList_1_RemoveAt_m2104218585_gshared
pwd:__Z25UpdateOrbitalAndRadialTplIL27ParticleSystemCurveEvalMode1ELS0_2ELS0_4EEvRK11MinMaxCurveS3_S3_S3_S3_S3_S3_R23ParticleSystemParticlesjjRKN4math8float3x3ERKNS6_7affineXERKNS6_7_float4E
tib:__ZN12BoneWeights48TransferI24GenerateTypeTreeTransferEEvRT_
SFa:__ZL49__ManagedRegistrationHelperFunction_PreLateUpdatePv
B3b:__Z19scripting_gc_enablev
Ooi:_InternalEnumerator_1_get_Current_m2907722321_gshared
_hc:__ZZ23InitPlayerLoopCallbacksvEN41InitializationPlayerUpdateTimeRegistrator7ForwardEv
e4c:__ZN11UTF16StringC2ERKS_10MemLabelId
fif:__ZN5physx7profile11EventBufferINS_24PxDefaultContextProviderENS_6shdfnd6MutexTINS0_26WrapperReflectionAllocatorIhEEEENS0_14ScopedLockImplIS7_EENS_24PxProfileNullEventFilterEE9stopEventEty
Zpi:_InternalEnumerator_1_get_Current_m3792939945_AdjustorThunk
oEf:__Z55Register_UnityEngine_CanvasRenderer_DisableRectClippingv
XD:__ZN9Scripting11UnityEngine10Animations16ConstraintSource12CleanupProxyEv
Mek:_TimeSpan_Subtract_m1264203589_AdjustorThunk
jji:_InternalEnumerator_1_System_Collections_IEnumerator_get_Current_m888718134_gshared
HKk:__Z175RuntimeInvoker_Void_t1185182177_SByte_t1669577662_SByte_t1669577662_SByte_t1669577662_SByte_t1669577662_SByte_t1669577662_SByte_t1669577662_SByte_t1669577662_SByte_t1669577662PFvvEPK10MethodInfoPvPS4_
pJj:_Array_compare_TisRaycastResult_t3360306849_m822404090_gshared
Vxh:_Object_Destroy_m3118546832
_ok:_ReadOnlyCollection_1_System_Collections_Generic_IListU3CTU3E_set_Item_m519295790_gshared
yyj:_DateTime_FromTicks_m4059645178_AdjustorThunk
Scl:_Array_InternalArray__get_Item_TisClientCertificateType_t1004704908_m2297379651_gshared
ufg:_ConfigHandler_ParseTime_m1787834288
ZHc:__ZN9ShaderLab7Program27CreateFromSerializedProgramERKNS_17SerializedProgramE10ShaderTypeiP16PropertyNamesSetPK6Shader
IGj:_Array_InternalArray__ICollection_Remove_TisX509ChainStatus_t133602714_m3635989134_gshared
ogh:_Assembly_Load_m3487507613
u1:__ZNSt3__27__sort4IRNS_6__lessIN4core12basic_stringIcNS2_20StringStorageDefaultIcEEEES6_EEPS6_EEjT0_SA_SA_SA_T_
uYm:dynCall_viiiifii
Imm:__ZN6il2cpp2gc19AppendOnlyGCHashMapINSt3__24pairIPK11Il2CppImageP11Il2CppClassEEP22Il2CppReflectionModule17ReflectionMapHashIS9_ENS2_8equal_toIS9_EEEC2Ev
nra:__Z20GetPersistentManagerv
fxf:_UNITY_TT_Set_Var_Design
IQi:_X509Certificate__ctor_m1008109281
Ina:__ZN21SystemInfoStringCache16StaticInitializeEPv
Rsl:_Collection_1__ctor_m3380123530_gshared
I3d:__ZN5physx2Sc7BodySim18internalWakeUpBaseEf
zpk:_ReadOnlyCollection_1_System_Collections_Generic_ICollectionU3CTU3E_Remove_m1100818788_gshared
NEc:__ZNSt3__26vectorIN9ShaderLab20SerializedSubProgram15StructParameterENS_9allocatorIS3_EEE6assignIPS3_EENS_9enable_ifIXaasr21__is_forward_iteratorIT_EE5valuesr16is_constructibleIS3_NS_15iterator_traitsISA_E9referenceEEE5valueEvE4typeESA_SA_
eah:_UnexceptionalStreamWriter_Write_m363195622
uIf:__ZN9Scripting11UnityEngine9Analytics21AnalyticsSessionState12CleanupProxyEv
a1b:__ZNK13MonoBehaviour7GetNameEv
wxf:_ft_var_load_item_variation_store
jxb:__ZN19ScriptingInvocation28AdjustArgumentsToMatchMethodEv
VEk:_IndexedSet_1_Contains_m1525966688_gshared
H3:__Z15_CheckFMODError11FMOD_RESULTPKciS1_
_vm:__ZN6il2cpp6icalls8mscorlib6SystemL16ThrowInvalidCastEPK11Il2CppClassS5_
AQh:_HMAC_KeySetup_m661741544
R8j:_Latin1Encoding__ctor_m498920120
Npm:__ZN6il2cpp2vm4Type19GetGenericParameterEPK10Il2CppType
Jpj:_StreamReader_Peek_m2272511193
lqd:__ZN11ShapeModule5ResetEv
xDf:__Z51Register_UnityEngine_CanvasGroup_get_blocksRaycastsv
cuf:_tt_cmap14_char_var_index
N7e:__ZN5physx13BigConvexData5VLoadERNS_13PxInputStreamE
t_h:_Scrollbar_Set_m607000118
jgk:_Type_GetConstructor_m1195697116
Sd:_glBeginQuery
$X:__ZN18AnimatorController19TransferRuntimeDataI24GenerateTypeTreeTransferEEvRT_
ONe:__ZN5physx11NodeManager6resizeEj
U_l:_Canvas_get_scaleFactor_m3314757802
Pjc:__ZN6Camera12RenderStereoENS_10RenderFlagE8CullFlagPNS_24PerformEyeRenderFunctionE
UAb:__ZN20LocalFileSystemPosix10ToAbsoluteEPKc
m$a:__ZN20TierGraphicsSettings8TransferI19StreamedBinaryWriteILb0EEEEvRT_
T4m:b111
iwb:__Z23CollectSceneGameObjectsR13dynamic_arrayIiLj0EE
KIm:__ZN6il2cpp2vm13ComObjectBase16DisconnectObjectEj
Lld:__ZN15PolynomialCurve10BuildCurveERK17AnimationCurveTplIfEf
cn:f0
NTm:_getcwd
KPa:__ZN25ThreadsafeLinearAllocatorD2Ev
P3c:__ZL50GetAndClearChangedTransformsForMultilpleSystemsJobP45GetChangedTransformsForMultipleSystemsJobDatajPK23TransformAccessReadOnlyPKyj
oPe:__ZN5physx2Sq10AABBPruner11preallocateEj
ivb:__Z21SendMessageToEveryoneRK17MessageIdentifier11MessageData
Axa:__ZN21BillboardBatchManager16StaticInitializeEPv
Ftj:_DateTime_AbsoluteDays_m4235097773
dpa:__ZN12_GLOBAL__N_138ArchiveRedirectFileSystemStaticDestroyEPv
SFk:__Z74RuntimeInvoker_RuntimeObject_RuntimeObject_RuntimeObject_SByte_t1669577662PFvvEPK10MethodInfoPvPS4_
G$f:_DefaultControls_CreateScrollView_m3842770629
QId:__ZL55__ManagedRegistrationHelperFunction_PhysicsJobOptions2DPv
sbb:__ZN12CubemapArray34UpdateFileTextureUploadInstructionEP26FileAssetUploadInstructionj
NEe:__ZN5physx2Sc19ShapeInstancePairLLC2ERNS0_8ShapeSimES3_RNS0_9ActorPairENS_7PxFlagsINS_10PxPairFlag4EnumEtEE
Sec:__Z23CreateSparseTextureGLES9TextureIDii14GraphicsFormati
vsf:_otv_Anchor_validate
a9i:_SynchronizedArrayListWrapper_CopyTo_m4207791406
eKa:__ZN9Scripting11UnityEngine12Experimental9Rendering21RenderPipelineManager9InitProxyEv
Kek:_TimeSpan_Negate_m1889505500_AdjustorThunk
ftk:_ReadOnlyCollection_1_System_Collections_ICollection_CopyTo_m2715087453_gshared
sEb:__ZN16MemoryFileSystemD0Ev
yte:__ZN5physx2Sc9ClothCore16setStretchConfigENS_22PxClothFabricPhaseType4EnumERKNS_20PxClothStretchConfigE
wRa:__ZN14SafeBinaryRead23IsVersionSmallerOrEqualEi
ELf:__ZN11UnityEngine7Connect20RemoteConfigSettings7SetJSONER8JSONReadb
Upd:__ZN9SubModule8TransferI19StreamedBinaryWriteILb0EEEEvRT_
cQl:_AnalyticsEventTracker_Awake_m2780522130
Wef:_PxCreateFoundation
yu:__ZNSt3__213__vector_baseI14HeightMeshData13stl_allocatorIS1_L18MemLabelIdentifier77ELi16EEED2Ev
Tqm:_il2cpp_class_get_assemblyname
B5l:__ZN6il2cpp2vm5Class15GetEnumBaseTypeEP11Il2CppClass
fKi:_Context_set_WriteSequenceNumber_m942577065
we:_glVertexAttrib4fv
Rai:_X509CertificateEnumerator_Reset_m4026698923
eJm:__ZNK6il2cpp5utils13VmStringUtils23CaseInsensitiveComparerclERKNSt3__212basic_stringIcNS3_11char_traitsIcEENS3_9allocatorIcEEEEPKc
OYf:_CanvasScaler_SetScaleFactor_m3006968999
T5k:__Z78RuntimeInvoker_Boolean_t97287965_Navigation_t3049316579_Navigation_t3049316579PFvvEPK10MethodInfoPvPS4_
Tbb:__ZNK9Texture2D16GetNpotTexelSizeEv
Tdh:_NumberFormatter_Init_m3576155222
SBb:__ZL33FileEntryInfoListToFolderContentsRKN4core12basic_stringIcNS_20StringStorageDefaultIcEEEERK19dynamic_block_arrayI13FileEntryInfoLj32EERNSt3__23setIS3_NSB_4lessIS3_EENSB_9allocatorIS3_EEEE
kXh:_LayoutUtility_GetLayoutProperty_m714717302
Rud:__Z20EvaluateSlowThreadedRK11MinMaxCurveRNS_5CacheERKN4math7_float4ES7_
jGb:__ZN9GfxDevice22GetDefaultVertexBufferE26GfxDefaultVertexBufferTypej
nFj:_Array_InternalArray__ICollection_Contains_TisInt64_t3736567304_m2911357929_gshared
I4b:__Z17BeginSplashScreenb
rvl:_Collection_1_Remove_m3022471627_gshared
cUm:___fseeko_unlocked
FKa:__ZN9Scripting11UnityEngine12Experimental9Playables21TexturePlayableOutput12CleanupProxyEv
sfh:_Object_ToString_m1740002499
WTm:_sscanf
AWi:_String_CreateString_m2329023138
W0d:__ZN5physx3Cct17CapsuleControllerC2ERKNS_16PxControllerDescERNS_9PxPhysicsEPNS_7PxSceneE
zmb:__ZN14SafeBinaryRead21TransferSTLStyleArrayINSt3__26vectorI17BlendShapeChannelNS1_9allocatorIS3_EEEEEEvRT_17TransferMetaFlags
X9k:_Array_Resize_TisUILineInfo_t4195266810_m3763058392_gshared
kOh:_SByte_ToString_m3584531119_AdjustorThunk
aHc:__ZN9ShaderLab16SerializedShader8TransferI19StreamedBinaryWriteILb0EEEEvRT_
lRl:_TrackableProperty_GetHashCode_m3407865350
OE:__ZN7mecanim9animation18CreateAvatarMemoryEPKNS0_14AvatarConstantERNS_6memory9AllocatorE
MCi:_ModulusRing__ctor_m2420310199
Ktj:_Convert_ToDateTime_m626620011
gvi:_Enumerator_System_Collections_IDictionaryEnumerator_get_Key_m2500634048_AdjustorThunk
aGd:__Z17UpdateSprites2TplIL27ParticleSystemCurveEvalMode2ELS0_4EEvfRK11MinMaxCurveS3_RK23ParticleSystemParticlesPf
gP:__ZN7mecanim8skeleton16SkeletonPoseCopyIN4math4trsXENS2_7affineXEEEvPKNS0_13SkeletonPoseTIT_EEPNS5_IT0_EE
tcc:__ZN18GfxFramebufferGLES18GetFramebufferNameERK20GfxRenderTargetSetup
wIa:__ZN9Scripting11UnityEngine9Transform9InitProxyEv
d6h:_IPAddress__ctor_m921977496
yUh:_InputField_MoveDown_m1455948167
rad:__Z30Event_Get_Custom_PropCharacterP12Il2CppObject
iza:__ZN13PlayableGraph27SchedulePlayableDestructionERK9HPlayable
Grf:_cff_get_mm_var
qZd:__ZN5physx6shdfnd5ArrayINS_12PxDebugPointENS0_19ReflectionAllocatorIS2_EEE15growAndPushBackERKS2_
T$m:_glGetFramebufferAttachmentParameteriv__wrapper
neg:_ChannelServices_GetCurrentChannelInfo_m3041604116
sWc:__ZN13HandleManager16RegisterPodArrayEjPPhS0_S0_
vOb:__Z22scripting_array_length17ScriptingArrayPtr
d9g:_SynchronizedReader_Peek_m148942882
bNd:__ZN8Collider13AwakeFromLoadE17AwakeFromLoadMode
Kzk:_Predicate_1_Invoke_m2308795536_gshared
Cab:__ZN14SafeBinaryRead20TransferTypelessDataEjPvi
S_m:b34
vEm:__ZN15dense_hashtableINSt3__24pairIK10KeyWrapperIPcES3_EES4_N6il2cpp5utils15PassThroughHashIS3_EEN14dense_hash_mapIS4_S3_SA_NS4_14EqualsComparerINS0_8equal_toIS3_EEEENS0_9allocatorIS6_EEE9SelectKeyESF_SH_E3endEv
dXa:__Z19GetActiveColorSpacev
dpd:__ZN17SizeBySpeedModule8TransferI18StreamedBinaryReadILb0EEEEvRT_
ytf:_UNITY_tt_face_load_kern
n8f:_MonoMethodInfo_GetDeclaringType_m2924452727
c6b:__ZN13sorted_vectorINSt3__24pairIiN17InstancingBatcher12PropertyTypeEEEN10vector_mapIiS3_NS0_4lessIiEE13stl_allocatorIS4_L18MemLabelIdentifier1ELi16EEE13value_compareESA_E21sort_clear_duplicatesEv
uoa:__Z6StrCmpPKcS0_
PIc:__Z21CheckGpuProgramUsable20ShaderGpuProgramType
jUc:__ZN13ProduceHelperI14Texture2DArrayLb0EE7ProduceE10MemLabelId18ObjectCreationMode
uGm:__ZN6il2cpp2os9Directory20GetFileSystemEntriesERKNSt3__212basic_stringIcNS2_11char_traitsIcEENS2_9allocatorIcEEEESA_iiPi
t1i:_Array_System_Collections_IList_Add_m1063688101
lie:__ZN5physx6shdfnd5ArrayIPvNS0_19ReflectionAllocatorINS_2Cm5BlockIhLj128EEEEEE4copyINS0_15InlineAllocatorILj256ES7_EEEEvRKNS1_IS2_T_EE
Olf:__ZN20TextRenderingPrivate19NativeTextGenerator5SetupEv
Drc:__ZNK15SharedLightData24GetFinalShadowResolutionEv
Sle:__ZN5physx6shdfnd8PoolBaseINS_16NpConnectorArrayENS0_19ReflectionAllocatorIS2_EEE15disposeElementsEv
irb:__ZN12AspectRatios8TransferI18StreamedBinaryReadILb0EEEEvRT_
Ref:__ZN14PhysicsManager19CreatePvdConnectionEv
jKc:__ZN10GameObject14CopyPropertiesERS_
Vbd:__Z44Register_UnityEngine_GUIStyle_get_fixedWidthv
lGj:_Array_InternalArray__ICollection_Remove_TisLink_t544317964_m1280781374_gshared
L3i:_BitConverter_DoubleWordsAreSwapped_m1474345095
o8i:_FixedSizeArrayListWrapper_set_Capacity_m4221053039
xUm:_rand
v0m:_emscripten_glFramebufferRenderbuffer__wrapper
g2c:__ZN13MeshScripting10CreateMeshE21ScriptingObjectOfTypeI4MeshE
$ke:__ZNK5physx12NpConstraint9getActorsERPNS_12PxRigidActorES3_
DI:__ZN17AnimationPlayable22PrepareAnimationEventsEfR13dynamic_arrayI22AnimationClipEventInfoLj0EE
uPb:__ZN14SafeBinaryRead21TransferSTLStyleArrayINSt3__26vectorI17AnimationCurveTplIfE13stl_allocatorIS4_L18MemLabelIdentifier1ELi16EEEEEEvRT_17TransferMetaFlags
T8i:_SynchronizedArrayListWrapper_Contains_m3809499313
wLi:_HandshakeMessage_Compare_m2214647946
naf:__ZN5physx6shdfnd8PoolBaseIN17PxcPoolMallocData10PoolData16ENS0_19ReflectionAllocatorIS3_EEE15disposeElementsEv
BKd:__ZN9Rigidbody23UpdateInterpolationNodeEv
OQh:_HMACSHA256__ctor_m346174875
hph:_Color_op_Multiply_m2887457390
auc:__Z22PrepareOptimizedPlanesPK5PlaneiPKN4math7_float4E
Vka:__ZN11UnityEngine15CloudWebService17WebFileDownloaderINS0_20WebRequestRestClientENS0_23WebRequestRestHeaderMapEE10InitializeERKN4core12basic_stringIcNS5_20StringStorageDefaultIcEEEE
yxa:__ZN17UniqueIDGenerator15CreatePureIndexEv
rSc:__Z48InitializeRectTransformAnimationBindingInterfacev
PFe:__ZN5physx7NpScene8addActorERNS_7PxActorE
Htb:__ZNSt3__26vectorIN15ResourceManager10DependencyE13stl_allocatorIS2_L18MemLabelIdentifier52ELi16EEE6assignINS_11__wrap_iterIPS2_EEEENS_9enable_ifIXaasr21__is_forward_iteratorIT_EE5valuesr16is_constructibleIS2_NS_15iterator_traitsISC_E9referenceEEE5valueEvE4typeESC_SC_
Q4l:__ZN15dense_hashtableINSt3__24pairIK10KeyWrapperIPK22Il2CppGenericParameterEP11Il2CppClassEES6_N6il2cpp5utils11PointerHashIS4_EEN14dense_hash_mapIS6_S9_SE_NS6_14EqualsComparerINS0_8equal_toIS5_EEEENS0_9allocatorISA_EEE9SelectKeyESJ_SL_E14squash_deletedEv
h6a:__ZN9ShaderLabL27GetDesiredRenderTextureDescEPK6Camera
z7k:_Array_InternalArray__Insert_TisMark_t3471605523_m2854535880_gshared
E1c:__ZN4Mesh24UpdateSubMeshVertexRangeEi
WWc:__ZZL23RegisterLightPropertiesR22GenericPropertyBindingEN18Wrapper_LightRange13SetFloatValueEPvf
ojg:_MethodReturnDictionary__cctor_m278392388
zlc:__ZNK9Transform18TransformDirectionERK8Vector3f
k6e:__ZN5physx21PxsBodyTransformVault6updateEv
o4g:__ZL80CanvasScaler_t2767979955_CustomAttributesCacheGenerator_m_ReferencePixelsPerUnitP21CustomAttributesCache
gsf:_otv_MarkLigPos_validate
SQj:_PrimalityTests_RabinMillerTest_m1471415870
NWd:__ZL29GeomMTDCallback_CapsuleConvexRN5physx6PxVec3ERfRKNS_10PxGeometryERKNS_11PxTransformES5_S8_
Lkh:_GenericTypeParameterBuilder_GetCustomAttributes_m580748276
CZc:__Z49InitializeLineParametersAnimationBindingInterfacev
Fbm:__ZN15dense_hashtableINSt3__24pairIK10KeyWrapperIPK11Il2CppClassEPKcEES6_N6il2cpp5utils11PointerHashIS3_EEN14dense_hash_mapIS6_S9_SE_NS6_14EqualsComparerINS0_8equal_toIS5_EEEENS0_9allocatorISA_EEE9SelectKeyESJ_SL_E12resize_deltaEjj
gWm:__ZNK10__cxxabiv120__si_class_type_info27has_unambiguous_public_baseEPNS_19__dynamic_cast_infoEPvi
Rw:__ZNSt3__26vectorIN22NavMeshProjectSettings15NavMeshAreaDataENS_9allocatorIS2_EEE8__appendEj
RCi:_Kernel_LeftShift_m4140742987
bgh:_Assembly_GetManifestResourceInternal_m1224391897
SXa:__Z30AddDefaultStreamsToMeshBuffersR9GfxDeviceR11MeshBuffersj17ShaderChannelMaskS3_
Goa:__ZL16GetInterfaceImpl18UnityInterfaceGUID
MU:__ZNSt3__26vectorIN13AnimationClip15QuaternionCurveE13stl_allocatorIS2_L18MemLabelIdentifier26ELi16EEE10deallocateEv
_2c:__Z15AngularDistanceRK11QuaternionfS1_
TIm:__ZN6il2cpp6icalls8mscorlib6System15MonoCustomAttrs27GetCustomAttributesInternalEP12Il2CppObjectP20Il2CppReflectionTypeb
knc:__ZN13dynamic_arrayI11CulledLightLj0EE6insertEPS0_PKS0_S4_
Cxf:_UNITY_TT_Set_MM_Blend
MVc:__ZN26SkinnedMeshRendererManager22InvalidatePreparationsER10GameObject
_4b:__ZN14PreloadManager35WaitForAllAsyncOperationsToCompleteEv
d7l:__ZN13Il2CppHashMapIP9FieldInfoiN6il2cpp5utils11PointerHashIS0_EENSt3__28equal_toIS1_EENS6_9allocatorINS6_4pairIK10KeyWrapperIS1_EiEEEEEC2EjRKS5_RKS8_
fze:__ZN5physx14NpRigidDynamicC2ERKNS_11PxTransformE
LOd:__Z27sweepCCTBox_HeightFieldGeomRKN5physx10PxGeometryERKNS_11PxTransformERKNS_2Gu3BoxERKNS_6PxVec3EfRNS_10PxSweepHitENS_7PxFlagsINS_9PxHitFlag4EnumEtEEf
D3:__ZL31InitializeAudioScriptingClassesv
Ukc:__Z14SortGUIByDepthP10GUIElementS0_
psd:__Z19UpdateProceduralTplIL27ParticleSystemCurveEvalMode0EEvRK20DualMinMaxPolyCurvesR23ParticleSystemParticlesPfRKN4math7_float4E
exh:_PlayerConnection_OnEnable_m4286555589
_P:__ZN12_GLOBAL__N_120ProcessRootMotionMixER33AnimationPlayableEvaluationOutputR35AnimationPlayableEvaluationConstantR32AnimationPlayableEvaluationInputS1_f
xJl:_UriParser__cctor_m3655686731
vWd:__ZN5physx3Cct9SweepTest18updateTouchedGeomsEPKNS0_30InternalCBData_FindTouchedGeomERKNS0_13UserObstaclesERKNS_17PxExtendedBounds3ERKNS_19PxControllerFiltersERKNS_6PxVec3E
nuh:_LineRenderer_SetPosition_Injected_m293725056
aXh:_LayoutRebuilder_U3Cs_RebuildersU3Em__0_m589488547
Hif:_PxCloseExtensions
uBb:__ZNK20LocalFileSystemPosix21GetAvailableDiskSpaceEPKcRy
q1:__ZNSt3__26__treeIiNS_4lessIiEENS_9allocatorIiEEE7destroyEPNS_11__tree_nodeIiPvEE
uob:__Z15ApplyBlendShapeRK10BlendShapeRK13dynamic_arrayI16BlendShapeVertexLj0EEfRK12SkinMeshInfoPh
WFb:__ZNK9GfxDevice14GetWorldMatrixEv
sFh:_Transform_set_parent_m786917804
oUl:_AudioSampleProvider_InternalSetScriptingPtr_m3742743270
a2h:_Slider_get_value_m739683640
Szb:__Z19scripting_array_new17ScriptingClassPtrjj
vvj:_Convert_ToInt32_m2128774575
uaa:__ZN11SoundHandle13CreateChannelEb
sFc:__ZNSt3__26vectorIN9ShaderLab20SerializedSubProgram16TextureParameterENS_9allocatorIS3_EEE6assignIPS3_EENS_9enable_ifIXaasr21__is_forward_iteratorIT_EE5valuesr16is_constructibleIS3_NS_15iterator_traitsISA_E9referenceEEE5valueEvE4typeESA_SA_
gam:__ZN13Il2CppHashMapIN6il2cpp5utils13dynamic_arrayIPK10Il2CppTypeLj4EEEPFvvENS0_8metadata19Il2CppSignatureHashENS9_22Il2CppSignatureCompareENSt3__29allocatorINSC_4pairIK10KeyWrapperIS6_ES8_EEEEEC2EjRKSA_RKSB_
onm:__ZN15dense_hashtableINSt3__24pairIK10KeyWrapperIPK22Il2CppGenericParameterEPK24MonoGenericParameterInfoEES6_N6il2cpp5utils11PointerHashIS4_EEN14dense_hash_mapIS6_SA_SF_NS6_14EqualsComparerINS0_8equal_toIS5_EEEENS0_9allocatorISB_EEE9SelectKeyESK_SM_E15set_deleted_keyERKSB_
iOh:_SByte_TryParse_m2431806379
t2a:__ZN6prcoreL11inner_clearILj2EEEvPhjjj
SMa:__ZN9Scripting5Unity11Collections8LowLevel6Unsafe24NativeContainerAttribute9InitProxyEv
MPh:_DSACryptoServiceProvider_get_KeySize_m786836990
Cr:__ZNK14NavMeshManager25GetLoadedNavMeshDataCountEv
kte:__ZNK5physx2Sc9ClothCore20getNbCollisionPlanesEv
hh:_emscripten_exit_fullscreen
SAf:__ZN2UI11CanvasGroup23VirtualRedirectTransferER18StreamedBinaryReadILb0EE
o8e:__ZNK5physx13GuMeshFactory17getNbHeightFieldsEv
b9k:_Array_qsort_TisBoolean_t97287965_TisBoolean_t97287965_m214793583_gshared
Q3j:_Enumerator_System_Collections_IEnumerator_Reset_m1564381721_gshared
$ef:__ZN14PhysicsManager19CreateDynamicsSceneEbb14BroadphaseType16ContactPairsModeRK4AABBi
xSc:__ZZL31RegisterRectTransformPropertiesR22GenericPropertyBindingEN39Wrapper_RectTransformAnchoredPositiony113GetFloatValueEPv
mfh:_Object_MemberwiseClone_m1474068832
bFm:__ZN6il2cpp6icalls8mscorlib6System6String19InternalAllocateStrEi
ekd:__Z29Transfer_Blittable_ArrayFieldI8JSONRead11QuaternionfEvRT_R9ArrayInfoRK23StaticTransferFieldInfo
b2i:_Array_SetValue_m282347242
CPe:__ZNK5physx2Gu12OBBAABBTestsILb1EEclENS_6shdfnd3aos5Vec3VES5_
_Nc:__Z45Register_UnityEngine_Camera_get_targetDisplayv
hZc:__ZNK24RendererAnimationBinding15GenerateBindingERKN4core12basic_stringIcNS0_20StringStorageDefaultIcEEEEbRN11UnityEngine9Animation14GenericBindingE
E6h:_IPv6Address__ctor_m3704187391
H1a:__Z15GetFlareManagerv
q1c:__ZN4Mesh15AppendTrianglesERNSt3__26vectorIj13stl_allocatorIjL18MemLabelIdentifier1ELi16EEEEjRK13dynamic_arrayI7SubMeshLj0EEPK14SharedMeshDatab
RVd:__ZN5physx3Cct9SweepTestD2Ev
SE:__ZN8Animator13GetAvatarRootEv
ySm:___toread
P2b:__ZNSt3__26vectorI10vector_mapIiiNS_4lessIiEE13stl_allocatorINS_4pairIiiEEL18MemLabelIdentifier38ELi16EEES4_IS9_LS7_38ELi16EEE26__swap_out_circular_bufferERNS_14__split_bufferIS9_RSA_EE
nCi:_BigInteger_get_Rng_m3283260184
JWm:___cxa_is_pointer_type
_$:__ZN8Animator22ScriptingStringToCRC32ERK11ICallString
fVc:__ZN26SkinnedMeshRendererManager7CleanupEv
Tdc:__ZN4gles20DestroyRenderSurfaceEP7ApiGLESP17RenderSurfaceGLES
$cl:_Array_InternalArray__get_Item_TisKeyValuePair_2_t2530217319_m2886833132_gshared
DFa:__ZL50__ManagedRegistrationHelperFunction_UnityEventBasePv
GPc:__Z34Transform_CUSTOM_SetAsFirstSiblingP12Il2CppObject
Qpd:__ZN21RotationBySpeedModule8TransferI19StreamedBinaryWriteILb0EEEEvRT_
nUh:_InputField_Delete_m3471899192
gJh:_RemotingConfiguration_get_ProcessId_m2180277012
rha:__ZN11UnityEngine15CloudWebService17SessionEventQueue14ParseEventDataERKN4core12basic_stringIcNS2_20StringStorageDefaultIcEEEE
Bke:__ZN12GeomQueryAnyIN5physx10PxSweepHitEE7geomHitERKNS0_2Sq17SceneQueryManagerERKNS0_15MultiQueryInputERKNS3_9ShapeDataERKNS0_10PxGeometryERKNS0_11PxTransformENS0_7PxFlagsINS0_9PxHitFlag4EnumEtEEjPS1_fbPNS0_9PxBounds3E
mbc:__ZN13TranslateGLES4InitERK12GraphicsCaps16GfxDeviceLevelGL
UXd:__ZN43CapsuleHeightfieldContactGenerationCallback7onEventEjPj
uNd:__ZThn4_N12MemoryStream4readEPvj
Tjj:_Int64_System_IConvertible_ToUInt16_m848637338_AdjustorThunk
XHf:__Z32CustomEventData_CUSTOM_AddUInt32P12Il2CppObjectP12Il2CppStringj
iKj:_Array_InternalArray__IndexOf_TisLink_t544317964_m455584088_gshared
_pl:_Enumerator_get_Current_m2282646120_AdjustorThunk
Vsk:_ReadOnlyCollection_1_IndexOf_m2539022912_gshared
w3g:__ZL66Selectable_t3250028441_CustomAttributesCacheGenerator_m_TransitionP21CustomAttributesCache
qQm:__ZN6il2cpp2os6Memory12AlignedAllocEjj
ihd:__ZN9JSONWrite8TransferI13dynamic_arrayIN4math12int3_storageELj0EEEEvRT_PKc17TransferMetaFlags
g3h:_Text_set_alignByGeometry_m3828822280
RJm:__ZN6il2cpp8metadataL7CompareEPK10Il2CppTypeS3_
K3h:_HybridDictionary__ctor_m1681134385
cTa:__ZN21ScalableBufferManager11GetInstanceEv
YZb:__Z18Transfer_BlittableI18StreamedBinaryReadILb0EELb1E10ColorRGBAfEvRK29SerializationCommandArgumentsR31RuntimeSerializationCommandInfo
Uek:_TimeSpan_op_LessThan_m1594498345
fMc:__ZL27GetComponentsImplementationILb0ELi0EEbR10GameObjectbRK17CompareParametersRK39GetComponentsImplementation_ReturnValue
O1b:__ZN9Scripting36IsSystemCollectionsGenericDictionaryE17ScriptingClassPtr
ZDk:_UnityEvent_1_FindMethod_Impl_m322741469_gshared
lje:__ZN5physx12NpConstraint12actorDeletedEPNS_12PxRigidActorE
KFh:_Enumerator_get_Current_m2591725252
Aua:__ZL16ReadTypeTreeImplILb0EEbR8TypeTreeRK16TypeTreeIteratorRPKhS6_i
Wdi:_Interval_Contains_m110351300_AdjustorThunk
ovj:_Convert_ToInt32_m3048308591
gF:__ZN25RuntimeAnimatorControllerD2Ev
Izj:_DateTimeOffset_Equals_m3030958070
Z1d:__ZN5physx2Sc8ShapeSim18reinsertBroadPhaseEv
k1a:__ZNK22BuiltinResourceManager21GetResourceInstanceIDEPKN5Unity4TypeERKN4core12basic_stringIcNS4_20StringStorageDefaultIcEEEE
ANc:__Z42Register_UnityEngine_RectOffset_set_bottomv
DQl:_AnalyticsTracker_BuildParameters_m43920649
vej:_DateTimeFormatInfo_GetMonthName_m2034512315
Zmc:__ZN28LightProbeProxyVolumeContext8CopyFromERKS_
Gtk:_ReadOnlyCollection_1_System_Collections_Generic_IListU3CTU3E_Insert_m2489506856_gshared
jSa:__ZN23TransformChangeDispatch32QueueTransformChangeIfHasChangedER18TransformHierarchy
KOj:_SimpleCollator_ToDashTypeValue_m6184468
NXk:__Z105RuntimeInvoker_RuntimeObject_Vector3_t3722313464_Vector3_t3722313464_Single_t1397266774_Int32_t2950945753PFvvEPK10MethodInfoPvPS4_
Udc:__ZN7ApiGLES18DeleteRenderbufferERj
H5d:__ZN5physx6shdfnd5ArrayIPvNS0_15InlineAllocatorILj256ENS0_19ReflectionAllocatorINS_16NpConnectorArrayEEEEEE15growAndPushBackERKS2_
ddc:__ZL23ProgramUniformMatrix4fvPK7ApiGLESjiihPKv
f7b:__ZN7ApiGLES13CreateTextureEjj14GraphicsFormatiiiii
M2i:_Array_new_gap_m262136975
oXe:__ZN5physx14SingleAABBTaskC2Ev
_Ec:__ZN9ShaderLab20SerializedSubProgram15MatrixParameter8TransferI14SafeBinaryReadEEvRT_
Tfb:__ZN4core8hash_mapIiN28ReflectionProbeAnchorManager16CachedAnchorDataENS_4hashIiEENSt3__28equal_toIiEEEixERKi
hDf:__Z46Register_UnityEngine_Canvas_set_sortingLayerIDv
hMc:__ZL27GetComponentsImplementationILb0ELi1EEbR10GameObjectbRK17CompareParametersRK39GetComponentsImplementation_ReturnValue
Z9h:_X509Store__ctor_m275383717
ZEh:_Transform_INTERNAL_get_position_m1310184257
$cm:__ZN6il2cpp2vm13MetadataCache40AddThreadLocalStaticOffsetForFieldLockedEP9FieldInfoiRKNS_2os12FastAutoLockE
Ucf:__ZN5physx12storeIndicesEjjPKjRNS_14PxOutputStreamEb
CUa:__ZN13RenderTexture7ReleaseEv
Dhd:__Z18Transfer_BlittableI8JSONReadLb1EN4math12int3_storageEEvRK29SerializationCommandArgumentsR31RuntimeSerializationCommandInfo
ulb:__ZN10MeshFilter23VirtualRedirectTransferER14SafeBinaryRead
tpb:__ZN12MeshRenderer17MainThreadCleanupEv
vZc:__Z8BuildCapILb0EEvjRPhRKN4math8float4x4EPK15LineBuilderDataRKfRKNS2_7_float4ERK11ColorRGBA32SA_bRKNS2_7_float2E
F5l:__ZN6il2cpp2vmL10InitLockedEP11Il2CppClassRKNS_2os12FastAutoLockE
CQc:__Z36AsyncOperation_Get_Custom_PropIsDoneP12Il2CppObject
FKb:__ZN22CreateGpuProgramOutput12CreateParamsEv
L4:__ZN10ObjectPoolIN4FMOD7ChannelENS0_8ChannelIEE7GetFreeEi
us:__Z23ReplacePathStartReverseR13dynamic_arrayIyLj0EEPKyi
dD:__ZL62__ManagedRegistrationHelperFunction_AnimatorOverrideControllerPv
Stk:_ReadOnlyCollection_1_System_Collections_IList_Insert_m177536056_gshared
cge:__ZNK5physx18NpArticulationLink11getChildrenEPPNS_18PxArticulationLinkEj
Nji:_InternalEnumerator_1_System_Collections_IEnumerator_get_Current_m548105685_gshared
dbc:__ZNK14GfxContextGLES13GetDefaultFBOEv
N4i:_Byte_System_IConvertible_ToType_m2251112646
Ww:__ZN22NavMeshProjectSettings8TransferI18StreamedBinaryReadILb0EEEEvRT_
F6c:__Z55Register_UnityEngine_MonoBehaviour_StopCoroutineManagedv
vZk:__Z81RuntimeInvoker_Char_t3634460470_RuntimeObject_Int32_t2950945753_Int16_t2552820387PFvvEPK10MethodInfoPvPS4_
gdd:__GLOBAL__sub_I_artifacts_WebGL_codegenerator_0_cpp_3254
J3e:__Z15atomIntegrationfPKPN5physx11PxsBodyCoreEPKPNS_12PxsRigidBodyEjPKNS_2Cm13SpatialVectorEPNS_13PxcSolverBodyEPNS_17PxcSolverBodyDataEPS9_RjSH_
Cyj:_DateTime_get_Hour_m4153505178_AdjustorThunk
m4b:__ZN14GraphicsHelper5ClearE13GfxClearFlagsRK10ColorRGBAffjR17ShaderPassContext
$Ri:_Evidence_Equals_m1478353107
TBe:__ZN5physx13NpRigidStatic11createShapeERKNS_10PxGeometryEPKPNS_10PxMaterialEtNS_7PxFlagsINS_11PxShapeFlag4EnumEhEE
S0c:__Z13GetImagePixelI10ColorRGBAfET_PKhii13TextureFormat15TextureWrapModeS5_ii
yjl:_List_1_System_Collections_IList_set_Item_m1842844683_gshared
O2l:_ObjectPool_1__ctor_m2535233435_gshared
rsm:__ZN6il2cpp2vm6Thread49CheckCurrentThreadForInterruptAndThrowIfNecessaryEv
Vsj:_Convert_ToChar_m3757390865
xXa:__ZNSt3__23mapIN9ShaderLab16FastPropertyNameEN18UnityPropertySheet11UnityTexEnvENS_4lessIS2_EENS_9allocatorINS_4pairIKS2_S4_EEEEEixERS9_
g7b:__ZNK13TranslateGLES25GetTextureTargetDimensionEj
J9d:__ZN5physx11NpAggregate22removeActorAndReinsertERNS_7PxActorEb
Tqk:_ReadOnlyCollection_1_System_Collections_IList_Remove_m1842121503_gshared
fbf:__ZZL19ExtractHullPolygonsRjRN5physx2Gu9ContainerERKNS0_17ConvexHullBuilderEPS2_S3_EN5Local9FloodFillES3_PKNS0_11AdjTriangleEjPb
Amj:_File_OpenRead_m2936789020
oqa:__ZN9Scripting12LogExceptionE21ScriptingExceptionPtriPKcb
JVk:__Z94RuntimeInvoker_Void_t1185182177_RuntimeObject_PlayableGraph_t3515989261_RuntimeObject_IntPtr_tPFvvEPK10MethodInfoPvPS4_
ij:_emscripten_glVertexAttrib4f
sQb:__ZN14SafeBinaryRead21TransferSTLStyleArrayI13dynamic_arrayIN4math12int3_storageELj0EEEEvRT_17TransferMetaFlags
mIc:__ZNSt3__26vectorIN20GpuProgramParameters14ConstantBufferENS_9allocatorIS2_EEE8__appendEj
Hai:_X509CertificateCollection_AddRange_m3683116910
Go:FUNCTION_TABLE_vf
Peg:_SinkProviderData__ctor_m1624738837
RYk:__Z88RuntimeInvoker_RuntimeObject_RuntimeObject_SByte_t1669577662_RuntimeObject_RuntimeObjectPFvvEPK10MethodInfoPvPS4_
rce:__ZN5physx14NpArticulation26setMaxProjectionIterationsEj
l0d:__ZN5physx3Cct15ObstacleContext14removeObstacleEj
zhh:_CustomAttributeTypedArgument_Equals_m2261980307
DK:__ZN7mecanim12statemachine24CreateStateMachineMemoryEPKNS0_20StateMachineConstantERNS_6memory9AllocatorE
QHb:__ZN9GfxDevice18SetGlobalDepthBiasEff
mfm:__ZN6il2cpp6icalls8mscorlib6System8MonoType12get_AssemblyEP20Il2CppReflectionType
tZc:__Z16BuildLineSegmentILb0EEvjRPhRKN4math8float4x4EPK15LineBuilderDataRKfSA_11ColorRGBA32
wj:_emscripten_glGetPointerv
Rbl:_Dictionary_2_Do_CopyTo_TisKeyValuePair_2_t3842366416_TisRuntimeObject_m1564656153_gshared
JP:__ZN8Animator22ApplyBuiltinRootMotionEv
oQc:__Z14BezierExtractUfff
w4b:__Z26ApplyMaterialPassWithCacheRK18SharedMaterialDataR17ShaderPassContextP6ShaderPN9ShaderLab4PassEibPKNS6_10GrabPassesEPNS6_11SubProgramsEPK22DeviceRenderStateBlock
Tgf:__ZN5physx7profile8ZoneImplINS_28PxProfileNameProviderForwardEE17handleBufferFlushEPKhj
FHg:__ZL81Camera_t4157153871_CustomAttributesCacheGenerator_Camera_RaycastTry2D_m2460696262P21CustomAttributesCache
G9d:__ZN5physx2Sc5ActorC2ERNS0_16InteractionSceneEhNS0_14IslandNodeInfo4TypeE
jdh:_MulticastDelegate_KPM_m22863605
tni:_InternalEnumerator_1_get_Current_m1897120917_AdjustorThunk
Ich:_MonoType_ReorderParamArrayArguments_m2458683451
JKh:_FormatterConverter_ToInt16_m4282804414
RNk:__Z81RuntimeInvoker_Void_t1185182177_Int64_t3736567304_RuntimeObject_Int64_t3736567304PFvvEPK10MethodInfoPvPS4_
VWf:_StandaloneInputModule_ProcessTouchPress_m4019232747
wmj:_FileStream__ctor_m3151488352
L2i:_Array_swap_m547389985
jue:__ZN5physx15NpActorTemplateINS_7PxClothEED2Ev
vik:_UInt32_ToString_m2420423038
Gy:__ZNSt3__27__sort5IR17DetailNodeXSorterP16DetailMeshBVNodeEEjT0_S5_S5_S5_S5_T_
_mj:_FileStream_get_Length_m426703983
p$c:__Z13RegisterClassI10TagManagerEvPKc
Ose:__ZN5physx2Sc9ClothCore16setRestPositionsEPKNS_6PxVec4E
a9e:__ZN5physx2Gu12TriangleMesh4loadERNS_13PxInputStreamE
QDd:__ZL17DrawMeshParticlesILb0EL25ParticleSystemRenderSpace2EEvRK26ParticleSystemTempMeshDataRK22ParticleSystemTempDataRK23ParticleSystemParticlesRK31ParticleSystemParticlesTempDataRK26ParticleSystemRendererDataRK21ParticleSystemModulesPfPv
Q8:__ZN18AudioMixerSnapshot8TransferI24GenerateTypeTreeTransferEEvRT_
j3:__ZN12AudioManager5ResetEv
$Gg:__ZL68DisallowMultipleComponent_t1422053217_CustomAttributesCacheGeneratorP21CustomAttributesCache
_Ca:__ZN6prcoreL17RemapGenericFloatI17TexFormatRGBAHalf15TexFormatRGHalfEEvPKNS_9InnerInfoE
GGm:__ZN6il2cpp6icalls8mscorlib6System11Environment20GetWindowsFolderPathEi
irf:_UNITY_FT_Stream_ReadFields
rJ:__ZN7mecanim5human18HumanPoseBlendNodeERNS0_9HumanPoseEPS1_f
Gqf:_UNITY_FT_RoundFix
VId:__ZN9Scripting11UnityEngine19PhysicsJobOptions2D12CleanupProxyEv
lNm:_GC_is_heap_ptr
uU:__Z14resize_trimmedINSt3__26vectorI24CompressedAnimationCurve13stl_allocatorIS2_L18MemLabelIdentifier26ELi16EEEEEvRT_j
VOd:__ZNK5physx2Gu15HeightFieldUtil12traceSegmentI24ConvexVsHeightfieldSweepLb0ELb0ELb1EEEvRKNS_6PxVec3ES6_PT_PS5_
ERj:_ASN1_DecodeTLV_m1200977460
$rh:_UnityEventBase_PrepareInvoke_m1785382128
T7e:__ZNK5physx12PxConvexMesh19getConcreteTypeNameEv
Ktk:_ReadOnlyCollection_1_System_Collections_Generic_IListU3CTU3E_set_Item_m1584697503_gshared
vpb:__ZNK12MeshRenderer22GetTypeVirtualInternalEv
g6i:_Char_System_IConvertible_ToUInt32_m3901815580
A_h:_Scrollbar_set_onValueChanged_m346467699
XPd:__ZN5physx2Gu19gjkLocalPenetrationINS0_9TriangleVENS0_17ShrunkConvexHullVEEEjRKT_RKT0_RKNS_6shdfnd3aos6FloatVERNSB_5Vec3VESG_SG_RSC_PhSI_Rhb
pQk:__Z157RuntimeInvoker_Int32_t2950945753_RuntimeObject_Int32_t2950945753_Int32_t2950945753_Int32_t2950945753_SByte_t1669577662_SByte_t1669577662_Int32U26_t1369213839PFvvEPK10MethodInfoPvPS4_
g6:__ZN4FMOD6System17setSoftwareFormatEi17FMOD_SOUND_FORMATii18FMOD_DSP_RESAMPLER
iSd:__ZN5physx2Gu15GJKLocalRayCastERNS0_9TriangleVERNS0_4BoxVERKNS_6shdfnd3aos6FloatVERKNS6_5Vec3VESC_RS7_RSA_SE_fb
X1d:__ZN5physx2Sc13ShapeIterator4initERKNS0_8ActorSimE
f7a:__ZN14SafeBinaryRead19TransferSTLStyleMapINSt3__23mapIN4core12basic_stringIcNS3_20StringStorageDefaultIcEEEES7_NS1_4lessIS7_EE13stl_allocatorINS1_4pairIKS7_S7_EEL18MemLabelIdentifier1ELi16EEEEEEvRT_17TransferMetaFlags
NC:__ZL49__ManagedRegistrationHelperFunction_AimConstraintPv
hGf:__ZN2UI6Canvas27UpdateEventIndexesRecursiveERi
yha:__ZN11UnityEngine15CloudWebService16SessionContainer21PrepareDataErrorEventERN4core12basic_stringIcNS2_20StringStorageDefaultIcEEEE
jUf:_ExecuteEvents_get_pointerUpHandler_m3515704212
a7i:_ArrayList_set_Item_m2003485935
wcg:_SatelliteContractVersionAttribute__ctor_m3630863995
As:__ZNK12NavMeshQuery9GetUpAxisEyP8Vector3f
cWf:_MouseButtonEventData_PressedThisFrame_m1060658845
ZVb:__Z19TransferField_ArrayI19StreamedBinaryWriteILb0EE27Converter_SimpleNativeClassI8GUIStyleEEvRK23StaticTransferFieldInfoR31RuntimeSerializationCommandInfoRT0_
lrk:_ReadOnlyCollection_1_System_Collections_Generic_IListU3CTU3E_RemoveAt_m3969985996_gshared
Pne:__ZN5physx14NpArticulationC2Ev
MZa:__Z28BuildSingleStreamChannelInfoP11ChannelInfo17ShaderChannelMaskS1_
t0a:__ZN24GenerateTypeTreeTransfer8TransferI13dynamic_arrayI8Vector3fLj0EEEEvRT_PKc17TransferMetaFlags
cxh:_PlayerConnection_get_isConnected_m911966057
X2f:_GraphicRegistry_GetGraphicsForCanvas_m4219276355
wB:__ZNK12NavMeshQuery19GetPolyWallSegmentsEyPK11QueryFilterP8Vector3fPyPii
uI:__ZL32CleanupAnimationScriptingClassesv
lEl:_PatternCompiler_MakeFlags_m1977119795
rhd:__Z35Transfer_Blittable_FixedBufferFieldI8JSONReadiEvRK29SerializationCommandArgumentsR31RuntimeSerializationCommandInfo
RCd:__ZN22ParticleSystemRenderer16UpdateCachedMeshEv
Kdm:__ZNSt3__213__vector_baseIN6il2cpp2os19SocketHandleWrapperENS_9allocatorIS3_EEED2Ev
Qng:__ZL48_Type_t3588564251_CustomAttributesCacheGeneratorP21CustomAttributesCache
cod:__ZN12LightsModule8TransferI24GenerateTypeTreeTransferEEvRT_
Rfb:__ZN28ReflectionProbeAnchorManager18RemoveCachedAnchorERK4PPtrI9TransformE
zc:invoke_viiffi
bzc:__ZN13sorted_vectorINSt3__24pairIN4core12basic_stringIcNS2_20StringStorageDefaultIcEEEEPK17MessageIdentifierEEN10vector_mapIS6_S9_NS0_4lessIS6_EENS0_9allocatorISA_EEE13value_compareESF_E10insert_oneERKSA_
pcg:_ResourceSet_ReadResources_m3663669011
YXa:__ZL13MeshExtractorPv16VertexInputMasksiR11MeshBuffersR16DrawBuffersRangeRiS5_
hbb:__ZNK12CubemapArray20GetRuntimeMemorySizeEv
WFc:__Z14resize_trimmedINSt3__26vectorIN9ShaderLab18SerializedPropertyENS0_9allocatorIS3_EEEEEvRT_j
iFd:__Z20UpdateWholeSheet2TplIL27ParticleSystemCurveEvalMode3ELS0_3EEvfRK11MinMaxCurveS3_RK23ParticleSystemParticlesPf
aFe:__ZN5physx6shdfnd8PoolBaseINS_2Sc9ActorPairENS0_19ReflectionAllocatorIS3_EEE12allocateSlabEv
mbm:__ZN6il2cpp2vm13MetadataCache38GetMethodInfoFromMethodDefinitionIndexEi
WSf:_EventSystem_set_current_m38955169
s6c:__Z39MonoBehaviour_CUSTOM_GetScriptClassNameP12Il2CppObject
u3g:__ZL53Selectable_t3250028441_CustomAttributesCacheGeneratorP21CustomAttributesCache
mDl:_CostDelegate_EndInvoke_m2797921932
rib:__ZN10VertexData8TransferI24GenerateTypeTreeTransferEEvRT_
npb:__ZN19SkinnedMeshRenderer16UpdateCachedMeshEv
ZNl:_PlayerHealth_TakeDamage_m257697969
ysj:_Double_IsInfinity_m820013146
WGm:__ZN13Il2CppHashMapIPK19Il2CppGenericMethodP10MethodInfoN6il2cpp8metadata23Il2CppGenericMethodHashENS6_26Il2CppGenericMethodCompareENSt3__29allocatorINS9_4pairIK10KeyWrapperIS2_ES4_EEEEEC2EjRKS7_RKS8_
$Ch:_Screen_get_dpi_m495672463
bbk:_UTF8Encoding_InternalGetByteCount_m2120178851
Atc:__ZL10CullLightsRK22SceneCullingParametersR11CullResults
txj:_Convert_ToUInt64_m3170916409
yK:__ZN7mecanim12statemachine20GetBlendTreeConstantERKNS0_13StateConstantEi
dGe:__ZN5physx7NpScene21setDominanceGroupPairEhhRKNS_20PxDominanceGroupPairE
Hjj:_Int64_System_IConvertible_ToInt16_m4062196970_AdjustorThunk
ddh:_MonoType_GetGenericTypeDefinition_m3201894896
HOc:__Z40GetTemporaryCachePathApplicationSpecificv
rGb:__ZN9GfxDevice16EndAsyncJobFrameEv
y_k:__Z99RuntimeInvoker_Int32_t2950945753_Ray_t3785851493_RuntimeObject_Single_t1397266774_Int32_t2950945753PFvvEPK10MethodInfoPvPS4_
rtf:_UNITY_tt_face_load_hhea
u6:__ZN12AudioManager27InitialCompleteDomainReloadEv
ul:___syscall3
xl:___syscall6
zl:___syscall4
xia:__ZN11UnityEngine15CloudWebService20WebRequestRestClient17GetResponseStatusEv
Jjg:_ReturnMessage__ctor_m2352989078
nFb:__ZNSt3__26__treeINS_12__value_typeIN4core12basic_stringIcNS2_20StringStorageDefaultIcEEEEPN16MemoryFileSystem4NodeEEENS_19__map_value_compareIS6_SA_NS_4lessIS6_EELb1EEE13stl_allocatorISA_L18MemLabelIdentifier55ELi16EEE7destroyEPNS_11__tree_nodeISA_PvEE
fEm:__ZNK15dense_hashtableINSt3__24pairIK10KeyWrapperIPcES3_EES4_N6il2cpp5utils15PassThroughHashIS3_EEN14dense_hash_mapIS4_S3_SA_NS4_14EqualsComparerINS0_8equal_toIS3_EEEENS0_9allocatorIS6_EEE9SelectKeyESF_SH_E5beginEv
MWk:__Z67RuntimeInvoker_Boolean_t97287965_TextGenerationSettings_t1351628751PFvvEPK10MethodInfoPvPS4_
MCm:__ZN6il2cpp2vm3RCW14QueryInterfaceILb1EEEP14Il2CppIUnknownP15Il2CppComObjectRK10Il2CppGuid
rJi:_TlsServerCertificateRequest__ctor_m1334974076
OHd:__ZN27PerformanceReportingManager23VirtualRedirectTransferER14SafeBinaryRead
rvj:_Convert_ToInt32_m1613163543
fJa:__ZN9Scripting11UnityEngine9Playables8Playable12CleanupProxyEv
Lqk:_ReadOnlyCollection_1_System_Collections_ICollection_CopyTo_m3127175806_gshared
Ol:_emscripten_glShaderBinary
zSi:_String_op_Inequality_m215368492
Chk:_UInt16_ToString_m760649087
mBb:__ZNK20LocalFileSystemPosix6ExistsERK13FileEntryData
M7d:__ZN5physx35NpArticulationJointGetBodiesFromScbERNS_3Scb17ArticulationJointERPNS0_4BodyES5_
n7e:__ZNK5physx2Sc15ClothFabricCore16getTetherLengthsEPfj
Soh:_Camera_GetAllCameras_m668492922
Mvf:_UNITY_TT_Get_HMetrics
Tek:_TimeSpan_op_Inequality_m2467851530
CYb:__ZN17AnimationCurveTplIfE8TransferI18StreamedBinaryReadILb1EEEEvRT_
Sal:_Array_Sort_TisUIVertex_t4057497605_m3996333845_gshared
HNh:_SByte_System_IConvertible_ToDouble_m2381680501
d3i:_Swapper_BeginInvoke_m1688449973
Fqh:_Display_get_renderingWidth_m1970428952
UKe:__ZN5physx2Sc13ConstraintSim8getForceERNS_6PxVec3ES3_
VRk:__Z81RuntimeInvoker_Void_t1185182177_RuntimeObject_Int32_t2950945753_Int64_t3736567304PFvvEPK10MethodInfoPvPS4_
BVc:__Z15GetChannelIndexRK14BlendShapeDataj
TZ:__ZN7mecanim5human5HumanC2Ev
W$:__ZNSt3__26vectorIN4core12basic_stringIcNS1_20StringStorageDefaultIcEEEE13stl_allocatorIS5_L18MemLabelIdentifier1ELi16EEE21__push_back_slow_pathIS5_EEvOT_
Qvd:__Z25UpdateOrbitalAndRadialTplIL27ParticleSystemCurveEvalMode4ELS0_3ELS0_2EEvRK11MinMaxCurveS3_S3_S3_S3_S3_S3_R23ParticleSystemParticlesjjRKN4math8float3x3ERKNS6_7affineXERKNS6_7_float4E
xWd:__ZN5physx15PxGeometryQuery18computePenetrationERNS_6PxVec3ERfRKNS_10PxGeometryERKNS_11PxTransformES6_S9_
ZEk:_IndexedSet_1_IndexOf_m241693686_gshared
gx:__ZNK12NavMeshQuery14RetracePortalsEiiPKyiRK8Vector3fPS2_PhPyi
mE:__ZN9Scripting11UnityEngine14AnimationEvent9InitProxyEv
pKf:__ZN11UnityEngine15PlatformWrapper30GetGraphicsDriverLibraryStringEv
oNh:_RuntimeMethodHandle_Equals_m3301340296_AdjustorThunk
Tik:_UInt64_System_IConvertible_ToSingle_m925613075_AdjustorThunk
Kif:__ZN5Unity12PhysicsQueryC2Ev
ZZb:__Z18Transfer_BlittableI18StreamedBinaryReadILb0EELb0E4AABBEvRK29SerializationCommandArgumentsR31RuntimeSerializationCommandInfo
Otb:__ZN24GenerateTypeTreeTransfer19TransferSTLStyleMapINSt3__28multimapIN4core12basic_stringIcNS3_20StringStorageDefaultIcEEEE4PPtrI6ObjectENS1_4lessIS7_EE13stl_allocatorINS1_4pairIKS7_SA_EEL18MemLabelIdentifier52ELi16EEEEEEvRT_17TransferMetaFlags
sE:__ZN16MecanimAnimation24DeleteAnimatedPropertiesERP26IAnimatedPropertyEvaluator
H$l:_CanvasRenderer_SetMaterial_m824577244
Qnd:__ZN11ColorModule8TransferI24GenerateTypeTreeTransferEEvRT_
vjc:__Z14DrawGUITextureRK5RectTIfEP7Texture11ColorRGBA32P8Materiali
X5a:__ZNK15PlayableMethods18InvokeProcessFrameER18ScriptingObjectPtrRK9HPlayableP18ScriptingFrameDataRK9FrameData
sO:__ZN9BlobWrite8TransferI22OffsetPtrArrayTransferIKN4math7_float4EEEEvRT_PKc17TransferMetaFlags
GFh:_Transform_IsChildOf_m224006092
Z4a:__ZN15TextureSettings8TransferI24GenerateTypeTreeTransferEEvRT_
ahd:__ZN9JSONWrite8TransferI4AABBEEvRT_PKc17TransferMetaFlags
QVh:_LayoutElement_set_preferredHeight_m1999633022
ZDc:__ZN15dense_hashtableINSt3__24pairIKiN4core17string_with_labelILi1EEEEEi18SInt32HashFunctionN14dense_hash_mapIiS5_S7_NS0_8equal_toIiEE13stl_allocatorIS6_L18MemLabelIdentifier1ELi16EEE9SelectKeyESA_SD_E12expand_arrayEjN21dense_hash_map_traits17integral_constantIbLb0EEE
xRc:__Z13RegisterClassI15QualitySettingsEvPKc
Vli:_InternalEnumerator_1_get_Current_m3191242573_AdjustorThunk
u4e:__ZNK18ScBeforeSolverTask7getNameEv
cC:__ZN13ConstraintJob17ConstraintJobDataD2Ev
Mwd:__Z25UpdateOrbitalAndRadialTplIL27ParticleSystemCurveEvalMode2ELS0_1ELS0_2EEvRK11MinMaxCurveS3_S3_S3_S3_S3_S3_R23ParticleSystemParticlesjjRKN4math8float3x3ERKNS6_7affineXERKNS6_7_float4E
Zy:__ZN12CrowdManager11AddObstacleEv
aNl:_Aes__ctor_m178909601
Jbb:__ZNK9Texture2D20GetRuntimeMemorySizeEv
p0:__ZN11Marshalling39CreateNullExceptionForUnityEngineObjectE18ScriptingObjectPtr
ETe:__ZN5physx14solve1D4_BlockEPKNS_23PxcSolverConstraintDescEjRNS_16PxcSolverContextE
Dkd:__ZN5Unity9rapidjson13GenericReaderINS0_4UTF8IcEES3_13JSONAllocatorE9ParseTrueILj0ENS0_19GenericStringStreamIS3_EENS0_15GenericDocumentIS3_S4_S4_EEEEvRT0_RT1_
Xm:_emscripten_glUniform2iv
WWd:__ZL33GeomMTDCallback_ConvexHeightFieldRN5physx6PxVec3ERfRKNS_10PxGeometryERKNS_11PxTransformES5_S8_
qFa:__ZL46__ManagedRegistrationHelperFunction_ColorGamutPv
V9j:_UnicodeEncoding_CopyChars_m785272451
Amf:_UNITY_FT_Outline_Transform
RKc:__Z60Register_UnityEngine_Sprites_DataUtility_Internal_GetMinSizev
g6l:__ZN6il2cpp2vm5Class10GetMethodsEP11Il2CppClassPPv
fpc:__Z30AddDefaultStreamsToMeshBuffersR9GfxDeviceR11MeshBuffersRK16DrawBuffersRange17ShaderChannelMaskS6_
vdc:__ZN7ApiGLES17DeleteFramebufferERN2gl6HandleILNS0_10ObjectTypeE9EEES3_
Ofc:__ZN15UniformTFMethod13MapBoneBufferEj
aBf:__ZN2UI14CanvasRendererD2Ev
sdl:_Array_InternalArray__get_Item_TisParameterModifier_t1461694466_m29553316_gshared
Zjj:_Int64_CompareTo_m1928360444_AdjustorThunk
KYe:__ZN5physx26PxcPCMContactCapsuleConvexERKNS_2Gu13GeometryUnionES3_RKNS_11PxTransformES6_RKfRNS_10PxcNpCacheERNS0_13ContactBufferE
Hoe:__ZNK5physx7NpShape16getContactOffsetEv
m3b:__Z9SetupArgviPPKc
Mvj:_Convert_ToInt64_m2075031821
azd:__Z15GetPositionMeshIL20MeshDistributionMode0ELb0E11ColorRGBA32EvRN4math8floatNx3ES4_RNS2_4pix4ERK13dynamic_arrayIS1_Lj0EERK14StrideIteratorI8Vector3fESF_RKSB_I8Vector2fERKSB_IT1_ERKS7_I16MeshTriangleDataLj0EERKS7_I11MeshAreaLUTLj0EERKfRKiSX_RK16ShapeTextureDataR5RandNP12SkinMeshInfo
jef:__Z57Register_UnityEngine_Rigidbody_INTERNAL_CALL_MoveRotationv
iQl:_AnalyticsEventTracker_OnDisable_m1553012800
G3m:_glTexParameteri__wrapper
Kae:__ZN5physx10PxsContext17addParticleSystemEPNS_15PxsParticleDataERKNS_26PxvParticleSystemParameterEb
G8d:__ZN5physx3Scb5Scene13addRigidNoSimINS0_4BodyELb1ELb1EEEvRT_RNS0_13ObjectTrackerE
lbb:__ZN12CubemapArray23VirtualRedirectTransferER24GenerateTypeTreeTransfer
wFa:__ZL49__ManagedRegistrationHelperFunction_RenderTexturePv
qRd:__ZL19sweepBoxVsTrianglesjPKN5physx10PxTriangleERKNS_2Gu3BoxERKNS_6PxVec3EfRNS_10PxSweepHitENS_7PxFlagsINS_9PxHitFlag4EnumEtEEbPKj
gSa:__ZN23TransformChangeDispatch32QueueTransformChangeIfHasChangedERK15TransformAccess
_ef:_PxCreateCooking
QTd:__ZN9Rigidbody18AddForceAtPositionERK8Vector3fS2_i
n2:__ZN15AudioMixerGroupD0Ev
Zfh:_Assembly_get_FullName_m293988418
kLf:__ZN22BaseUnityConnectClientD0Ev
uoh:_Camera_get_pixelRect_Injected_m2326986893
jAk:__ZN28GenericInterfaceFuncInvoker1Ib19Color32_t2600501292E6InvokeEPK10MethodInfoP12Il2CppObjectS0_
B:tempValue
aRm:__ZN6il2cpp8metadata24Il2CppGenericContextHash4HashEPK20Il2CppGenericContext
Bli:_InternalEnumerator_1_get_Current_m356936020_AdjustorThunk
dkc:__ZN6Camera21RenderODSWorldTextureERK11CullResultsRK19SharedRendererSceneR17ShaderPassContextNS_10RenderFlagE
VJ:__ZN27AnimationLayerMixerPlayable16ProcessAnimationEP35AnimationPlayableEvaluationConstantP32AnimationPlayableEvaluationInputP33AnimationPlayableEvaluationOutput
Rqa:__Z29scripting_class_from_fullnamePKcS0_S0_
Vlj:_Directory_GetCurrentDirectory_m219218555
BFh:_Transform_TransformDirection_m3784028109
z$i:_SmallXmlParser_UnexpectedEndError_m1914362401
ir:__ZN12NavMeshAgent23VirtualRedirectTransferER24GenerateTypeTreeTransfer
XK:__ZN26AnimatorControllerPlayable18DeallocateBindingsEv
aXd:__ZN5physx2Gu29ConvexVsMeshContactGeneration20generateLastContactsEv
BXk:__Z85RuntimeInvoker_Boolean_t97287965_Ray_t3785851493_Single_t1397266774_Int32_t2950945753PFvvEPK10MethodInfoPvPS4_
fKb:__ZN14DelayedDeletorI15dense_hashtableINSt3__24pairIK9TextureIDiEES3_14GfxGenericHashIS3_EN14GfxDoubleCacheIS3_iS7_NS1_8equal_toIS3_EEN31GfxDoubleCacheConcurrencyPolicy11LocklessGetE42GfxDoubleCacheDefaultEmptyDeletedGeneratorIS3_EE9SelectKeyESA_13stl_allocatorIS5_L18MemLabelIdentifier24ELi16EEEEclEv
Gaa:__ZN11AudioSource19CreateOpenALRolloffEfff
ltf:_UNITY_FT_Stream_ReadAt
Pve:__ZN5physx2Sc17ParticleSystemSim16getParticleStateEv
nUl:_AudioSampleProvider_Dispose_m1993565764
r3l:_Physics_Raycast_m3336206959
A3e:__ZN5physx6shdfnd5ArrayINS_25PxsCompoundContactManagerENS0_19ReflectionAllocatorIS2_EEE8recreateEj
Sdk:_TimeSpan__ctor_m1896986612_AdjustorThunk
vam:__ZN15dense_hashtableINSt3__24pairIK10KeyWrapperIN6il2cpp5utils13dynamic_arrayIPK10Il2CppTypeLj4EEEEPFvvEEESA_NS3_8metadata19Il2CppSignatureHashEN14dense_hash_mapISA_SD_SG_NSA_14EqualsComparerINSF_22Il2CppSignatureCompareEEENS0_9allocatorISE_EEE9SelectKeyESK_SM_E9set_valueEPSE_RKSE_
BZi:_ArgumentException__ctor_m1216717135
hAh:_Ray_ToString_m1732834890_AdjustorThunk
HFd:__Z19UpdateSingleRow2TplIL27ParticleSystemCurveEvalMode3ELS0_1EEvfRK11MinMaxCurveS3_RK23ParticleSystemParticlesPfbiii
Qgd:__ZN9JSONWrite8TransferI13dynamic_arrayI5RectTIfELj0EEEEvRT_PKc17TransferMetaFlags
ojl:_List_1_System_Collections_IList_Contains_m3860993176_gshared
wWe:__ZN5physx14PxsAABBManagerC2ERNS_2Cm13EventProfilerERNS_19PxcScratchAllocatorE
sea:__ZN11AudioModule22CreateAudioClipFromWWWEP10IWWWStreamPKcbbi
mUc:__ZN9Texture2DC2E10MemLabelId18ObjectCreationMode
G6b:__Z17DebugStringToFileIA59_cEvRKT_iPKci15LogMessageFlagsiiPFvRK11CppLogEntryE
bMh:_ObjectRecord_get_IsUnsolvedObjectReference_m1163921033
Ghk:_UInt32_System_IConvertible_ToBoolean_m1763673183_AdjustorThunk
Vrh:_UnityEvent_AddListener_m2276267359
OA:__Z9SetLocalR15TransformAccessRKN4math7_float4Ey
v2a:__ZN6prcoreL11inner_clearILj4EEEvPhjjj
Pf:_emscripten_glClear
z8:__ZN5audio5mixer18AudioMixerConstant8TransferI19StreamedBinaryWriteILb0EEEEvRT_
o4l:_NativeTypeAttribute__ctor_m1677513894
Hla:__GLOBAL__sub_I_Runtime_SceneManager_0_cpp
FMm:_GC_initialize_offsets
hza:__ZNK8Playable6HandleEv
MSh:_SetPropertyUtility_SetColor_m2229203028
eta:__ZN14MessageHandler28MessageIDToMessageIdentifierEi
Wib:__ZNK11SpriteAtlas20GetRuntimeRenderDataEPK6Sprite
Llj:_FileSystemInfo__ctor_m3035148496
UIf:__ZN22BaseUnityConnectClient18QueueAppStartEventERN11UnityEngine15CloudWebService26CloudServiceEventWithParamE
Fij:_Int32_System_IConvertible_ToDecimal_m2190376994_AdjustorThunk
oHa:__ZL43__ManagedRegistrationHelperFunction_Vector4Pv
VI:__ZN7mecanim14ValueArrayCopyILb0EEEvPKNS_10ValueArrayEPS1_
Su:__ZNSt3__26vectorI15NavMeshTileData13stl_allocatorIS1_L18MemLabelIdentifier77ELi16EEEC2INS_11__wrap_iterIPS1_EEEET_SA_RKS4_PNS_9enable_ifIXaasr21__is_forward_iteratorISA_EE5valuesr16is_constructibleIS1_NS_15iterator_traitsISA_E9referenceEEE5valueEvE4typeE
w0:__Z51Register_UnityEngine_Animator_get_hasBoundPlayablesv
de:emscriptenWebGLGetUniform
mp:FUNCTION_TABLE_iiiiiiiiiii
mKl:_GUI_CallWindowDelegate_m3309453386
Erf:_cff_set_mm_blend
ITd:__ZN5physx2Gu19sweepCapsuleCapsuleERKNS0_7CapsuleES3_RKNS_6PxVec3EfRfRS4_S8_jRt
svc:__ZL10CleanUpJobP20CullingGroupsJobData
Hlj:_DirectoryInfo_get_Exists_m3142069876
yRc:__Z13RegisterClassI16LightmapSettingsEvPKc
mjc:__ZN13RenderManager15BatchModeUpdateEv
W9h:_X509Chain_get_CertificateAuthorities_m804805415
mCh:_Vector2_get_one_m738793577
X0c:__ZNK4Mesh14GetIndexFormatEv
tIf:__ZN9Scripting11UnityEngine9Analytics21AnalyticsSessionState9InitProxyEv
Phe:__ZN5physx2Sc8ActorSim24postDominanceGroupChangeEv
cCm:__ZN14dense_hash_mapI10KeyWrapperIP12Il2CppObjectEN6il2cpp2gc9CachedCCWENS4_5utils11PointerHashIS1_EENS3_14EqualsComparerINSt3__28equal_toIS2_EEEENSB_9allocatorINSB_4pairIKS3_S6_EEEEE13set_empty_keyERSH_
ve:_glVertexAttribIPointer
r9j:_StringBuilder_ToString_m3317489284
GKc:__ZNK6Sprite10GetPaddingE20SpriteRenderDataMode
Hie:__ZN5physx2Cm8PtrTable5clearERNS0_22PtrTableStorageManagerE
NGj:_Array_InternalArray__ICollection_Remove_TisUInt32_t2560061978_m733727733_gshared
DOh:_CryptographicException__ctor_m503735289
i0d:__ZN5physx3Cct15ObstacleContext7releaseEv
iTe:__ZN5physx27solveFrictionBlockWriteBackEPKNS_23PxcSolverConstraintDescEjRNS_16PxcSolverContextEPNS_25PxcThresholdStreamElementEjPi
snj:_Stream_EndRead_m1896469262
jGk:__Z93RuntimeInvoker_Boolean_t97287965_Int32_t2950945753_SByte_t1669577662_ExceptionU26_t3600731591PFvvEPK10MethodInfoPvPS4_
Omc:__ZN14qsort_internal5QSortIP15RODataDepthPassi17ROSorterDepthPassEEvT_S4_T0_T1_
Wtf:_UNITY_ft_glyphslot_alloc_bitmap
qjf:__ZN13PhysicsModule21SetAutoSyncTransformsEbb
cpk:_ReadOnlyCollection_1_System_Collections_IList_Add_m3642938800_gshared
RMi:_RSASslSignatureDeformatter_SetHashAlgorithm_m895570787
opa:__ZL36TransformAccessArray_InitializeClassPv
bCm:__ZN14dense_hash_mapI10KeyWrapperIP12Il2CppObjectEN6il2cpp2gc9CachedCCWENS4_5utils11PointerHashIS1_EENS3_14EqualsComparerINSt3__28equal_toIS2_EEEENSB_9allocatorINSB_4pairIKS3_S6_EEEEEC2EjRKS9_RKSE_
CCl:_X509CrlEntry__ctor_m4013514048
cUk:__Z87RuntimeInvoker_Color_t2555686324_Color_t2555686324_Color_t2555686324_Single_t1397266774PFvvEPK10MethodInfoPvPS4_
idf:__ZN5physx6shdfnd10Foundation19AlignCheckAllocator8allocateEjPKcS4_i
jMk:__Z95RuntimeInvoker_Void_t1185182177_RuntimeObject_RuntimeObject_SByte_t1669577662_Int32_t2950945753PFvvEPK10MethodInfoPvPS4_
L7c:__Z47Register_UnityEngine_Mesh_RecalculateBoundsImplv
EGb:__ZN9GfxDevice27UpdateComputeSkinPoseBufferEP9GfxBufferP12SkinMeshInfo
RVi:_String_LastIndexOf_m3451222878
qVm:__ZNKSt3__221__basic_string_commonILb1EE20__throw_length_errorEv
H$j:_EqualityComparer_1_System_Collections_IEqualityComparer_Equals_m245992594_gshared
Ij:_JS_SystemInfo_GetMemory
AKj:_Array_InternalArray__IndexOf_TisParameterModifier_t1461694466_m1227120810_gshared
eec:__ZN18GfxFramebufferGLES13ReadbackImageER14ImageReferenceiiiiii
Gdd:__ZN5Unity9rapidjson6WriterI16TempBufferWriterNS0_4UTF8IcEES4_13JSONAllocatorE11WriteStringEPKcj
zDa:__ZN6prcoreL12RemapGenericI17TexFormatARGB888815TexFormatRGB565EEvPKNS_9InnerInfoE
u4:__ZN4FMOD7Channel19setReverbPropertiesEPK29FMOD_REVERB_CHANNELPROPERTIES
fRl:_StandardEventPayload_GetParameters_m2672427676
Gpj:_StreamReader_Dispose_m156389394
Fsa:__ZN13MonoBehaviour22GetScriptFullClassNameEv
H_c:__ZN13ProduceHelperI11MonoManagerLb0EE7ProduceE10MemLabelId18ObjectCreationMode
Xwl:_RIPEMD160Managed_JJ_m112143231
H3e:__ZN5physx6shdfnd4sortIPNS_15PxsContactPatchENS_27SortBoundsPredicateManifoldENS0_19ReflectionAllocatorIS3_EEEEvPT_jRKT0_RKT1_j
_lc:__ZN13BatchRendererC2ER15RenderLoopStatsRK15RenderNodeQueuebb
bFb:__ZNK16MemoryFileSystem9EnumerateEPKcP19dynamic_block_arrayI13FileEntryInfoLj32EEbPPv19FileEnumerationFlag
w1b:__ZN13MonoBehaviour9CallAwakeEv
j2a:__ZN20SphericalHarmonicsL211AddWeightedERKS_f
mJk:__Z82RuntimeInvoker_RuntimeObject_Int64_t3736567304_Int64_t3736567304_Int64_t3736567304PFvvEPK10MethodInfoPvPS4_
p_h:__Z14bankers_roundff
bSb:__Z19TransferField_ArrayI17RemapPPtrTransfer27Converter_SimpleNativeClassI8GUIStyleEEvRK23StaticTransferFieldInfoR31RuntimeSerializationCommandInfoRT0_
ued:__ZN9JSONWrite8TransferI10ColorRGBAfEEvRT_PKc17TransferMetaFlags
D$d:__ZN5physx3Cct26CharacterControllerManager16createControllerERKNS_16PxControllerDescE
LNf:__ZN11UnityEngine9Analytics22EventLimitResumedEventC2EjRKN4core12basic_stringIcNS2_20StringStorageDefaultIcEEEEb
_sa:__Z25scripting_method_get_name18ScriptingMethodPtr
aNi:_SslCipherSuite_ComputeKeys_m661027754
uQb:__Z19TransferField_ArrayI14SafeBinaryRead16Converter_StringEvRK23StaticTransferFieldInfoR31RuntimeSerializationCommandInfoRT0_
Txh:_Object_set_name_m291480324
Csd:__ZN14ParticleSystem17SimulateParticlesER24ParticleSystemUpdateDataR23ParticleSystemParticlesjRKfPj
uBj:_Decimal_Equals_m2486655999
MOl:_GameManager_set_Instance_m3367565923
qT:__ZN7mecanim9animation9DenseClip8TransferI14SafeBinaryReadEEvRT_
UDd:__ZL24GenerateParticleGeometryIL24ParticleSystemRenderMode0ELb1ELb1EL25ParticleSystemRenderSpace4EEvPfRK22ParticleSystemTempDataRK26ParticleSystemRendererDataRK21ParticleSystemModulesRK23ParticleSystemParticlesRK31ParticleSystemParticlesTempData
Gxk:__ZN16VirtFuncInvoker2Ii19Color32_t2600501292S0_E6InvokeEjP12Il2CppObjectS0_S0_
fqc:__Z34SetupObjectBakedOcclusionInForwardbRK15SharedLightDataRK26SharedLightmapSettingsDataRK15LightmapIndicesR17ShaderPassContext
zSj:_DSAManaged_get_Random_m923751780
spa:__ZL29TransformAccessChangeCallbackPK15TransformAccessj
yHd:__ZN10SizeModuleC2E10MemLabelId
LGh:_Vector3_set_Item_m1772472431_AdjustorThunk
Pci:_Interpreter_PopulateGroup_m4042796257
vOf:__ZN9Scripting11UnityEngine10Networking18CertificateHandler9InitProxyEv
iRf:__ZN9Scripting11UnityEngine12Experimental2XR13TrackableType9InitProxyEv
$fk:_Type_GetProperty_m3414567179
exm:__ZN6il2cpp2vm13LivenessState25FieldCanContainReferencesEP9FieldInfo
vzc:__ZNSt3__26vectorINS_4pairIN4core12basic_stringIcNS2_20StringStorageDefaultIcEEEES6_EE13stl_allocatorIS7_L18MemLabelIdentifier38ELi16EEE6insertENS_11__wrap_iterIPKS7_EERSD_
Hsh:_RenderPipelineManager_DoRenderLoop_Internal_m3799666479
jO:__ZN9BlobWrite8TransferI22OffsetPtrArrayTransferI9OffsetPtrIN7mecanim12statemachine18StateMachineMemoryEEEEEvRT_PKc17TransferMetaFlags
sPm:__ZN6il2cpp2os12Cryptography23GetCryptographyProviderEv
s_c:__Z13RegisterClassI14PlayerSettingsEvPKc
Gf:_emscripten_glStencilOpSeparate
Jvl:_Collection_1_System_Collections_IList_IndexOf_m3894953546_gshared
gOi:_RSACryptoServiceProvider_OnKeyGenerated_m863837376
OAl:_PKCS12_get_Certificates_m26161562
x4h:_NameObjectCollectionBase_Init_m2525481323
epc:__ZN15SkyboxGenerator28GetCubemapSkyboxVertexFormatEv
pJb:__ZN19ShaderPropertySheet24SetTextureWithExplicitIDERK23FastTexturePropertyNameP7Texture9TextureID
E7j:_List_1_Insert_m1582252370_gshared
sIm:__ZN6il2cpp2vm6String8NewUtf16EPKDsi
ANh:_SByte_System_IConvertible_ToByte_m2268214252_AdjustorThunk
QFm:__ZN6il2cpp2os10ThreadImpl12QueueUserAPCEPFvPvES2_
SHl:_RegularExpression__ctor_m119502265
_Nf:__ZN22BaseUnityConnectClient10QueueEventERN11UnityEngine15CloudWebService17CloudServiceEventEPKcjb
irk:_ReadOnlyCollection_1_System_Collections_Generic_ICollectionU3CTU3E_Clear_m522482168_gshared
Yhg:_ConstructionCall_InitMethodProperty_m2021094586
J5c:__Z27Texture_CUSTOM_GetDataWidthP12Il2CppObject
jTd:__ZNK5physx2Gu15HeightFieldUtil12traceSegmentI25CapsuleTraceSegmentReportLb0ELb0ELb1EEEvRKNS_6PxVec3ES6_PT_PS5_
Wrd:__Z9UpdateTplIL27ParticleSystemCurveEvalMode1EEvRK11MinMaxCurveR23ParticleSystemParticlesjjbjRK8Vector2f
JXe:__ZN5physx10PxsContext23prepareCMDiscreteUpdateEPNS_10PxBaseTaskE
v4g:__ZL74CanvasScaler_t2767979955_CustomAttributesCacheGenerator_m_DefaultSpriteDPIP21CustomAttributesCache
iie:__ZN5physx6shdfnd5ArrayIPvNS0_19ReflectionAllocatorINS_2Cm5BlockIhLj256EEEEEE4copyINS0_15InlineAllocatorILj256ES7_EEEEvRKNS1_IS2_T_EE
Zf:_emscripten_glGetError
Tmm:__ZN15dense_hashtableINSt3__24pairIK10KeyWrapperIPK14Il2CppAssemblyEPK22Il2CppMonoAssemblyNameEES6_N6il2cpp5utils11PointerHashIS4_EEN14dense_hash_mapIS6_SA_SF_NS6_14EqualsComparerINS0_8equal_toIS5_EEEENS0_9allocatorISB_EEE9SelectKeyESK_SM_E14squash_deletedEv
e$i:_SmallXmlParser__ctor_m202236734
w5:__Z14FMOD_FILE_SeekPvjS_
Ole:__ZN5physx6shdfnd8PoolBaseINS_11NpAggregateENS0_19ReflectionAllocatorIS2_EEE15disposeElementsEv
e4a:__ZN7TextureC2E10MemLabelId18ObjectCreationMode
aWh:_LayoutGroup__ctor_m2162961217
xSd:__ZThn4_N16RayRTreeCallbackILi1ELb1EE14processResultsEjPj
mFf:__ZZN2UI6Canvas15InitializeClassEvEN39FunctorImpl_1449kCanvasHierarchyChanged4CallEPviR11MessageData
Dwc:__ZNK13RenderTexture32CalculateNeedsInvertedProjectionEv
Y$d:__ZN5physx2Gu17RadixSortBuffered4SortEPKfj
fg:emscriptenWebGLGet
tva:__Z19CanReplaceComponentRN5Unity9ComponentEPKNS_4TypeEPN4core12basic_stringIcNS5_20StringStorageDefaultIcEEEE
rah:_UnmanagedMemoryStream_Flush_m1540584491
Dgj:_GuidParser_ParseGuid2_m1914838819
cYc:__ZN12CubemapArray11InitTextureEiii13TextureFormatb
nab:__ZN6prcoreL18BlitIntegerToFloatERK14ImageReferenceRS0_
WAd:__ZN32CustomDataModulePropertyBindings13SetFloatValueER14ParticleSystemif
SKc:__Z17GetSceneBuildInfoRKN4core12basic_stringIcNS_20StringStorageDefaultIcEEEEiR14SceneBuildInfo
dtg:__ZL70ReliabilityContractAttribute_t502331440_CustomAttributesCacheGeneratorP21CustomAttributesCache
lgi:_InternalEnumerator_1_System_Collections_IEnumerator_get_Current_m55999184_gshared
Z1f:_Graphic_get_depth_m815589653
S4d:__ZN27ConvexVsMeshOverlapCallbackC2ERKN5physx2Gu10ConvexMeshERKNS0_11PxMeshScaleERKNS0_2Cm23FastVertex2ShapeScalingERKNS0_11PxTransformESE_bRKNS1_3BoxE
H2c:__Z18SetIParticleSystemP15IParticleSystem
zWh:_LayoutGroup_SetLayoutInputForAxis_m2458344630
SO:__ZN7mecanim5human13HumanFixTwistEPKNS0_5HumanEPNS_8skeleton13SkeletonPoseTIN4math4trsXEEES9_iiRKf
Upc:__ZL24AssignProjectorQueuesJobP30AssignProjectorQueuesJobHeader
Rag:_ParameterModifier_t1461694466_marshal_pinvoke
DIc:__ZNSt3__26vectorIN9ShaderLab20SerializedSubProgram15StructParameterENS_9allocatorIS3_EEE21__push_back_slow_pathIS3_EEvOT_
Ohj:_Int16_System_IConvertible_ToUInt32_m3410279543
qIc:__ZN9ShaderLab20SerializedSubProgram14SetConstBufferEPKci
pob:__Z22SkinVerticesGenericCPUILi2ELb1ELb0EEvPKhiiiiPhiPKvS4_
frd:__ZN11ShapeModule9ResetSeedERK27ParticleSystemReadOnlyState
Khm:__ZN6il2cpp2os4File5CloseEPNS0_10FileHandleEPi
bam:__ZNSt3__27__sort5IRN6il2cpp5utils11collections13ArrayValueMapIPK10Il2CppType17Il2CppInteropData26InteropDataToTypeConverterNS1_8metadata14Il2CppTypeLessENSA_26Il2CppTypeEqualityComparerEE12SortComparerEPS8_EEjT0_SH_SH_SH_SH_T_
Yif:__ZN13PhysicsModule17SetRigidBodyStateER9RigidbodyRKN8IPhysics14RigidBodyStateE
Uof:_cf2_getStdVW
khk:_UInt16_CompareTo_m2664746316_AdjustorThunk
AFb:__ZN9GfxDevice13SetActiveTierE12GraphicsTier
LOe:__ZN5physx2Sq12BucketPruner11shiftOriginERKNS_6PxVec3E
gjd:__Z29Transfer_Blittable_ArrayFieldI8JSONReadjEvRT_R9ArrayInfoRK23StaticTransferFieldInfo
h8d:__ZN5physx6shdfnd5ArrayIPNS_2Sc16ArticulationCoreENS0_19ReflectionAllocatorIS4_EEE15growAndPushBackERKS4_
YXk:__Z54RuntimeInvoker_Vector2_t2156229523_Vector2_t2156229523PFvvEPK10MethodInfoPvPS4_
NMm:_GC_check_finalizer_nested
Ng:__setLetterbox
ifk:_Type_FilterAttribute_impl_m2354619618
q0h:_ScrollRect_OnScroll_m3861066534
g2e:__ZN5physx19normalizePartitionsERNS_6shdfnd5ArrayIjNS0_19ReflectionAllocatorIjEEEEPNS_23PxcSolverConstraintDescEPKNS_13PxcSolverBodyEjjS5_
yFj:_Array_InternalArray__ICollection_Contains_TisResourceCacheItem_t51292791_m2991582559_gshared
dv:__ZN13HeightmapData8TransferI18StreamedBinaryReadILb0EEEEvRT_
OPg:__ZL72FormerlySerializedAsAttribute_t2859083114_CustomAttributesCacheGeneratorP21CustomAttributesCache
$Rh:_OnValidateInput_Invoke_m1009124904
VXd:__ZN18ContactCapsuleMesh20processTriangleCacheILj16EEEbRN5physx2Gu13TriangleCacheIXT_EEE
HEl:_PatternCompiler_EmitFastRepeat_m3012952683
Dmb:__ZNSt3__26vectorI17BlendShapeChannelNS_9allocatorIS1_EEE6assignINS_11__wrap_iterIPS1_EEEENS_9enable_ifIXaasr21__is_forward_iteratorIT_EE5valuesr16is_constructibleIS1_NS_15iterator_traitsISA_E9referenceEEE5valueEvE4typeESA_SA_
H6b:__Z12SetGfxDeviceP9GfxDevice
BBc:__ZN11TimeManager11GetRealtimeEv
P3d:__ZN5physx2Sc16InteractionScene25removeFromActiveActorListERNS0_5ActorE
S5:__ZN29AudioEffectInternalDefinitionC2EP26UnityAudioEffectDefinitionb
dwk:_ReadOnlyCollection_1_System_Collections_IList_Remove_m2434650390_gshared
Dhk:_UInt16_ToString_m3056878594_AdjustorThunk
Mld:__ZNK11MinMaxCurve20FindMinMaxIntegratedEv
TKd:__ZN5physx3Ext21InertiaTensorComputer6rotateERKNS_7PxMat33E
Mdi:_Interval_get_IsSingleton_m3386290029
kZc:__ZN12LineRenderer15InitializeClassEv
eqm:__ZNSt3__2plIcNS_11char_traitsIcEENS_9allocatorIcEEEENS_12basic_stringIT_T0_T1_EERKS9_PKS6_
ILf:__ZN18UnityConnectClient27OnPlayerSessionStateChangedEjyy
T9a:_stbir_resize
OJj:_Array_IndexOf_TisCustomAttributeTypedArgument_t2723150157_m3158556463_gshared
xEj:_Environment_GetOSVersionString_m407782784
NXi:_DecoderExceptionFallback_Equals_m1082173956
Jrg:__ZL69Assembly_t_CustomAttributesCacheGenerator_Assembly_GetName_m981771927P21CustomAttributesCache
VFa:__ZL59__ManagedRegistrationHelperFunction_AsyncGPUReadbackRequestPv
gJg:__ZL93Mesh_t3648964284_CustomAttributesCacheGenerator_Mesh_GetAllocArrayFromChannelImpl_m3084065604P21CustomAttributesCache
JYe:__ZN5physx23PxcPCMContactCapsuleBoxERKNS_2Gu13GeometryUnionES3_RKNS_11PxTransformES6_RKfRNS_10PxcNpCacheERNS0_13ContactBufferE
qDb:__Z37ReadDirectoryInfo_UnityWebAndUnityRawR12FileAccessorRKN20ArchiveStorageHeader6HeaderERNS1_13DirectoryInfoE
Fpa:__ZNSt3__26__treeINS_12__value_typeIPKciEENS_19__map_value_compareIS3_S4_15compare_tstringIS3_ELb1EEENS_9allocatorIS4_EEE7destroyEPNS_11__tree_nodeIS4_PvEE
j7k:_Array_InternalArray__Insert_TisIntPtr_t_m189626842_gshared
$8h:_X509Certificate2_get_IssuerName_m1277209535
wwl:_RijndaelManaged_CreateEncryptor_m263736311
Lmc:__ZN20DynamicPropertySheet14SetValueQueuedEN9ShaderLab16FastPropertyNameEN19ShaderPropertySheet12PropertyTypeEjNS2_8SetFlagsE
Arh:_InvokableCallList_ClearPersistent_m1904264973
oxd:__Z25UpdateOrbitalAndRadialTplIL27ParticleSystemCurveEvalMode3ELS0_1ELS0_2EEvRK11MinMaxCurveS3_S3_S3_S3_S3_S3_R23ParticleSystemParticlesjjRKN4math8float3x3ERKNS6_7affineXERKNS6_7_float4E
G2b:__ZN25PathNamePersistentManagerD2Ev
hub:__ZN17PersistentManager48IntegrateObjectAndUnlockIntegrationMutexInternalEi
whm:_NavMeshAgent_INTERNAL_CALL_SetDestination_m233602864
WBa:__ZZ29InitializeSortingGroupManagerPvEN44PostLateUpdateSortingGroupsUpdateRegistrator7ForwardEv
d_g:__ZL55EventTrigger_t1076084509_CustomAttributesCacheGeneratorP21CustomAttributesCache
SSi:_SecurityElement_SearchForChildByTag_m900466299
Gq:__ZN6Object12SetHideFlagsENS_9HideFlagsE
INd:__ZN9Rigidbody23VirtualRedirectTransferER14SafeBinaryRead
mwj:_Convert_ToSingle_m3227075028
w0m:_emscripten_glGetFramebufferAttachmentParameteriv__wrapper
Tvc:__ZN13RendererScene15InitializeUmbraEv
v$a:__Z28CalculateGlobalMatrixInverse23TransformAccessReadOnly
wzd:__ZN23ParticleSystemParticles17SetUsesCustomDataEi
m2j:_GenericEqualityComparer_1_Equals_m3457564127_gshared
HCi:_BigInteger_ModInverse_m2426215562
JXi:_DecoderExceptionFallback__ctor_m4044614564
bwe:__ZNK5physx15PxsParticleData15getWorldBoundsVEv
WLd:__ZN15CapsuleCollider13AwakeFromLoadE17AwakeFromLoadMode
wah:_LocalDataStoreSlot__cctor_m644942532
mZd:__ZN12_GLOBAL__N_124HfTrianglesEntityReport27onEventEjPj
_Qm:__ZN6il2cpp6icalls8mscorlib6System6Object7GetTypeEP12Il2CppObject
O9f:_MonoProperty_CachePropertyInfo_m2968057423
DOf:__ZNK25UnityWebRequestJavaScript18GetDownloadedBytesEv
fAh:_Ray_GetPoint_m1852405345_AdjustorThunk
hhe:__ZN5physx17PxsContactManager16resetCachedStateEv
POf:__ZN12HeaderHelper14SetUnvalidatedERKN4core12basic_stringIcNS0_20StringStorageDefaultIcEEEES6_b
_3:__ZN4FMOD6SoundI7releaseEv
_Ae:__ZN5physx20NpRigidActorTemplateINS_14PxRigidDynamicEE15setActorSimFlagEb
h8:__ZN5audio5mixer13GroupConstant8TransferI14SafeBinaryReadEEvRT_
vqf:_cff_parse_num
UDb:__ZN10MemoryFile9SetLengthEy
aZ:__ZN7mecanim10ValueArray8TransferI19StreamedBinaryWriteILb0EEEEvRT_
hUb:__ZN5RectTIiE8TransferI24GenerateTypeTreeTransferEEvRT_
$1b:__Z28scripting_class_is_interface17ScriptingClassPtr
ci:_glTexStorage2D
Bdj:_CultureInfo_ConstructInternalLocaleFromName_m4012802696
I6a:__ZNK9ShaderLab10SubProgram14EnsureCompiledEv
Klh:_MethodBuilder_GetGenericArguments_m1765425737
Tyj:_DateTime_CompareTo_m3687348273
CLm:_GC_push_marked
qzj:_DateTime_ToUniversalTime_m1945318289_AdjustorThunk
jif:__ZN5physx7profile10DataBufferINS_6shdfnd6MutexTINS0_26WrapperReflectionAllocatorIhEEEENS0_14ScopedLockImplIS6_EEE17handleBufferFlushEPKhj
avj:_Convert_ToInt16_m1336719169
Qsa:__Z18BuildScriptClassId17ScriptingClassPtr
m_l:_TextGenerator_Init_m1168488231
CBb:__ZL31DeleteLastPathNameComponentImplRKN4core12basic_stringIcNS_20StringStorageDefaultIcEEEEPKc
jAj:_DBNull_System_IConvertible_ToUInt64_m4072736670
LIf:__ZN18UnityConnectClient15GetCloudServiceEv
NPb:__Z29Transfer_Blittable_ArrayFieldI14SafeBinaryRead5RectTIiEEvRT_R9ArrayInfoRK23StaticTransferFieldInfo
T4e:__ZN5physx20PxsConstraintProjectEPKNS_13PxsConstraintEbf
Koe:__ZN5physx7NpShape7setFlagENS_11PxShapeFlag4EnumEb
Aki:_InternalEnumerator_1_get_Current_m2698009637_gshared
Edm:__ZN6il2cpp2os19SocketHandleWrapperD2Ev
V1b:__ZL28SerializationCommandGroupForRK31TransferFunctionScriptingTraits17ScriptingClassPtr17ScriptingFieldPtrRK20CoreScriptingClasses
oQa:__ZN10TagManager32RegisterDefaultTagsAndLayerMasksEv
Mdk:_WaitHandle_Dispose_m738127030
zu:__ZN14HeightMeshDataC2ERKS_
pPk:__Z50RuntimeInvoker_Double_t594665363_Int32_t2950945753PFvvEPK10MethodInfoPvPS4_
Q0e:__ZN5physx2Sc35ParticleElementRbElementInteraction12onDeactivateEj
WYk:__Z104RuntimeInvoker_Void_t1185182177_Color_t2555686324_Single_t1397266774_SByte_t1669577662_SByte_t1669577662PFvvEPK10MethodInfoPvPS4_
s6j:_Enumerator_System_Collections_IEnumerator_get_Current_m1540440674_gshared
OTi:_Single_System_IConvertible_ToInt16_m809233024_AdjustorThunk
eIf:__Z56Register_UnityEngine_Analytics_CustomEventData_AddUInt32v
ETm:_fmodf
Azm:__ZN6il2cpp2vm5Image13ClassFromNameEPK11Il2CppImagePKcS6_
YFa:__ZL47__ManagedRegistrationHelperFunction_CullResultsPv
lbc:__ZN4gles8InitCapsEP7ApiGLESP12GraphicsCapsR16GfxDeviceLevelGL
jab:__ZN6prcore14BlitImageFloatERK14ImageReferenceRS0_NS0_8BlitModeE
R1a:__Z24CalculateVertexLightDataRK15SharedLightDataR14GfxVertexLight
Mi:_glEnable
flm:__ZN15dense_hashtableINSt3__24pairIK10KeyWrapperINS1_IPK12PropertyInfoP11Il2CppClassEEEjEES9_17ReflectionMapHashIS8_EN14dense_hash_mapIS9_jSD_NS9_14EqualsComparerINS0_8equal_toIS8_EEEENS0_9allocatorISB_EEE9SelectKeyESI_SK_E15insert_noresizeERKSB_
Ev:__ZN7NavMesh10RemoveTileEyiPPKhPi
E6a:__ZNK9ShaderLab7Program28BeginReadUnsupportedVariantsEv
Msb:__ZNSt3__26vectorIN30RuntimeInitializeOnLoadManager9ClassInfoE13stl_allocatorIS2_L18MemLabelIdentifier13ELi16EEE7reserveEj
uKe:__ZN5physx2Sq8AABBTreeC2Ev
mEl:_PatternCompiler_EmitCategory_m851169746
Ged:__Z35Transfer_Blittable_FixedBufferFieldI9JSONWriteiEvRK29SerializationCommandArgumentsR31RuntimeSerializationCommandInfo
DAd:__ZN11TrailModuleD2Ev
EQj:_BigInteger_op_Subtraction_m1575155386
PK:__ZN26AnimatorControllerPlayable17ProcessRootMotionEP35AnimationPlayableEvaluationConstantP32AnimationPlayableEvaluationInputP33AnimationPlayableEvaluationOutput
hGi:_RSAManaged_ImportParameters_m1117427048
V9g:_UnexceptionalStreamReader_Peek_m1842169584
PJf:__ZN11UnityEngine7Connect15DeviceInfoEvent16CollectExtraInfoEv
oJm:__ZN6il2cpp2os11Environment22SetEnvironmentVariableERKNSt3__212basic_stringIcNS2_11char_traitsIcEENS2_9allocatorIcEEEESA_
U7e:__ZN5physx2Gu10ConvexMeshD2Ev
I2g:__ZL66Navigation_t3049316579_CustomAttributesCacheGenerator_m_SelectOnUpP21CustomAttributesCache
Kmm:__ZN6il2cpp2gc19AppendOnlyGCHashMapIPK10Il2CppTypeP20Il2CppReflectionTypeNS_8metadata14Il2CppTypeHashENS7_26Il2CppTypeEqualityComparerEEC2Ev
kHh:_Vector4_Equals_m1779210055_AdjustorThunk
d3a:__ZN17LightBakingOutput8TransferI19StreamedBinaryWriteILb0EEEEvRT_
qhc:__ZN20ArchiveStorageReader10InitializeER15FileSystemEntryyb
HJm:__ZThn8_N6il2cpp2vm13CachedCCWBaseINS0_13ManagedObjectEE6AddRefEv
Eyf:_New_Profile
FQj:_ModulusRing_BarrettReduction_m167376748
UIh:_RemotingServices_GetRealProxy_m2081098851
gSj:_BlockProcessor_Core_m189015002
E0m:_emscripten_glScissor__wrapper
qp:FUNCTION_TABLE_viifi
tp:FUNCTION_TABLE_viiff
lZc:__ZN12LineRenderer12CleanupClassEv
b2d:__ZNK5physx2Sc8ShapeSim10getBodySimEv
D_i:_X501__cctor_m1166912714
Fng:__ZL37Type_t_CustomAttributesCacheGeneratorP21CustomAttributesCache
MD:__ZN9Scripting11UnityEngine14AnimationState9InitProxyEv
koh:_Bounds_ToString_m4208690781
ZKk:__Z88RuntimeInvoker_RuntimeObject_RuntimeObject_RuntimeObject_Int32_t2950945753_RuntimeObjectPFvvEPK10MethodInfoPvPS4_
Qom:__ZN6il2cpp2vm14TypeNameParser5ParseEb
QQg:__ZL100GameObject_t1113636619_CustomAttributesCacheGenerator_GameObject_SendMessage_m3720186693____options2P21CustomAttributesCache
Wpj:_StreamWriter_Initialize_m3490883444
mgk:_Type_GetGenericArguments_m3500465462
cdm:__ZN15dense_hashtableINSt3__24pairIK10KeyWrapperIP9FieldInfoEiEES5_N6il2cpp5utils11PointerHashIS3_EEN14dense_hash_mapIS5_iSB_NS5_14EqualsComparerINS0_8equal_toIS4_EEEENS0_9allocatorIS7_EEE9SelectKeyESG_SI_E12resize_deltaEjj
mie:__ZN5physx6shdfnd5ArrayIPvNS0_19ReflectionAllocatorINS_2Cm5BlockIhLj128EEEEEE15growAndPushBackERKS2_
qNf:__ZN23UnityPurchasingSettingsC2Ev
Hob:__ZNK9Transform13GetWorldScaleEv
W7f:_Module_IsDefined_m2423524910
Gih:_DerivedType_create_unmanaged_type_m747846525
vVg:__ZL60EventType_t3528516131_CustomAttributesCacheGenerator_repaintP21CustomAttributesCache
dVa:__ZN17GPUFenceInternals7ReleaseEv
v3g:__ZL66Selectable_t3250028441_CustomAttributesCacheGenerator_m_NavigationP21CustomAttributesCache
qpe:__ZN5physx14NpShapeManager15setupSceneQueryERNS_2Sq17SceneQueryManagerERKNS_12PxRigidActorERKNS_7NpShapeE
Ewc:__ZL10RenderFaceR9GfxDeviceR18MaterialStateCacheP13RenderTextureiif
NJj:_Array_IndexOf_TisCustomAttributeNamedArgument_t287865710_m2817957199_gshared
oqk:_ReadOnlyCollection_1_System_Collections_IList_RemoveAt_m1980090087_gshared
bAl:_ExtendedKeyUsageExtension_ToString_m2116504780
oxb:__ZNK5Unity9Component38MarkGameObjectAndComponentDependenciesER27GarbageCollectorThreadState
R5d:__ZN5physx3Scb5Scene15addArticulationERNS0_12ArticulationE
O4e:__ZN22ScAfterIntegrationTask11runInternalEv
klj:_BinaryReader_Read_m3708759962
Z9d:__ZNK5physx2Sc9ClothCore23getExternalAccelerationEv
pta:__ZNK11TypeManager15ClassNameToRTTIEPKcb
ORd:__ZN5physx2Gu13coarseCullingERKNS_6PxVec3ES3_ffRKNS_10PxTriangleE
zFa:__ZL57__ManagedRegistrationHelperFunction_DefaultExecutionOrderPv
Sac:__ZN9GfxDevice26CreateDefaultVertexBuffersEv
Y1m:_emscripten_glVertexAttrib2fv__wrapper
f9g:_SynchronizedReader_ReadToEnd_m2160105378
q1e:__ZN5physx2Sc5Scene29processNarrowPhaseTouchEventsEv
Vcb:__ZN4crnd12symbol_codec32decode_receive_static_data_modelERNS_25static_huffman_data_modelE
MUc:__ZN18ScriptingArguments8AddFloatEf
Br:__ZN12NavMeshAgent16AddToCrowdSystemEv
c4f:_Image_set_fillOrigin_m469806249
DJf:__ZN11UnityEngine15PlatformWrapper16GetVRRenderScaleEv
ace:__ZN5physx6shdfnd5ArrayIPvNS0_15InlineAllocatorILj256ENS0_19ReflectionAllocatorINS_18NpArticulationLinkEEEEEE15growAndPushBackERKS2_
Gfd:__Z18Transfer_BlittableI9JSONWriteLb0EaEvRK29SerializationCommandArgumentsR31RuntimeSerializationCommandInfo
Tga:__ZN11UnityEngine15CloudWebService14DataDispatcher34OnSessionContainerArchivedAndReadyERNS0_16SessionContainerE
Zwh:_ConnectionChangeEvent__ctor_m764126802
btd:__ZN23ParticleSystemParticles20SetUsesTriggerEventsEb
o0d:__ZNK5physx3Cct15ObstacleContext11getObstacleEj
obg:_ResolveEventHandler_Invoke_m1337322179
k5j:_Enumerator_VerifyState_m2621680056_gshared
MIl:_UriParser_InternalRegister_m3643767086
IDc:__ZN14SafeBinaryRead19TransferSTLStyleMapINSt3__23mapIN4core12basic_stringIcNS3_20StringStorageDefaultIcEEEEiNS1_4lessIS7_EENS1_9allocatorINS1_4pairIKS7_iEEEEEEEEvRT_17TransferMetaFlags
kvf:_gray_move_to
fAj:_DBNull_System_IConvertible_ToSingle_m13713620
E6i:_Char_ToLowerInvariant_m1926695830
Pda:__ZN13ProduceHelperI18AudioMixerSnapshotLb0EE7ProduceE10MemLabelId18ObjectCreationMode
kqk:_ReadOnlyCollection_1_System_Collections_IList_Contains_m1327645028_gshared
p4f:_Image_GetDrawingDimensions_m3060965396
gTg:__ZL69FontTextureRebuildCallback_t2467502454_CustomAttributesCacheGeneratorP21CustomAttributesCache
Fgk:_TypeLoadException__ctor_m1154572625
O4c:__Z30RegisterValidateMethodCallbackiPF18ScriptingMethodPtrS_17ScriptingClassPtrP6ObjectEPKc
q8a:__ZNSt3__27__sort4IRPFbRKNS_4pairIN9ShaderLab16FastPropertyNameE10ColorRGBAfEES7_EPS5_EEjT0_SC_SC_SC_T_
eKi:_Context_get_WriteSequenceNumber_m1115956887
acl:_Dictionary_2_Do_ICollectionCopyTo_TisKeyValuePair_2_t2401056908_m1169495264_gshared
kud:__Z25GetTransformationMatricesPN4math8float3x3ES1_bbRK10Matrix4x4fS4_
b_f:_ContentSizeFitter__ctor_m2349275633
UNe:__ZN5physx13IslandManager6resizeEj
oYa:__Z26TransformVerticesInnerLoopILb1ELb0ELb0EEvPhRK10Matrix4x4fRK10Matrix3x3fjPKhiS8_ii25GfxTransformVerticesFlagsj
Zjd:__ZN8JSONRead8TransferI9BoundsIntEEvRT_PKc17TransferMetaFlagsb
Ab:invoke_viidi
hGd:__Z17UpdateSprites2TplIL27ParticleSystemCurveEvalMode0ELS0_2EEvfRK11MinMaxCurveS3_RK23ParticleSystemParticlesPf
U6d:__ZN5physx6shdfnd8PoolBaseINS_2Cm5BlockIPvLj16EEENS0_19ReflectionAllocatorIS5_EEE17releaseEmptySlabsEv
Q1f:_Graphic_OnRectTransformDimensionsChange_m3695755375
CNh:_SByte_System_IConvertible_ToChar_m1489191771_AdjustorThunk
Q3:__ZN9AudioClip7CleanupEv
n_c:__Z13RegisterClassI18DelayedCallManagerEvPKc
eum:__ZNK15dense_hashtableINSt3__24pairIK10KeyWrapperIP11Il2CppClassES4_EES5_N6il2cpp8metadata16SZArrayClassHashEN14dense_hash_mapIS5_S4_SA_NS5_14EqualsComparerINS9_19SZArrayClassCompareEEENS0_9allocatorIS7_EEE9SelectKeyESE_SG_E12test_deletedEj
zZc:__ZN12LineRenderer18PrepareRenderNodesILb1EEEvR35RenderNodeQueuePrepareThreadContext
kvj:_Convert_ToInt16_m1223489986
_0d:__ZL20updateMassAndInertiabRN5physx11PxRigidBodyEPKfjPKNS_6PxVec3Eb
Aid:__Z18Transfer_BlittableI8JSONReadLb0EdEvRK29SerializationCommandArgumentsR31RuntimeSerializationCommandInfo
dgf:__ZN5physx24NpPtrTableStorageManagerC2Ev
SX:__ZN7mecanim9animation21BlendTreeNodeConstant35Transfer_4_0_BackwardsCompatibilityI14SafeBinaryReadEEvRT_
ehg:_SynchronizationAttribute_EnterContext_m1660729920
eDf:__Z44Register_UnityEngine_Canvas_set_sortingOrderv
W_l:_Canvas_get_referencePixelsPerUnit_m3420541976
MJl:_Event_get_current_m2393892120
mSl:_VertexHelper_Clear_m627349662
Cem:__ZN6il2cpp2vm21ThreadPoolCompartment13QueueWorkItemEP17Il2CppAsyncResult
XFb:__ZNK9GfxDevice13GetViewMatrixEv
sah:_UnmanagedMemoryStream_Dispose_m2681886347
LGe:__ZN5physx7NpScene15flushSimulationEb
Zgi:_InternalEnumerator_1_System_Collections_IEnumerator_get_Current_m1295084274_gshared
Ine:__ZN5physx6shdfnd8PoolBaseINS_10NpMaterialENS0_19ReflectionAllocatorIS2_EEE12allocateSlabEv
sua:__ZN8TypeTree8BlobReadERPKhS1_ib
D2i:_Array_Reverse_m3714848183
k0f:_Dropdown_ClearOptions_m4085591601
oZf:_CanvasUpdateRegistry_InternalRegisterCanvasElementForGraphicRebuild_m3522560454
ubf:__ZN5physx18ReducedVertexCloudC2EPKNS_6PxVec3Ej
uub:__ZN18LoadSceneOperation23GetAllowSceneActivationEv
iTa:__ZN6CameraD0Ev
KAa:__ZN31CanvasBatchIntermediateRenderer16StaticInitializeEPv
fK:__ZN7mecanim12AndValueMaskILb0EEEvPKNS_14ValueArrayMaskEPS1_
Asb:__ZN14SafeBinaryRead21TransferSTLStyleArrayINSt3__26vectorIi13stl_allocatorIiL18MemLabelIdentifier13ELi16EEEEEEvRT_17TransferMetaFlags
tYi:_EncoderFallback__cctor_m3806755293
lnf:_raccess_guess_apple_double
Lcc:__ZL18ProgramUniform1uivPK7ApiGLESjiihPKv
rBd:__ZN27ShapeModulePropertyBindings13GetFloatValueERK14ParticleSystemi
lYc:__ZN14Texture2DArray13RebuildMipMapEv
b7l:__ZN13Il2CppHashSetIPK17Il2CppGenericInstN6il2cpp8metadata21Il2CppGenericInstHashENS4_24Il2CppGenericInstCompareENSt3__29allocatorI10KeyWrapperIS2_EEEEC2EjRKS5_RKS6_
LNb:__Z18Transfer_BlittableI14SafeBinaryReadLb1EaEvRK29SerializationCommandArgumentsR31RuntimeSerializationCommandInfo
IEm:__ZN6il2cpp2gc16GarbageCollector14RemoveWeakLinkEPPv
rIc:__ZN9ShaderLab20SerializedSubProgram14AddVectorParamEPKcii15ShaderParamTypei
XEf:__ZN2UI14CanvasRenderer12CleanupClassEv
Drj:_Enumerator__ctor_m3362421874
tBm:__ZN6il2cpp2vm6Object3BoxEP11Il2CppClassPv
mia:__ZN11UnityEngine15CloudWebService10RestClientINS0_23WebRequestRestHeaderMapEE16SetRequestHeaderERKN4core12basic_stringIcNS4_20StringStorageDefaultIcEEEESA_
Fsb:__ZN30RuntimeInitializeOnLoadManager15ClassMethodInfo8TransferI14SafeBinaryReadEEvRT_
Qhg:_ConstructionCall_InitDictionary_m2824447813
tsd:__ZN23ParticleSystemParticles14element_assignEjj
ofa:__ZL22InitializeModule_Audiov
yOe:__ZN5physx2Sq11PruningPoolD0Ev
PEb:__ZN16MemoryFileSystem8IsLockedERK13FileEntryData
rWe:__ZN3MBP15removeBoxPrunerEj
Jvm:__ZN6il2cpp6icalls8mscorlib6System2IO6MonoIO5WriteEiP11Il2CppArrayiiPi
zDd:__ZN14ParticleSystem23OnGeometryJobsScheduledEj
lvh:_Mathf_InverseLerp_m4155825980
CMk:__Z92RuntimeInvoker_RuntimeObject_RuntimeObject_RuntimeObject_SByte_t1669577662_SByte_t1669577662PFvvEPK10MethodInfoPvPS4_
Al:_emscripten_glBindRenderbuffer
UGd:__ZZN14ParticleSystem15InitializeClassEvEN29FunctorImpl_228kDidModifyMesh4CallEPviR11MessageData
Cgl:_List_1_System_Collections_IList_Insert_m1011775503_gshared
CMm:_GC_dirty_init
aAm:__ZN6il2cpp2vm5Image33GetCachedMemoryMappedResourceFileEP24Il2CppReflectionAssembly
pAm:__ZN6il2cpp2vm5Field14GetValueObjectEP9FieldInfoP12Il2CppObject
ICf:__ZNK2UI6Canvas16GetTargetDisplayEv
bIf:__Z63Register_UnityEngine_Analytics_CustomEventData_Internal_Destroyv
nwd:__Z25UpdateOrbitalAndRadialTplIL27ParticleSystemCurveEvalMode1ELS0_2ELS0_2EEvRK11MinMaxCurveS3_S3_S3_S3_S3_S3_R23ParticleSystemParticlesjjRKN4math8float3x3ERKNS6_7affineXERKNS6_7_float4E
KYd:__ZL15SweepBoxCapsulePKN5physx3Cct9SweepTestEPKNS0_11SweptVolumeEPKNS0_11TouchedGeomERKNS_14PxExtendedVec3ERKNS_6PxVec3ERNS0_12SweptContactE
q1b:__ZN13MonoBehaviour17RemoveFromManagerEv
JGh:_Vector3_get_Item_m668685504_AdjustorThunk
X5e:__ZN5physx2Sc19ParticlePacketShapeD2Ev
w8f:_MonoEventInfo_GetEventInfo_m873645389
Veb:__ZL11DecodeValuePPKcS0_
uKl:_GUIUtility_get_pixelsPerPoint_m2369948084
ESi:_WindowsIdentity_System_Runtime_Serialization_IDeserializationCallback_OnDeserialization_m3428853631
_la:__ZN13MemoryManagerC2Ev
yob:__ZN12SkinMeshInfo10DeallocateEPS_
T$h:_ScrollRect_SetDirty_m214267968
m5k:__Z74RuntimeInvoker_Int32_t2950945753_UIVertex_t4057497605_UIVertex_t4057497605PFvvEPK10MethodInfoPvPS4_
hEb:__ZN20ArchiveStorageReader28AcquireAndPrefillUnusedBlockEjPNS_11CacheResultE
a4i:_Boolean_System_IConvertible_ToDateTime_m603510836
gYc:__Z12NHxRoughnessIA4_tEvP9Texture2DPT_iiii
JRj:_ASN1_get_Value_m1857007406
Wfa:__Z6simd4iiiii
azb:__ZN9Transform5ResetEv
pvj:_Decimal_op_Explicit_m1842265407
xUb:__Z22TransferField_NonArrayI24GenerateTypeTreeTransfer16Converter_StringEvRK23StaticTransferFieldInfoR31RuntimeSerializationCommandInfoRT0_
PFa:__ZL47__ManagedRegistrationHelperFunction_FixedUpdatePv
RGd:__ZN29ParticleSystemPropertyBinding49InitializeParticleSystemAnimationBindingInterfaceEv
_qf:_UNITY_FT_CMap_New
xhi:_InternalEnumerator_1_get_Current_m4241643334_AdjustorThunk
N3b:__Z17MainLoopKeepalivePv
L9d:__ZN5physx7NpScene16addActorInternalERNS_7PxActorE
sti:_Comparer_1__cctor_m2282308543_gshared
Dni:_InternalEnumerator_1_get_Current_m1588647567_AdjustorThunk
lgh:_Assembly_UnprotectedGetName_m600830855
ptg:__ZL51GCHandle_t3351438187_CustomAttributesCacheGeneratorP21CustomAttributesCache
BSh:_InputField_get_caretBlinkRate_m3620074524
Gmc:__Z19SetupLODFadeKeywordR17ShaderPassContexti
zOi:_RSAPKCS1SignatureFormatter_CreateSignature_m3191980616
x6a:__ZN10builtintex16GetDefaultTexEnvE16TextureDimensionb
Uec:__ZL25CheckCopyTextureArgumentsRK7ApiGLESP11GLESTextureS3_
_Ad:__ZN24UVModulePropertyBindings13AddPropertiesER10vector_mapIi22ParticleModulePropertyNSt3__24lessIiEENS2_9allocatorINS2_4pairIiS1_EEEEE
kB:__Z17CircleHullOverlapPfRK13dynamic_arrayI8Vector2fLj0EERKS1_f
d5m:_glDeleteShader__wrapper
Wza:__ZNK15PlayableMethods18InvokeOnGraphStartER18ScriptingObjectPtrRK9HPlayable
VTb:__Z29Transfer_Blittable_ArrayFieldI24GenerateTypeTreeTransferyEvRT_R9ArrayInfoRK23StaticTransferFieldInfo
K4:__ZN4FMOD7SystemI9playSoundE17FMOD_CHANNELINDEXPNS_5SoundEbPPNS_7ChannelE
akj:_Int64_GetHashCode_m703091690
WGa:__ZL60__ManagedRegistrationHelperFunction_ReflectionProbeBlendInfoPv
bre:__ZNK5physx7NpCloth16getStretchConfigENS_22PxClothFabricPhaseType4EnumE
ZJl:_Event_get_commandName_m4275147343
eK:__ZN27AnimationLayerMixerPlayable17LayerMixerProcessEP35AnimationPlayableEvaluationConstantP32AnimationPlayableEvaluationInputP33AnimationPlayableEvaluationOutputM17AnimationPlayableFvS1_S3_S5_EMS_FvS1_S3_S5_ESA_MS_FvS5_S1_S3_S5_ifE
yuj:_Decimal_op_Implicit_m4256234411
m3:__ZN12AudioManager23VirtualRedirectTransferER18StreamedBinaryReadILb0EE
eJk:__Z60RuntimeInvoker_RuntimeObject_RuntimeObject_Int16_t2552820387PFvvEPK10MethodInfoPvPS4_
Cpj:_StreamReader__ctor_m3941437302
lBd:__ZN27ColorModulePropertyBindings13GetFloatValueERK14ParticleSystemi
SPc:__Z57Register_UnityEngine_Transform_INTERNAL_get_localRotationv
jZm:dynCall_viif
wRc:__Z13RegisterClassIN5Unity9ComponentEEvPKc
Goc:__ZN29MotionVectorRenderLoopScratchD2Ev
Q4e:__ZN5physx2Sc24ConstraintProjectionTree11projectPoseERNS0_19ConstraintGroupNodeE
BRb:__ZL26Transfer_SimpleNativeClassI17RemapPPtrTransfer8GradientLb0EEvRK29SerializationCommandArgumentsR31RuntimeSerializationCommandInfo
AIg:__ZL49Shader_t4151988712_CustomAttributesCacheGeneratorP21CustomAttributesCache
RL:__ZN17AnimationPlayable26DisconnectNoTopologyChangeEPS_i
z4i:_Boolean_Equals_m2410333903_AdjustorThunk
_ml:_List_1_System_Collections_IList_Contains_m2131605266_gshared
Iee:__ZN5physx2Sc21ArticulationJointCore28setSwingLimitContactDistanceEf
hja:__ZN13UploadHandlerD2Ev
U0:__GLOBAL__sub_I_Modules_AssetBundle_Public_1_cpp
uXm:dynCall_viiiiiffi
Xc:_emscripten_glBlendFuncSeparate
Svl:_Collection_1_Add_m809543251_gshared
yqa:__Z20scripting_string_newPKc
XHl:_Parser_IsSingleline_m326238187
aaj:_CollectionBase_get_Count_m1708965601
pQh:_HMAC__ctor_m97939284
Ujk:_ValueType_DefaultEquals_m2927252100
led:__ZN9JSONWrite12AppendToNodeEPN5Unity9rapidjson12GenericValueINS1_4UTF8IcEE13JSONAllocatorEEPKcRS6_
QRj:_ASN1_ToString_m1340204511
aai:_X509Store_get_Certificates_m2149701265
Ufk:_Type_GetField_m2961003358
zZ:__ZN6Avatar23VirtualRedirectTransferER17RemapPPtrTransfer
U$g:__ZL144StandaloneInputModule_t2760469101_CustomAttributesCacheGenerator_StandaloneInputModule_t2760469101____allowActivationOnMobileDevice_PropertyInfoP21CustomAttributesCache
vLa:__ZN9Scripting11UnityEngine13ComputeBuffer12CleanupProxyEv
P8e:__ZThn8_N5physx2Gu11HeightFieldD1Ev
q9j:_StringBuilder_set_Chars_m3548656617
Chm:__ZN6il2cpp2os4File17GetFileAttributesERKNSt3__212basic_stringIcNS2_11char_traitsIcEENS2_9allocatorIcEEEEPi
Qde:__ZNK5physx19PxArticulationJoint19getConcreteTypeNameEv
BP:__ZNSt3__26__sortIRPFbPKN8Animator11AnimatorJobES4_EPS4_EEvT0_S9_T_
fca:__ZN17AudioCustomFilterD2Ev
T6c:__Z33Camera_Get_Custom_PropCullingMaskP12Il2CppObject
vKm:_GC_unpromote_black_lists
P0:__ZN9Scripting11UnityEngine2XR5Tango9GridIndex9InitProxyEv
Qdc:__ZN18GfxFramebufferGLES18ReleaseFramebufferEP17RenderSurfaceBaseP14GfxContextGLES
qhd:__Z18Transfer_BlittableI8JSONReadLb1EiEvRK29SerializationCommandArgumentsR31RuntimeSerializationCommandInfo
Lja:__ZN19CloudServiceHandler34HandleSaveFileWebRequestPlayerLoopEv
DL:__ZN7mecanim21ValueArrayReverseCopyEPKNS_18ValueArrayConstantEPKNS_10ValueArrayES2_PS3_PKi
AQf:__ZL47__ManagedRegistrationHelperFunction_XRNodeStatePv
yba:__Z31GetParentSampleClipFromInstancePN11SoundHandle8InstanceE
eSc:__ZNK28RectTransformPropertyBinding13GetFloatValueERKN11UnityEngine9Animation10BoundCurveE
$wc:__ZN6Camera22StandaloneCustomRenderENS_10RenderFlagEP6ShaderRKN4core12basic_stringIcNS3_20StringStorageDefaultIcEEEEPNS_21PerformRenderFunctionE
gKj:_Array_InternalArray__IndexOf_TisKeyValuePair_2_t2401056908_m4118889689_gshared
Etb:__ZNSt3__26vectorI4PPtrI6ObjectE13stl_allocatorIS3_L18MemLabelIdentifier52ELi16EEE6assignINS_11__wrap_iterIPS3_EEEENS_9enable_ifIXaasr21__is_forward_iteratorIT_EE5valuesr16is_constructibleIS3_NS_15iterator_traitsISD_E9referenceEEE5valueEvE4typeESD_SD_
sCe:__ZL22addOrRemoveRigidObjectILb0ELb0ELb0ELb1EN5physx3Scb11RigidStaticEEvRNS0_2Sc5SceneERT3_b
tRm:__ZN6il2cpp2os16ThreadLocalValue8GetValueEPPv
d9h:_X509Certificate2_get_PublicKey_m370665820
Ubm:__ZN6il2cpp2vm13MetadataCache14GetGenericInstEPKPK10Il2CppTypej
Qca:__ZN13AudioListener17ReadExtensionNameEi
yd:_glUniform1uiv
yLf:__ZN11UnityEngine7Connect20RemoteConfigSettings35CallConfigUpdatedOnMainThreadStaticEPS1_
e5d:__ZNK5physx2Gu19SupportMapLocalImplINS0_11ConvexHullVEE18doWarmStartSupportEiRNS_6shdfnd3aos5Vec3VE
e7d:__ZN5physx6shdfnd4sortIPvNS0_4LessIS2_EENS0_19ReflectionAllocatorINS_2Cm5BlockIS2_Lj8EEEEEEEvPT_jRKT0_RKT1_j
pne:__ZNK5physx9NpPhysics11getNbShapesEv
bq:setThrew
ENi:_SslClientStream_OnLocalPrivateKeySelection_m1934775249
_Xc:__ZL21BuildEmptyCubeTexturePKci11ColorRGBA3217TextureColorSpace
A5i:_Byte_ToString_m721125428
LDc:__ZN14SafeBinaryRead21TransferSTLStyleArrayINSt3__26vectorIN9ShaderLab20SerializedSubProgramENS1_9allocatorIS4_EEEEEEvRT_17TransferMetaFlags
FKj:_Array_InternalArray__IndexOf_TisX509ChainStatus_t133602714_m48896230_gshared
EBb:__ZN19dynamic_block_arrayI13FileEntryInfoLj32EE4growEj
zhd:__Z15Transfer_StringI8JSONReadLb1EEvRK29SerializationCommandArgumentsR31RuntimeSerializationCommandInfo
Rub:__ZN16LightmapSettings15AppendLightmapsEiRK13dynamic_arrayI12LightmapDataLj0EE
qCa:__ZN6prcoreL17RemapGenericFloatI17TexFormatRGBFloat15TexFormatRGHalfEEvPKNS_9InnerInfoE
otf:_sfnt_load_face
wmf:_UNITY_FT_Render_Glyph_Internal
twm:__ZNSt3__212basic_stringIDsNS_11char_traitsIDsEENS_9allocatorIDsEEE21__grow_by_and_replaceEjjjjjjPKDs
orf:_UNITY_ft_service_list_lookup
dbd:__ZN5IMGUI21SelectReceivingWindowER8GUIStateb
FQh:_HMAC_Initialize_m3157696427
xTd:__ZN5physx2Gu20intersectTriangleBoxERKNS_6PxVec3ES3_S3_S3_S3_
n9g:_SynchronizedWriter_Write_m2529550287
kme:__ZN5physx10NpMaterial8setFlagsENS_7PxFlagsINS_14PxMaterialFlag4EnumEtEE
hna:__ZN13BaseAllocator13TryDeallocateEPv
Y7h:_X509SubjectKeyIdentifierExtension__ctor_m2055934916
ls:__ZNK22NavMeshProjectSettings18GetSettingsByIndexEi
cSl:_Toggle_OnSubmit_m1320104356
FSm:_sprintf
ZIc:__ZN9Scripting25CreateNullExceptionObjectE18ScriptingObjectPtr
STj:_PrivateKeyInfo_DecodeRSA_m2889346634
Uba:__ZN13AudioListener17RemoveFromManagerEv
Td:_glAttachShader
m_f:_ContentSizeFitter_SetLayoutHorizontal_m2833273874
ipk:_ReadOnlyCollection_1_System_Collections_IList_RemoveAt_m134366701_gshared
Ngf:__ZN5physx6shdfnd8internal8HashBaseINS0_4PairIKtPKcEEtNS0_4HashItEENS1_11HashMapBaseItS6_S9_NS_7profile26WrapperReflectionAllocatorIS6_EEE6GetKeyESD_Lb1EE6createERS4_Rb
VSa:__ZNK6Camera19GetProjectionMatrixEv
nwm:__ZNSt3__212basic_stringIDsNS_11char_traitsIDsEENS_9allocatorIDsEEE6appendEPKDsj
EHe:__ZNK5physx7NpScene24getWakeCounterResetValueEv
DFd:__Z19UpdateSingleRow2TplIL27ParticleSystemCurveEvalMode2ELS0_4EEvfRK11MinMaxCurveS3_RK23ParticleSystemParticlesPfbiii
bTh:_InputField_SetToCustomIfContentTypeIsNot_m2813459946
rHg:__ZL70RuntimePlatform_t4159857903_CustomAttributesCacheGenerator_FlashPlayerP21CustomAttributesCache
Ygj:_Guid_GetHashCode_m3042133858_AdjustorThunk
XYe:__ZN5physx2Gu32PCMConvexVsMeshContactGeneration20generateLastContactsEv
pNa:__Z38PreallocateObjectFromPersistentManagerib
ume:__ZThn12_N5physx10NpMaterialD0Ev
Xci:_Interpreter_Backtrack_m2828876822
Qbb:__ZNK9Texture2D20GetUnscaledTextureIDEv
SNh:_SByte_System_IConvertible_ToType_m4075253447
TUj:_StrongName_get_PublicKey_m1841537984
ucf:__ZN5physx6shdfnd4sortIjNS_19SortBoundsPredicateENS0_19ReflectionAllocatorIjEEEEvPT_jRKT0_RKT1_j
j3m:_glFenceSync__wrapper
Qoe:__ZN5physx7NpShape14onRefCountZeroEv
xFh:_Transform_INTERNAL_get_worldToLocalMatrix_m2730237241
Jsd:__ZNK14ParticleSystem7GetLoopEv
bUi:_Single_System_IConvertible_ToUInt64_m3299129161
Ubf:__ZL15TestContainmentRKN5physx6PxVec3EPKfjPKNS_2Gu15HullPolygonDataE
Vbb:__ZNK9Texture2D26CanReuploadDataToGfxDeviceEv
Sxg:__ZL63CodeAccessPermission_t2681295399_CustomAttributesCacheGeneratorP21CustomAttributesCache
ovb:__Z29ClearRepeatingLogMessageStatev
Qli:_InternalEnumerator_1_get_Current_m3191242573_gshared
r5i:_Byte_Equals_m1161982810_AdjustorThunk
X8e:__ZN5physx2Gu11HeightField12loadFromDescERKNS_17PxHeightFieldDescEb
Oxa:__ZN21EnlightenSceneMappingaSERKS_
sQa:__ZN14SafeBinaryRead21TransferSTLStyleArrayI13dynamic_arrayI17SortingLayerEntryLj0EEEEvRT_17TransferMetaFlags
SJd:__ZL48__ManagedRegistrationHelperFunction_MeshColliderPv
Igc:__ZN7ApiGLESD2Ev
RRa:__ZN9Transform47ClearTransformHierarchyAndApplyToSerializedDataEv
dJf:__ZN11UnityEngine7Connect15DeviceInfoEventC2ERKN4core12basic_stringIcNS2_20StringStorageDefaultIcEEEEb
KEe:__ZN5physx6shdfnd8PoolBaseINS_2Gu30LargePersistentContactManifoldENS0_19ReflectionAllocatorIS3_EEE12allocateSlabEv
yoa:__ZNSt3__26__treeI19RepeatingLogMessageNS_4lessIS1_EE13stl_allocatorIS1_L18MemLabelIdentifier74ELi16EEE25__emplace_unique_key_argsIS1_JRKS1_EEENS_4pairINS_15__tree_iteratorIS1_PNS_11__tree_nodeIS1_PvEEiEEbEERKT_DpOT0_
FUh:_InputField_IsSelectionVisible_m3622592134
i3i:_AssemblyLoadEventHandler_Invoke_m1462077361
oTa:__ZN6Camera23VirtualRedirectTransferER19StreamedBinaryWriteILb0EE
FZm:dynCall_fidi
Fim:__ZN15dense_hashtableINSt3__24pairIK10KeyWrapperINS1_IPK9FieldInfoP11Il2CppClassEEEjEES9_17ReflectionMapHashIS8_EN14dense_hash_mapIS9_jSD_NS9_14EqualsComparerINS0_8equal_toIS8_EEEENS0_9allocatorISB_EEE9SelectKeyESI_SK_E12resize_deltaEjj
a1e:__ZN5physx20getVertexEdgeIndicesERKNS_2Gu11HeightFieldEjjjPNS_8EdgeDataE
QJe:__ZN5physx6shdfnd5ArrayIPNS_2Sc8BodyCoreENS0_19ReflectionAllocatorIS4_EEE6resizeEjRKS4_
E$d:__ZN5physx3Cct26CharacterControllerManager16createControllerERNS_9PxPhysicsEPNS_7PxSceneERKNS_16PxControllerDescE
FKl:_GUILayoutEntry__ctor_m2229197035
xWa:__ZN15dense_hashtableINSt3__24pairIKN9ShaderLab7Program23ShaderKeywordSetAndHashEPKNS2_10SubProgramEEES4_NS3_24ShaderKeywordHashFunctorEN14dense_hash_mapIS4_S8_SA_NS0_8equal_toIS4_EE13stl_allocatorIS9_L18MemLabelIdentifier67ELi16EEE9SelectKeyESD_SG_E15insert_noresizeERKS9_
c4a:__ZN13RenderTexture12SetDimensionE16TextureDimension
qNi:_SslClientStream_set_ClientCertSelectionDelegate_m1261530976
MJa:__ZN9Scripting11UnityEngine16GradientColorKey9InitProxyEv
Ke:_SDL_FreeRW
XMe:__ZN5physx6shdfnd8PoolBaseINS_2Cm5BlockIhLj128EEENS0_19ReflectionAllocatorIS4_EEE15disposeElementsEv
bEf:__Z34CanvasRenderer_Get_Custom_PropCullP12Il2CppObject
$we:__ZN5physx3Scb14ParticleSystem14setRestOffsetsEjRKNS_16PxStrideIteratorIKjEERKNS2_IKfEE
TUd:__ZN12MeshCollider11CreateShapeEPvPK9RigidbodyRK8Vector3f
yaa:__ZN20SoundChannelInstance8getDelayE14FMOD_DELAYTYPEPjS1_
OWa:__ZNSt3__26vectorIN20GpuProgramParameters15StructParameterENS_9allocatorIS2_EEEC2ERKS5_
Cfi:_ArrayReadOnlyList_1_Contains_m232667507_gshared
UOk:__Z77RuntimeInvoker_Boolean_t97287965_IntPtr_t_Int32_t2950945753_SByte_t1669577662PFvvEPK10MethodInfoPvPS4_
Ryh:_PlayableHandle_GetPlayableType_m432385838_AdjustorThunk
klf:__ZNSt3__26vectorIN20TextRenderingPrivate8FontImpl13CharacterInfoE13stl_allocatorIS3_L18MemLabelIdentifier1ELi16EEE8__appendEj
v:tempBigInt
K7k:_Array_InternalArray__Insert_TisKeyframe_t4206410242_m1558638568_gshared
Se:_emscripten_glVertexAttrib1fv
rEc:__ZNSt3__26vectorIN9ShaderLab20SerializedSubProgram12UAVParameterENS_9allocatorIS3_EEE7reserveEj
iCi:_BigInteger__ctor_m2644482640
lWm:__ZSt11__terminatePFvvE
EIe:__ZN5physx13NpVolumeCacheC2EPNS_2Sq17SceneQueryManagerEjj
a8d:__ZThn24_N5physx2Sc20ArticulationJointSimD1Ev
A5:__ZN12AudioManager14systemCallbackEP11FMOD_SYSTEM24FMOD_SYSTEM_CALLBACKTYPEPvS3_
yzk:_Nullable_1_Equals_m4046255732_gshared
huk:_ReadOnlyCollection_1_System_Collections_Generic_ICollectionU3CTU3E_Clear_m3451551308_gshared
ZXf:_BaseMeshEffect_OnEnable_m3291426649
axe:__ZN5physx2Sc18ParticleSystemCore14setRestOffsetsEjRKNS_16PxStrideIteratorIKjEERKNS2_IKfEE
fYd:__ZN5physx2Gu16testPolyDataAxisERKNS0_8CapsuleVERKNS0_13PolygonalDataEPNS0_12SupportLocalERKNS_6shdfnd3aos6FloatVERSB_RNSA_5Vec3VE
z1a:__ZN16ReflectionProbes16UpdateSampleDataEv
Aud:__Z9UpdateTplIL27ParticleSystemCurveEvalMode1EEvRK11MinMaxCurveR23ParticleSystemParticlesjjPKN4math8floatNx3E
Tae:__ZN5physx2Sc17ParticleSystemSimD0Ev
BIh:_TrackingServices_NotifyUnmarshaledObject_m2784831802
B8i:_ReadOnlyArrayListWrapper_Sort_m2577012511
EFa:__ZL46__ManagedRegistrationHelperFunction_UnityEventPv
U3j:_Enumerator_System_Collections_IEnumerator_get_Current_m2237476582_AdjustorThunk
jej:_CultureInfo_GetCultureInfo_m56098747
Otc:__Z20AddActiveLocalLightsR11CullResultsR27LocalLightCullingParametersPPK15SharedLightDataPK8Vector4fRK9IndexListPfRSA_R12ActiveLightsSG_P5RectTIfEP13TargetEyeMask
ipg:__ZL80Hashtable_t1853889766_CustomAttributesCacheGenerator_Hashtable__ctor_m1763145853P21CustomAttributesCache
juj:_Convert_ToDecimal_m1284148187
Wlk:_Collection_1__ctor_m3489157029_gshared
YEa:__ZL52__ManagedRegistrationHelperFunction_AndroidJNIHelperPv
Qof:_cf2_getNormalizedVector
of:_JS_Sound_Play
Xtg:__ZL56_MethodBuilder_t600455149_CustomAttributesCacheGeneratorP21CustomAttributesCache
evk:_ReadOnlyCollection_1_System_Collections_IList_set_Item_m1538987737_gshared
Lri:_DefaultComparer_Compare_m1920986590_gshared
iMi:_RecordProtocol_ProcessChangeCipherSpec_m15839975
iDc:__ZN9ShaderLab16SerializedShader8TransferI14SafeBinaryReadEEvRT_
n3f:_GridLayoutGroup_set_constraint_m3308895167
hig:_ConstructionCallDictionary_SetMethodProperty_m3145285304
Kpb:__ZN11TimeManagerD2Ev
UO:__ZN7mecanim8skeleton13SkeletonAlignEPKNS0_8SkeletonERKN4math7_float4ES7_i
aZc:__ZN19ShaderPropertySheet16SetVectorIndexedEN9ShaderLab16FastPropertyNameEifRK8Vector4fNS_8SetFlagsE
mfk:_Type_get_IsAbstract_m1120089130
RGh:_Vector3_get_normalized_m2454957984_AdjustorThunk
uJl:_UriFormatException__ctor_m1115096473
Tsm:__ZN15dense_hashtableINSt3__24pairIK10KeyWrapperINS1_IP11Il2CppClassjEEES4_EES6_N6il2cpp8metadata14ArrayClassHashEN14dense_hash_mapIS6_S4_SB_NS6_14EqualsComparerINSA_17ArrayClassCompareEEENS0_9allocatorIS8_EEE9SelectKeyESF_SH_E9copy_fromERKSK_j
uvj:_Convert_ToInt32_m1085744762
nMl:_GUIUtility_IsExitGUIException_m3644066650
Dka:__ZN11UnityEngine15CloudWebService14DataDispatcher4StopEv
Qhj:_Int16_System_IConvertible_ToUInt64_m134975563
tEc:__ZNSt3__26vectorIN9ShaderLab20SerializedSubProgram12UAVParameterENS_9allocatorIS3_EEE8__appendEj
ebd:__ZN5IMGUI9GUIWindow5OnGUIER8GUIState
KTi:_Single_System_IConvertible_ToDecimal_m325860800_AdjustorThunk
cNj:_Array_InternalArray__ICollection_CopyTo_TisSingle_t1397266774_m455540885_gshared
EEa:__ZN17ScriptingGCHandle7AcquireE18ScriptingObjectPtr25ScriptingGCHandleWeakness
hRk:__Z74RuntimeInvoker_RuntimeObject_RuntimeObject_Int64_t3736567304_RuntimeObjectPFvvEPK10MethodInfoPvPS4_
$ge:__ZN5physx12NpConstraint8comShiftEPNS_12PxRigidActorE
bla:___cxx_global_var_init_864
lYm:dynCall_iifiii
J9a:__Z21HasAlphaTextureFormat13TextureFormat
afa:__ZN12AudioManager6UpdateEv
D9a:__ZN14ImageReference9BlitImageERKS_NS_8BlitModeE
vpk:_ReadOnlyCollection_1__ctor_m1345363288_gshared
LF:__ZN8Animator12AddToManagerEv
p1c:__Z26ApplyBlendShapesToVerticesR12SkinMeshInfoRKN4math5_int4EPNS1_8floatNx3ES6_
qla:__GLOBAL__sub_I_Runtime_Core_Callbacks_0_cpp
yPd:__ZNK5physx2Gu16SupportLocalImplINS0_11ConvexHullVEE9doSupportERKNS_6shdfnd3aos5Vec3VERNS5_6FloatVESA_
k2b:__ZN23CachedSerializationDataD2Ev
_vc:__ZNK25CameraStackRenderingState31CalculateStereoCameraTargetTypeEv
Z0a:__ZN14RenderSettings23VirtualRedirectTransferER14SafeBinaryRead
gpi:_InternalEnumerator_1_get_Current_m114240259_gshared
YFm:__ZN6il2cpp2os10ThreadImpl15CurrentThreadIdEv
Dy:__ZNSt3__227__insertion_sort_incompleteIR17DetailNodeYSorterP16DetailMeshBVNodeEEbT0_S5_T_
_Pi:_SymmetricAlgorithm_get_Key_m3241860519
wVh:_U3CMouseDragOutsideRectU3Ec__Iterator1_Reset_m2233410497
kla:__GLOBAL__sub_I_Runtime_Camera_5_cpp
lDk:__ZN25GenericVirtActionInvoker2I17Scene_t2348375561iE6InvokeEPK10MethodInfoP12Il2CppObjectS0_i
KRa:__Z17IsObjectAvailablei
$pb:__ZN12InputManagerD0Ev
F8i:_SimpleEnumerator_MoveNext_m3113120129
xhe:__ZN5physx2Sc9RigidCore20removeShapeFromSceneERNS0_9ShapeCoreEb
Dhi:_InternalEnumerator_1_System_Collections_IEnumerator_get_Current_m2889979481_AdjustorThunk
fVm:_posix_memalign
qcf:__ZN5physx11RTreeCooker18buildFromTrianglesERNS_2Gu5RTreeEPKNS_6PxVec3EjPKtPKjjRNS_6shdfnd5ArrayIjNSB_19ReflectionAllocatorIjEEEEPNS0_13RemapCallbackEfNS_17PxMeshCookingHint4EnumE
Ibe:__ZN5physx6shdfnd5ArrayIPvNS0_15InlineAllocatorILj256ENS0_19ReflectionAllocatorINS_14NpArticulationEEEEEE15growAndPushBackERKS2_
dNl:_AesManaged_GenerateKey_m2004209814
NRj:_ASN1_GetBytes_m3305539297
Bsa:__ZNK15MonoScriptCache7ReleaseEv
S5l:__ZN6il2cpp2vm5Class13HasReferencesEP11Il2CppClass
C_e:__ZN5physx9PxTaskMgrC2EPNS_15PxCpuDispatcherEPNS_15PxGpuDispatcherEPNS_15PxSpuDispatcherE
Cg:_glBindTexture
wTm:_snprintf
QYk:__Z50RuntimeInvoker_RuntimeObject_Resources_t1597885468PFvvEPK10MethodInfoPvPS4_
X1m:_emscripten_glVertexAttrib1fv__wrapper
zrh:_InvokableCallList_RemoveListener_m1769379719
BYc:__ZN16LevelGameManagerC2E10MemLabelId18ObjectCreationMode
iY:__ZN7mecanim12statemachine13StateConstant8TransferI24GenerateTypeTreeTransferEEvRT_
qwh:_MonoBehaviour_Internal_IsInvokingAll_m2820042090
u0m:_emscripten_glGetProgramInfoLog__wrapper
xE:__ZN25AnimatedPropertyEvaluator29BindCurveToScriptingObjectPtrERKN13AnimationClip10FloatCurveEj18ScriptingObjectPtrb
KRi:_String_Equals_m1744302937
Dqh:_Display__ctor_m501911701
Fqk:_ReadOnlyCollection_1_System_Collections_Generic_IListU3CTU3E_Insert_m1020890112_gshared
Naj:_Hashtable__cctor_m4112166779
k$f:_DefaultControls_SetDefaultTextValues_m1943359795
uoc:__Z19SetupMotionMatricesR6CameraR18RPDataMotionVector
E1l:__ZL7log2_64y
j5h:_TypeConverterAttribute_Equals_m1580461255
tv:__ZN19AutoOffMeshLinkData8TransferI19StreamedBinaryWriteILb0EEEEvRT_
tQ:__ZN26AnimatorControllerPlayable18PrepareForPlaybackERN7mecanim6memory9AllocatorE
HQ:__ZN8Animator11AnimatorJob11AddPlayableEP17AnimationPlayablef
i3f:_GridLayoutGroup_get_cellSize_m2967185053
JQe:__ZN5physx19PxsMaterialCombiner24combineIsotropicFrictionERKNS_15PxsMaterialDataES3_
DAl:_PKCS12_Decrypt_m1280162536
Mhi:_InternalEnumerator_1_get_Current_m3081223448_gshared
SJl:_Event_get_isMouse_m1058251071
iZa:__ZN10VertexDataC2ERKS_17ShaderChannelMask10MemLabelId
Zfd:__ZL22Transfer_ManagedObjectI9JSONWriteLb1EEvRK29SerializationCommandArgumentsR31RuntimeSerializationCommandInfo
Rrf:_otv_JSTF_validate
RWa:__ZN22CreateGpuProgramOutputC2Ev
Orh:_PersistentCallGroup_Initialize_m4253175514
$3i:_Boolean_System_IConvertible_ToChar_m4279513009_AdjustorThunk
Gaj:_Hashtable__ctor_m1763145853
Kdh:_NumberFormatter_ScaleOrder_m3813786990
TTj:_PrivateKeyInfo_DecodeDSA_m771724585
zaf:__ZN5physx7Cooking16cookTriangleMeshERKNS_18PxTriangleMeshDescERNS_14PxOutputStreamE
Rdi:_Interval_get_Size_m4163671410_AdjustorThunk
Edf:__ZN14CompletionTask4InitEPN5physx7PxSceneE
U8d:__ZN5physx2Sc7ElementD0Ev
Xhk:_UInt32_System_IConvertible_ToSByte_m1061556466
Xcf:__ZN5physx6shdfnd10Foundation7releaseEv
kKh:_WellKnownClientTypeEntry__ctor_m2471908952
R5l:__ZN6il2cpp2vm5Class4InitEP11Il2CppClass
Rc:invoke_vidi
_eh:_NumberFormatter_FormatRoundtrip_m19342689
QJh:_RemotingServices_CreateClientProxyForContextBound_m783705199
t2c:__ZNK15GUIEventManager15GetEventAtIndexEi
ZFf:__ZN2UI14CanvasRenderer17SyncDirtyElementsER8JobFence
Zti:_Enumerator_System_Collections_IEnumerator_get_Current_m3816090481_gshared
cIm:__ZN6il2cpp5utils11StringUtils15StringDuplicateEPKc
s_j:_DefaultComparer_Equals_m2480133610_gshared
mzd:__ZN14ParticleSystem24StartParticlesProceduralERS_R23ParticleSystemParticlesffjj
Yal:_Array_Sort_TisVector3_t3722313464_m1915176437_gshared
DRm:__ZN6il2cpp2os9EventImplC2Ebb
Oyd:__Z12RangedRandomR5RandNRKiS2_
t0h:_ScrollRect_OnInitializePotentialDrag_m3139711961
bkl:_List_1_get_Item_m2113769949_gshared
mYh:_MaskableGraphic_OnTransformParentChanged_m329502413
xWc:__ZN13HandleManagerC2Ev
JT:__ZNSt3__26vectorIN13AnimationClip9PPtrCurveE13stl_allocatorIS2_L18MemLabelIdentifier26ELi16EEE6resizeEj
Toa:__Z20IsMatrixBuiltinParamPKcPi
sRi:_String_memcpy4_m979367827
U9j:_UnicodeEncoding_GetBytesInternal_m1902824297
EYc:__ZN8Renderer19PostInitializeClassEv
DJj:_Array_FindIndex_TisRuntimeObject_m2504082708_gshared
VFf:__ZNSt3__26__treeINS_12__value_typeINS_4pairIKiS3_EEN2UI14DepthSortLayerEEENS_19__map_value_compareIS4_S7_NS_4lessIS4_EELb1EEE13stl_allocatorIS7_L18MemLabelIdentifier1ELi16EEE25__emplace_unique_key_argsIS4_JRKNS_21piecewise_construct_tENS_5tupleIJOS4_EEENSK_IJEEEEEENS2_INS_15__tree_iteratorIS7_PNS_11__tree_nodeIS7_PvEEiEEbEERKT_DpOT0_
uCl:_X509Chain_FindCertificateRoot_m1937726457
zpj:_StreamAsyncResult_get_AsyncWaitHandle_m3390046559
JJf:__ZN11UnityEngine15PlatformWrapper21GetVRPlayAreaGeometryER13dynamic_arrayI8Vector3fLj0EE
RNm:__ZN6il2cpp6icalls8mscorlib6System8Delegate23CreateDelegate_internalEP20Il2CppReflectionTypeP12Il2CppObjectP22Il2CppReflectionMethodb
_ui:_Enumerator_System_Collections_IEnumerator_get_Current_m921113401_AdjustorThunk
D1b:__ZN18DelayedCallManager18CancelCallDelayed2E4PPtrI6ObjectEPF15CallObjectStatePS1_PvES7_
NPa:__ZN25ThreadsafeLinearAllocator10ReallocateEPvji
aNb:__Z18Transfer_BlittableI14SafeBinaryReadLb1E11QuaternionfEvRK29SerializationCommandArgumentsR31RuntimeSerializationCommandInfo
cfe:__ZNK5physx18PxArticulationLink8isKindOfEPKc
SBa:__ZN18SpriteAtlasManagerD0Ev
hxl:_SslHandshakeHash__ctor_m4169387017
cI:__ZN7mecanim9animation10SampleClipERKNS0_12ConstantClipEjPf
$hb:__ZN10Matrix4x4f8TransferI14SafeBinaryReadEEvRT_
hn:FUNCTION_TABLE_vifiiiiiiiiiiiiiiiiii
ROh:_CryptographicUnexpectedOperationException__ctor_m2381988196
mnm:__ZN14dense_hash_mapI10KeyWrapperIPK22Il2CppGenericParameterEPK24MonoGenericParameterInfoN6il2cpp5utils11PointerHashIS2_EENS4_14EqualsComparerINSt3__28equal_toIS3_EEEENSD_9allocatorINSD_4pairIKS4_S7_EEEEE15set_deleted_keyERSJ_
qQ:__ZN14AvatarPlayback8StopTimeEv
pki:_InternalEnumerator_1_System_Collections_IEnumerator_get_Current_m4213507601_gshared
ewa:__Z6AppendRKN4core12basic_stringIcNS_20StringStorageDefaultIcEEEEPKc
GBm:__ZN6il2cpp2vm6Object12NullableInitEPhP12Il2CppObjectP11Il2CppClass
RHa:__ZN9Scripting11UnityEngine16TrackedReference12CleanupProxyEv
Ynf:__ZN20TextRenderingPrivate19NativeTextGeneratorC2ERK11UTF16StringPNS_8FontImplE11ColorRGBA32ifRK8Vector2fbifiibffbbP13dynamic_arrayIN2UI8UIVertexELj0EE
fMl:_GUIUtility_RemoveCapture_m1294193818
Dac:__ZN7ApiGLES18ClearBufferSubDataEjN2gl12BufferTargetEll
$$:__ZN8Animator7SetBoolEib
XNc:__Z37Camera_Get_Custom_PropAllCamerasCountv
Mab:__ZN14Texture2DArray8TransferI18StreamedBinaryReadILb0EEEEvRT_
yie:__ZN5physx15NpActorTemplateINS_18PxArticulationLinkEED2Ev
Tbd:__Z38Register_UnityEngine_GUIStyle_get_namev
Fyf:_Split_Cubic
kb:invoke_fiiii
VUh:_InputField_OnSubmit_m3583210804
dQe:__ZN5physx2Sc32DefaultClothInterCollisionFilterEPvS1_
GIl:_Uri_CheckHostName_m2213216182
U1m:_emscripten_glBindRenderbuffer__wrapper
Ecl:_Mesh_SetUvsImpl_TisVector2_t2156229523_m3009194955_gshared
DEi:_HMAC_set_Key_m3535779141
V7i:_ArrayListWrapper_Contains_m2641184447
qyf:_ft_black_render
pOk:__Z177RuntimeInvoker_Int32_t2950945753_RuntimeObject_Int32_t2950945753_Int32_t2950945753_RuntimeObject_Int32_t2950945753_EncoderFallbackBufferU26_t2343550713_CharU5BU5DU26_t3299466565PFvvEPK10MethodInfoPvPS4_
MZm:dynCall_viiifi
qdc:__ZN18GfxFramebufferGLES20ActiveContextChangedEPP17RenderSurfaceBaseS2_
LJb:__Z19PluginsRenderMarkeri
u$:__ZN10HumanTrait18InitializeBoneNameEv
AEc:__ZNSt3__26vectorIN9ShaderLab20SerializedSubProgram15StructParameterENS_9allocatorIS3_EEE6assignINS_11__wrap_iterIPS3_EEEENS_9enable_ifIXaasr21__is_forward_iteratorIT_EE5valuesr16is_constructibleIS3_NS_15iterator_traitsISC_E9referenceEEE5valueEvE4typeESC_SC_
fAm:__ZNSt3__214__split_bufferIN6il2cpp2vm5Image20EmbeddedResourceDataERNS_9allocatorIS4_EEEC2EjjS7_
TTg:__ZL66SkeletonBone_t4134054672_CustomAttributesCacheGenerator_parentNameP21CustomAttributesCache
Mre:__ZNK5physx7NpCloth25getNbSelfCollisionIndicesEv
AQj:_Kernel_multiByteDivide_m4249920547
QHf:__Z69Register_UnityEngine_Analytics_UnityAnalyticsHandler_Internal_Destroyv
bai:_X509Certificate2Collection_Add_m3151757943
Dkf:__ZN9Scripting11UnityEngine13CharacterInfo9InitProxyEv
qtj:_DateTime_AddMilliseconds_m3713972790
O9i:_CaseInsensitiveHashCodeProvider_get_DefaultInvariant_m4264275163
HOk:__Z195RuntimeInvoker_Int32_t2950945753_RuntimeObject_Int32_t2950945753_Int32_t2950945753_Int32_t2950945753_RuntimeObject_DecoderFallbackBufferU26_t3866396827_ByteU5BU5DU26_t4057885439_SByte_t1669577662PFvvEPK10MethodInfoPvPS4_
aIe:__ZN5physx2Sc5Scene22setNbContactDataBlocksEj
bga:__ZN5physx14PxLightCpuTask12addReferenceEv
DYa:__ZNK15InstancingProps35FillInstanceBufferDispatchConstantsIN10Instancing14RenderLoopArgsEEEvPPvjjRK19ShaderPropertySheetRKT_
P0k:__Z86RuntimeInvoker_Int32_t2950945753_Color32_t2600501292_Color32_t2600501292_RuntimeObjectPFvvEPK10MethodInfoPvPS4_
nhb:__ZN21EnlightenSceneMapping8TransferI19StreamedBinaryWriteILb0EEEEvRT_
zCm:__ZN6il2cpp2gc16GarbageCollector19InitializeFinalizerEv
FL:__ZN7mecanim8skeleton18CreateSkeletonMaskEjPKNS0_19SkeletonMaskElementERNS_6memory9AllocatorE
Dcd:__ZN10GUIManager10DoGUIEventER10InputEventb
VSb:__Z35Transfer_Blittable_FixedBufferFieldI24GenerateTypeTreeTransferxEvRK29SerializationCommandArgumentsR31RuntimeSerializationCommandInfo
Fsf:_otv_LangSys_validate
wBh:_RectOffset_get_right_m2294081512
DXl:__ZL25UnresolvedVirtualCall_154P12Il2CppObjectfPK10MethodInfo
g8k:_Array_InternalArray__set_Item_TisLink_t544317964_m1234244240_gshared
hxf:_UNITY_TT_Init_Glyph_Loading
I0c:__Z20CalculateSqrDistanceRK8Vector3fRK4AABB
Idf:__ZN14PhysicsManager15ProcessContactsEv
LMh:_SerializationInfo_GetBoolean_m1756153320
hSd:__ZN21BoxTraceSegmentReport7onEventEjPj
Lee:__ZN5physx2Sc21ArticulationJointCore13setSwingLimitEff
N7:__Z32AudioMixerDuckingProcessCallbackP21UnityAudioEffectStatePfS1_jii
IXd:__ZL20HullProjectionCB_BoxRKN5physx2Gu13PolygonalDataERKNS_6PxVec3ERKNS_2Cm8Matrix34ERKNS7_23FastVertex2ShapeScalingERfSE_
Tvh:_Mesh_get_uv2_m3615020997
ZJe:__ZN5physx17PxcNpMemBlockPool19releaseUnusedBlocksEv
n$j:_EqualityComparer_1_System_Collections_IEqualityComparer_Equals_m4172006498_gshared
CWe:__ZN5physx14PxsAABBManager21selfCollideAggregatesEPKNS_19AggregateSortedDataE
r3:__ZN12AudioManager8TransferI24GenerateTypeTreeTransferEEvRT_
avh:_Mathf_Round_m4098141538
LAd:__ZN16CustomDataModuleD0Ev
LSc:__ZZL31RegisterRectTransformPropertiesR22GenericPropertyBindingEN28Wrapper_RectTransformPivotx013GetFloatValueEPv
IU:__ZN13dynamic_arrayI11KeyframeTplI11QuaternionfELj0EE18resize_initializedEj12ResizePolicy
evm:__ZN6il2cpp6icalls8mscorlib6System9Threading6Thread20Thread_free_internalEP12Il2CppThreadi
o5b:__ZNK11PreloadData18GetInstanceIDArrayER13dynamic_arrayIiLj0EE
wZg:__ZL64UnityAnalyticsHandler_t3011359618_CustomAttributesCacheGeneratorP21CustomAttributesCache
Q4h:__KeysEnumerator_get_Current_m2996478063
kYm:dynCall_iifff
yta:__Z32scripting_class_get_assemblyname17ScriptingClassPtr
FJf:__ZN11UnityEngine15PlatformWrapper15GetVRDeviceNameEv
WA:__Z24CrowdUpdateMultiThreadedRK17ReadonlyCrowdInfoR15UpdateCrowdInfoP12CrowdManagerPP12NavMeshQueryf
CYk:__Z99RuntimeInvoker_Boolean_t97287965_Int32_t2950945753_PointerEventDataU26_t867828220_SByte_t1669577662PFvvEPK10MethodInfoPvPS4_
QSe:__ZN5physx26PxcFrictionPatchStreamPairC2ERNS_17PxcNpMemBlockPoolE
Xii:_InternalEnumerator_1_get_Current_m2128158355_AdjustorThunk
eHb:__ZN9GfxDevice21RegisterNativeTextureE9TextureIDi16TextureDimension
V1f:_GraphicRegistry__ctor_m1851575309
v2k:__Z52RuntimeInvoker_Void_t1185182177_Keyframe_t4206410242PFvvEPK10MethodInfoPvPS4_
TOm:__ZN6il2cpp6icalls8mscorlib6System10Reflection4Emit11TypeBuilder20create_generic_classEP27Il2CppReflectionTypeBuilder
d3b:__ZN20LocalFileSystemWebGL4CopyER13FileEntryDataS1_
oHj:_PlayableHandle_IsPlayableOfType_TisAnimationLayerMixerPlayable_t3631223897_m201603007_gshared
rda:__Z60Register_UnityEngine_AudioListener_GetNumExtensionPropertiesv
vj:_emscripten_glUniformMatrix4fv
gtm:__ZN15dense_hashtableINSt3__24pairIK10KeyWrapperINS1_IP11Il2CppClassjEEES4_EES6_N6il2cpp8metadata14ArrayClassHashEN14dense_hash_mapIS6_S4_SB_NS6_14EqualsComparerINSA_17ArrayClassCompareEEENS0_9allocatorIS8_EEE9SelectKeyESF_SH_E13set_empty_keyERKS8_
Nxb:__ZN12ScriptMapperD2Ev
ANd:__ZN9Rigidbody13AwakeFromLoadE17AwakeFromLoadMode
Wvh:_Mesh_get_colors32_m1253190811
rmd:__ZN9SubModule8TransferI14SafeBinaryReadEEvRT_
dLm:_GC_stopped_mark
YQf:__ZL59__ManagedRegistrationHelperFunction_SubsystemDescriptorBasePv
ymh:_AnimationCurve_Finalize_m2397002729
Uld:__ZN14ParticleSystem15AddCustomLightsERK27LocalLightCullingParametersRK11CullResultsR12ActiveLightsRi9LightType
qke:__ZNK5physx14NpSceneQueries10multiQueryINS_12PxOverlapHitEEEbRKNS_15MultiQueryInputERNS_13PxHitCallbackIT_EENS_7PxFlagsINS_9PxHitFlag4EnumEtEEPKNS_12PxQueryCacheERKNS_17PxQueryFilterDataEPNS_21PxQueryFilterCallbackEPNS_20BatchQueryFilterDataE
X6k:__Z50RuntimeInvoker_RuntimeObject_ColorTween_t809614380PFvvEPK10MethodInfoPvPS4_
JUh:_InputField_OnFillVBO_m3649106646
qMh:_SerializationCallbacks__cctor_m1674315180
vbm:__ZNK15dense_hashtableI10KeyWrapperIPK19Il2CppGenericMethodES4_N6il2cpp8metadata23Il2CppGenericMethodHashEN14dense_hash_setIS4_S7_NS4_14EqualsComparerINS6_26Il2CppGenericMethodCompareEEENSt3__29allocatorIS4_EEE8IdentityESB_SE_E23find_position_with_hashERKS4_j
yVa:__ZNSt3__26vectorIN12FlareManager10FlareEntryENS_9allocatorIS2_EEE21__push_back_slow_pathIS2_EEvOT_
oHc:__ZN9ShaderLab20SerializedSubProgram16TextureParameter8TransferI19StreamedBinaryWriteILb0EEEEvRT_
Db:invoke_fiiiiiiiifiiiif
KCd:__ZN14ParticleSystem23RendererBecameInvisibleEv
POa:__ZNK7Hash12812PackToUInt32Ev
W8i:_SynchronizedArrayListWrapper_IndexOf_m3642674350
qva:__ZNSt3__227__insertion_sort_incompleteIRNS_6__lessI14ObjectLoadDataS2_EEPS2_EEbT0_S6_T_
Lka:__ZN11UnityEngine15CloudWebService16SessionContainer8AddEventEPNS0_14CloudEventInfoE
kLb:__Z4TrimRKN4core12basic_stringIcNS_20StringStorageDefaultIcEEEES5_
Ubl:_Dictionary_2_Do_ICollectionCopyTo_TisKeyValuePair_2_t3842366416_m1399105608_gshared
ojk:_UInt64_ToString_m2177233542
n9h:_X509Certificate2_Import_m4026562329
bwi:_Enumerator_System_Collections_IEnumerator_get_Current_m2763095718_AdjustorThunk
h3m:_glGetStringi__wrapper
Xhb:__ZN10VertexData8TransferI14SafeBinaryReadEEvRT_
Sde:__ZN5physx19NpArticulationJointD0Ev
nBa:__ZN13RuntimeStaticI12AdsIdHandlerLb0EE16StaticInitializeEPv
TMm:_GC_malloc_atomic
Yff:__ZN5physx9NpPhysics14createInstanceEjRNS_12PxFoundationERKNS_17PxTolerancesScaleEbPNS_20PxProfileZoneManagerE
gef:__Z59Register_UnityEngine_Physics_INTERNAL_CALL_Internal_Raycastv
m3j:_HashSet_1_GetEnumerator_m3346268098_gshared
GPm:__ZN6il2cpp5utils6Memory13AlignedMallocEjj
$Uh:_Selectable_get_animator_m2899312855
Bra:__ZL20SortItemByInstanceIDRKN18AwakeFromLoadQueue4ItemES2_
wGh:_Vector2_op_Multiply_m2347887432
Bgf:__ZN5physx6shdfnd5ArrayIPvNS0_15InlineAllocatorILj256ENS0_19ReflectionAllocatorINS_24NpPtrTableStorageManager8PtrBlockILi16EEEEEEEE15growAndPushBackERKS2_
g5h:_TypeConverterAttribute__ctor_m1774069684
QL:__ZNK34AnimationStateMachineMixerPlayable26GetInterruptedPosePlayableEv
sMf:__ZN20UnityConnectSettings8TransferI24GenerateTypeTreeTransferEEvRT_
und:__ZN25IParticleSystemProperties8PropertyIfNS_11ClampRadiusEE8TransferI14SafeBinaryReadEEvRT_PKc
vO:__ZN34BlobWriteTransferSTLStyleArrayImplI22OffsetPtrArrayTransferIbEEclERS1_17TransferMetaFlagsR9BlobWrite
TUc:__ZZN12MeshRenderer15InitializeClassEvEN29FunctorImpl_205kDidDeleteMesh4CallEPviR11MessageData
$_i:_Byte_ToString_m4063101981
nch:_MonoType_GetConstructors_m2574682189
Zcm:__ZN6il2cpp2vm13MetadataCache31GetParameterDefinitionFromIndexEi
TCh:_SceneManager_LoadSceneAsyncNameIndexInternal_m4031498323
Ioe:__ZN5physx7NpShape13setRestOffsetEf
cr:__ZN12NavMeshAgent5ResetEv
Y5h:_ServicePointManager_FindServicePoint_m4119451290
xya:__ZL31InitializeRendererUpdateManagerPv
Aag:_ParameterInfo__ctor_m2779026345
USh:_InputField_set_onValueChange_m1251390545
xHa:__ZN9Scripting11UnityEngine18WaitForFixedUpdate12CleanupProxyEv
kkf:__GLOBAL__sub_I_artifacts_WebGL_codegenerator_0_cpp_5807
ipe:__ZN5physxL11getTriangleERKNS_2Gu12TriangleMeshEjPNS_6PxVec3EPKS4_PKvRKNS_2Cm8Matrix34Eb
QGa:__ZL46__ManagedRegistrationHelperFunction_RectOffsetPv
FLd:__ZN14SafeBinaryRead21TransferSTLStyleArrayINSt3__26vectorIjNS1_9allocatorIjEEEEEEvRT_17TransferMetaFlags
nqe:__ZNK5physx7NpCloth16lockParticleDataEv
Tyl:_X509Certificate_PEM_m2020851166
bOh:_SByte_Equals_m865896384_AdjustorThunk
d7k:_Array_InternalArray__Insert_TisDateTime_t3738529785_m2308632330_gshared
Zpb:__ZN11TimeManager8TransferI19StreamedBinaryWriteILb0EEEEvRT_
sLi:_TlsServerCertificateRequest_ProcessAsTls1_m3214041063
$sf:_compare_uni_maps
uKf:__ZN11UnityEngine15PlatformWrapper27GetGraphicsCapsSupportFlagsEv
Vbl:_Dictionary_2_Do_ICollectionCopyTo_TisRuntimeObject_m3695543300_gshared
NLe:__ZN5physx13NpRigidStatic9visualizeERNS_2Cm12RenderOutputEPNS_7NpSceneE
BWb:__ZN12NativeBufferI16Converter_StringE15SetupForWritingER9ArrayInfo
pRj:_SequentialSearchPrimeGeneratorBase_GenerateSearchBase_m3595783982
Pnb:__ZThn32_N19SkinnedMeshRendererD1Ev
V0:__ZN13RuntimeStaticI18AssetBundleManagerLb1EE16StaticInitializeEPv
J4m:___cxa_end_catch__wrapper
Pj:_emscripten_glVertexAttrib3fv
XDd:__ZL24GenerateParticleGeometryIL24ParticleSystemRenderMode0ELb1ELb0EL25ParticleSystemRenderSpace4EEvPfRK22ParticleSystemTempDataRK26ParticleSystemRendererDataRK21ParticleSystemModulesRK23ParticleSystemParticlesRK31ParticleSystemParticlesTempData
iOe:__ZN5physx6shdfnd8PoolBaseINS_2Sc35ParticleElementRbElementInteractionENS0_19ReflectionAllocatorIS3_EEE15disposeElementsEv
IOi:_SHA1CryptoServiceProvider_Dispose_m1653611664
L6i:_Char_ToString_m278452217
Spk:_ReadOnlyCollection_1_System_Collections_IList_set_Item_m4047645019_gshared
$Qf:__ZL50__ManagedRegistrationHelperFunction_ReferencePointPv
lDi:_BigInteger_op_RightShift_m460065452
o2b:__ZN13MonoBehaviour22DoScriptRebuildWarningEv
t$c:__ZNK10GameObject22GetComponentPtrAtIndexEi
dXc:__ZZL23RegisterLightPropertiesR22GenericPropertyBindingEN22Wrapper_LightSpotAngle13GetFloatValueEPv
uUf:_ExecuteEvents_get_cancelHandler_m1220395193
ezf:__Z38TextGenerator_Get_Custom_PropLineCountP12Il2CppObject
cyl:_InternalAsyncResult_SetComplete_m963842420
FWi:_Encoding_GetEncoding_m2801244948
bdd:__ZN11IMGUIModule25GetGUIStyleScriptingClassEv
zvf:_tt_get_interface
gyl:_SslStreamBase_EndRead_m495357226
Rum:__ZN6il2cpp5utils9PathUtils7CombineIcEENSt3__212basic_stringIT_NS3_11char_traitsIS5_EENS3_9allocatorIS5_EEEERKSA_SC_
MWe:__ZN5physx14PxsAABBManager16processBPResultsERKNS_20PxsComputeAABBParamsE
TUe:__ZN5physx23PxsBroadPhaseContextSapD2Ev
$Qk:__Z64RuntimeInvoker_RuntimeObject_SByte_t1669577662_SByte_t1669577662PFvvEPK10MethodInfoPvPS4_
m0c:__ZN13PlayableGraph21InvalidateMultithreadEv
HLl:_GUIScrollGroup_CalcHeight_m3173593443
zv:__ZN14NavMeshManager9PurgeDataEPK11NavMeshData
wcf:__ZN5physx12SubSortQuickC2EPjPKNS_10PxBounds3VEjf
zjh:_EnumBuilder_GetConstructorImpl_m3068576149
Bqa:__Z18ConvertUTF16toUTF8PPKtS0_PPhS2_15ConversionFlags
OGm:__ZN6il2cpp2os20PathErrnoToErrorCodeERKNSt3__212basic_stringIcNS1_11char_traitsIcEENS1_9allocatorIcEEEEi
W1g:__ZL68InputField_t3762917431_CustomAttributesCacheGenerator_m_KeyboardTypeP21CustomAttributesCache
I3c:__Z24GetActualTargetFrameRatev
r1l:__ZL16my_g_bit_nth_msfj
KPi:_SHA512Managed_Sigma1_m922902398
Znb:__Z20DeformSkinnedMeshJobP12SkinMeshInfo
Ppl:_Enumerator_MoveNext_m3662315381_AdjustorThunk
aLi:_TlsClientFinished_ProcessAsTls1_m2429863130
xlc:__Z23SetupStereoFlareElementP11FlareVertexRK8Vector2fS3_S3_RK11ColorRGBA32RK10Matrix4x4fRK8Vector3fb
d6l:__ZN6il2cpp2vm5Class15GetInstanceSizeEPK11Il2CppClass
Ya:invoke_iiiifiiii
iui:_Enumerator_System_Collections_IDictionaryEnumerator_get_Key_m2502357460_AdjustorThunk
fHd:__ZN11ShapeModule13DidDeleteMeshEv
Nse:__ZNK5physx2Sc9ClothCore16getRestPositionsEPNS_6PxVec4E
zRe:__ZN5physx20PxcSweepConvexConvexERKNS_11PxsCCDShapeES2_PKNS_12PxsRigidBodyES5_RKNS_11PxTransformES8_S8_S8_fRNS_6PxVec3ESA_RNS_10PxcNpCacheERNS_18PxcNpThreadContextEf
sGh:_Vector2_Equals_m832062989_AdjustorThunk
Uve:__ZN5physx15PxsParticleDataD0Ev
Wdc:__ZL19BlitFramebufferImplRN4gles23BlitFramebufferDrawQuadER9GfxDevice9TextureIDRK8Vector4f
paf:__ZN5physx6shdfnd5ArrayIPvNS0_19ReflectionAllocatorIN17PxcPoolMallocData9PoolData8EEEE15growAndPushBackERKS2_
gjm:__ZN15dense_hashtableINSt3__24pairIK10KeyWrapperIPK10Il2CppTypeEjEES6_N6il2cpp8metadata14Il2CppTypeHashEN14dense_hash_mapIS6_jSB_NS6_14EqualsComparerINSA_26Il2CppTypeEqualityComparerEEENS0_9allocatorIS8_EEE9SelectKeyESF_SH_E4findERS7_
iYm:dynCall_viiiiiiiiiiiiii
anf:_UNITY_FT_List_Add
aYc:__ZN14Texture2DArray11InitTextureEiii13TextureFormatb
Pzl:_X509Extension__ctor_m1474351312
ZBk:_InvokableCall_1_Invoke_m1524307439_gshared
HMd:__ZN5physx15PxGeometryQuery14getWorldBoundsERKNS_10PxGeometryERKNS_11PxTransformEf
aue:__ZN5physx2Sc9ClothCore18setSolverFrequencyEf
Elj:_Directory_CreateDirectoriesInternal_m3735342319
Y6c:__Z41Camera_CUSTOM_WorldToScreenPoint_InjectedP12Il2CppObjectRK8Vector3fRS1_
ref:__ZN8ColliderC2E10MemLabelId18ObjectCreationMode
bom:__ZN15dense_hashtableINSt3__24pairIK10KeyWrapperINS1_IPK11Il2CppImageP11Il2CppClassEEEjEES9_17ReflectionMapHashIS8_EN14dense_hash_mapIS9_jSD_NS9_14EqualsComparerINS0_8equal_toIS8_EEEENS0_9allocatorISB_EEE9SelectKeyESI_SK_E14squash_deletedEv
PPi:_SHAConstants__cctor_m1699027474
tqb:__ZN9InputAxis8TransferI18StreamedBinaryReadILb0EEEEvRT_
EXd:__ZN5physx2Gu16buildPartialHullERKNS0_13PolygonalDataEPNS0_12SupportLocalERNS0_14SeparatingAxesERKNS_6shdfnd3aos5Vec3VESC_
Qsb:__Z14resize_trimmedINSt3__26vectorIN4core12basic_stringIcNS2_20StringStorageDefaultIcEEEE13stl_allocatorIS6_L18MemLabelIdentifier13ELi16EEEEEvRT_j
ela:__GLOBAL__sub_I_Runtime_2D_SpriteAtlas_0_cpp
KNb:__Z18Transfer_BlittableI14SafeBinaryReadLb0EaEvRK29SerializationCommandArgumentsR31RuntimeSerializationCommandInfo
P6i:_CharEnumerator_System_Collections_IEnumerator_get_Current_m1328529384
GNl:_U3CUpdateCountdownBarU3Ec__Iterator0_MoveNext_m592157195
Vzj:_DBNull__ctor_m3431698857
Vud:__ZN11NoiseModule17CalculateNoiseJobILi3ELb1ELb1EEEvP12NoiseJobData
Mfb:__ZN4core8hash_setINS_4pairIKiiLb0EEENS_9hash_pairINS_4hashIiEES2_iEENS_10equal_pairINSt3__28equal_toIiEES2_iEEE6insertERKS3_
wQi:_TripleDES_IsWeakKey_m2147489852
ede:__ZNK5physx2Sc16ArticulationCore17releaseDriveCacheERNS_9PxcFsDataE
CZh:_GetRayIntersectionAllCallback_Invoke_m1316694896
rxf:_UNITY_FT_List_Iterate
a_:__ZN24GenerateTypeTreeTransfer8TransferIN7mecanim8skeleton8SkeletonEEEvRT_PKc17TransferMetaFlags
s1d:__ZN5physx11NpAggregate7releaseEv
i6i:_Char_System_IConvertible_ToUInt64_m3536560782
J_j:_EqualityComparer_1__cctor_m3452395357_gshared
qW:__ZN19StreamedBinaryWriteILb0EE8TransferIKN4math7_float3EEEvRT_PKc17TransferMetaFlags
Xjc:__Z20SyncFenceCullResultsR11CullResults
Cfc:__ZN15TextureTFMethod20IsBoneCountSupportedEi
sDj:_Double_ToString_m3828879243_AdjustorThunk
eSb:__Z22TransferField_NonArrayI17RemapPPtrTransfer27Converter_SimpleNativeClassI8GUIStyleEEvRK23StaticTransferFieldInfoR31RuntimeSerializationCommandInfoRT0_
Coe:__ZN5physx7NpShape12setMaterialsEPKPNS_10PxMaterialEt
rPf:__ZNK20UnityWebRequestProtoI24UnityWebRequestTransport16AtomicRefCounter14RedirectHelper14ResponseHelper15DownloadHandler13UploadHandler18CertificateHandler12HeaderHelper14AsyncOperationE16GetUploadedBytesEv
mQc:__ZNK17AnimationCurveTplIfE20EvaluateWithoutCacheEfRf
gVk:__Z67RuntimeInvoker_Boolean_t97287965_Rect_t2360479859_SByte_t1669577662PFvvEPK10MethodInfoPvPS4_
Q6:__ZN10AudioMixer23GetInitialSnapshotIndexEv
lhh:_CustomAttributeData__ctor_m2966233049
bZf:_CanvasUpdateRegistry_PerformUpdate_m1793997159
H1c:__ZN4Mesh10SetNormalsEPK8Vector3fj
eNl:_AesManaged_CreateDecryptor_m692040246
VHm:__ZNSt3__212basic_stringIDsNS_11char_traitsIDsEENS_9allocatorIDsEEE9__grow_byEjjjjjj
YOl:_LightningAttack__ctor_m1880461227
ST:__ZN17AnimationCurveTplIfE8TransferI14SafeBinaryReadEEvRT_
m8k:_Array_InternalArray__set_Item_TisInt16_t2552820387_m2544074754_gshared
l1i:_ArithmeticException__ctor_m3551809662
nZc:__Z46CleanupLineParametersAnimationBindingInterfacev
GYc:__Z40CleanupRendererAnimationBindingInterfacev
bDd:__ZN22ParticleSystemRenderer15InitializeClassEv
Lzc:__Z29StdTemplateConversionFunctionIybEbPvR14SafeBinaryRead
teb:__ZNSt3__26vectorIN15QualitySettings14QualitySettingENS_9allocatorIS2_EEE6assignIPS2_EENS_9enable_ifIXaasr21__is_forward_iteratorIT_EE5valuesr16is_constructibleIS2_NS_15iterator_traitsIS9_E9referenceEEE5valueEvE4typeES9_S9_
a_d:__Z15raycast_capsuleRKN5physx10PxGeometryERKNS_11PxTransformERKNS_6PxVec3ES8_fNS_7PxFlagsINS_9PxHitFlag4EnumEtEEjPNS_12PxRaycastHitEbPFbRSD_PvESG_
B8j:_List_1_CheckCollection_m1671972112_gshared
Gvi:_Enumerator_System_Collections_IEnumerator_get_Current_m1747693366_gshared
eak:_UnicodeEncoding_GetPreamble_m3002287178
D3e:__ZNK5physx34PxsSolverConstraintPostProcessTask7getNameEv
c4g:__ZL56Toggle_t2735377061_CustomAttributesCacheGenerator_m_IsOnP21CustomAttributesCache
SKb:__ZN20GpuProgramParameters14AddVectorParamEPKcii15ShaderParamTypeiiiP16PropertyNamesSet
qOf:__ZN9Scripting19UnityEngineInternal15WebRequestUtils12CleanupProxyEv
IRd:__ZN5physx2Gu23distancePointBoxSquaredERKNS_6PxVec3ES3_S3_RKNS_7PxMat33EPS1_
nif:__ZN5physx9NpPhysics20MeshDeletionListener28onGuMeshFactoryBufferReleaseEPKNS_6PxBaseEtb
NOf:__ZNK12HeaderHelper3GetERKN4core12basic_stringIcNS0_20StringStorageDefaultIcEEEE
qqb:__ZN9InputAxis8TransferI14SafeBinaryReadEEvRT_
Qra:__ZNK21ExecutionOrderManager30GetCustomAwakeFromLoadQueueForEPKN5Unity4TypeE
XFe:__ZNK5physx7NpScene9getActorsENS_7PxFlagsINS_15PxActorTypeFlag4EnumEtEEPPNS_7PxActorEjj
MNf:__Z27RegisterModule_UnityConnectv
HSc:__ZZL31RegisterRectTransformPropertiesR22GenericPropertyBindingEN32Wrapper_RectTransformSizeDeltax013GetFloatValueEPv
Coj:_MemoryStream_Expand_m3554752073
Nej:_DateTimeFormatInfo_get_RoundtripPattern_m796050488
NNe:__ZN5physx11NodeManagerD0Ev
cRm:__ZN6il2cpp2os20ThreadLocalValueImpl8SetValueEPv
dDh:_ScriptableObject_CreateInstance_m2611081756
FIg:__ZL115TouchScreenKeyboard_t731888065_CustomAttributesCacheGenerator_TouchScreenKeyboard_Open_m3609399077____keyboardType1P21CustomAttributesCache
fpi:_InternalEnumerator_1_System_Collections_IEnumerator_get_Current_m1635397542_gshared
hpj:_Path__cctor_m3273994011
PPl:_AnalyticsEventTracker__ctor_m3064238498
rWm:__ZNSt11logic_errorD2Ev
oyj:_DateTimeUtils_CountRepeat_m3396693018
wkk:_WeakReference_get_Target_m168713953
h1m:_glBindRenderbuffer__wrapper
q6:__ZN10ObjectPoolIN4FMOD12ChannelGroupENS0_13ChannelGroupIEE7SetSizeEi
RMl:_SymmetricTransform_FinalDecrypt_m764004682
cGm:__ZN6il2cpp2os10ThreadImpl33UnregisterCurrentThreadForCleanupEv
nqk:_ReadOnlyCollection_1_System_Collections_IList_Remove_m1965826685_gshared
Vkd:__ZN9Scripting11UnityEngine26ParticleSystemVertexStream9InitProxyEv
BFl:_Parser_ParseGroupingConstruct_m263270497
KNf:__ZN11UnityEngine9Analytics22EventLimitReachedEventC2EjyyRKN4core12basic_stringIcNS2_20StringStorageDefaultIcEEEEb
hX:__ZN15SerializeTraitsINSt3__24pairI8StateKey10StateRangeEEE8TransferI14SafeBinaryReadEEvRS4_RT_
hom:__ZN14dense_hash_mapI10KeyWrapperINSt3__24pairIPK9EventInfoP11Il2CppClassEEEj17ReflectionMapHashIS8_ENS9_14EqualsComparerINS1_8equal_toIS8_EEEENS1_9allocatorINS2_IKS9_jEEEEE15set_deleted_keyERSH_
Xqe:__ZNK5physx7NpCloth25getMotionConstraintConfigEv
COc:__Z12GUIDToStringRK9UnityGUID
qHh:_Vector4_op_Division_m264790546
xDm:__ZN6il2cpp6icalls8mscorlib6System4Enum12get_hashcodeEP12Il2CppObject
raa:__ZN11SoundHandleC2ERKS_
SBj:_Delegate_CreateDelegate_m1051651521
ZF:__ZN17AnimationPlayableC2E18DirectorPlayerType
pNf:__ZN22UnityAnalyticsSettingsC2Ev
zbm:__ZNK6il2cpp5utils11collections13ArrayValueMapIPK10Il2CppType17Il2CppInteropData26InteropDataToTypeConverterNS_8metadata14Il2CppTypeLessENS8_26Il2CppTypeEqualityComparerEE10find_firstERKS5_
NW:__ZN18AnimatorController23VirtualRedirectTransferER18StreamedBinaryReadILb0EE
Zmj:_FileStream_get_CanSeek_m331583577
_B:__ZNSt3__26__sortIR23DependencySortPredicatePN4core4pairIiP9BehaviourLb0EEEEEvT0_S9_T_
UPh:_DSAParameters_t1885824122_marshal_pinvoke_back
N$d:__ZN5physx3Cct26CharacterControllerManager24setOverlapRecoveryModuleEb
xM:__ZN8Animator22OnGraphTopologyChangedEP8Playablei
eRj:_Kernel_MultiplyByDword_m1266935086
SHm:__ZN4utf89unchecked8utf8to16INSt3__220back_insert_iteratorINS2_12basic_stringIDsNS2_11char_traitsIDsEENS2_9allocatorIDsEEEEEEPKcEET_T0_SE_SD_
GI:__ZN17AnimationPlayable18DeallocateBindingsEv
yKk:__Z158RuntimeInvoker_Boolean_t97287965_RuntimeObject_Int32U26_t1369213839_Int32_t2950945753_Int32_t2950945753_RuntimeObject_SByte_t1669577662_ContextU26_t3937453398PFvvEPK10MethodInfoPvPS4_
oVi:_String_Trim_m3384720403
b1a:__ZN14RenderSettings18TransferDeprecatedI14SafeBinaryReadEEvRT_
iwm:__ZN6il2cpp2vm9Exception27RaiseNullReferenceExceptionERKNS_5utils10StringViewIDsEEP19Il2CppSequencePoint
HJl:_Event__ctor_m526447123
YRk:__Z88RuntimeInvoker_RuntimeObject_RuntimeObject_RuntimeObject_RuntimeObject_Int32_t2950945753PFvvEPK10MethodInfoPvPS4_
lgk:_Type_ToString_m3975981286
nna:__ZN12TLSAllocatorI14StackAllocatorE8AllocateEji
GUl:_ConsumeSampleFramesNativeFunction_BeginInvoke_m342678987
Psa:__ZN16ScriptingManager18GetMonoScriptCacheEi
ged:__ZN8JSONRead21TransferSTLStyleArrayI13dynamic_arrayI11KeyframeTplIfELj0EEEEvRT_17TransferMetaFlags
Fhc:__ZN20ArchiveStorageHeader13GetDataOffsetERKNS_6HeaderE
PFl:_ExpressionAssertion__ctor_m2554412824
N9k:_Array_Resize_TisCustomAttributeTypedArgument_t2723150157_m3021884250_gshared
T3j:_Enumerator_System_Collections_IEnumerator_get_Current_m2237476582_gshared
RNb:__Z18Transfer_BlittableI14SafeBinaryReadLb1EyEvRK29SerializationCommandArgumentsR31RuntimeSerializationCommandInfo
xkk:_WeakReference_Finalize_m2841826116
ltd:__ZNSt3__27__sort5IR31SortCollisionEventsByGameObjectP22ParticleCollisionEventEEjT0_S5_S5_S5_S5_T_
vdh:_NullReferenceException__ctor_m3076065613
hed:__ZN8JSONRead8TransferIfEEvRT_PKc17TransferMetaFlagsb
$Hc:__ZN9ShaderLab7Program22ComputeSupportsShadowsEv
$7h:_X509SubjectKeyIdentifierExtension_Decode_m1505409124
Ire:__ZN5physx7NpCloth25setSelfCollisionStiffnessEf
MPl:_AnalyticsEventParamListContainer__ctor_m1995104893
TUi:_String_System_IConvertible_ToUInt16_m2888090399
r9:__ZN11AudioSource21ApplyCachedParametersE12SoundChannel
hgh:_Assembly_InternalGetType_m3065345470
Yfa:__ZN13Simd4iFactoryIN6detail9FourTupleEEC2Eiiii
ecg:_ResourceSet__ctor_m3356376607
aug:__ZL56_ParameterInfo_t489405856_CustomAttributesCacheGeneratorP21CustomAttributesCache
Pgb:__ZN15SerializeTraitsI33EnlightenTerrainChunksInformationE8TransferI14SafeBinaryReadEEvRS0_RT_
ZYc:__ZNK32RendererMaterialAnimationBinding9BindValueER6ObjectRKN11UnityEngine9Animation14GenericBindingERNS3_10BoundCurveE
Yzi:_Transform_1_Invoke_m1731820209_gshared
A3a:__Z13GetIAnimationv
dab:__ZL18stbir__support_onef
kUi:_Single_CompareTo_m189772128
Wfd:__Z26Transfer_UnityEngineObjectI9JSONWriteLb0EEvRK29SerializationCommandArgumentsR31RuntimeSerializationCommandInfo
uri:_DefaultComparer_Compare_m4042058291_gshared
lAd:__ZN14VelocityModuleD2Ev
L7a:__ZNSt3__26vectorIN4core12basic_stringIcNS1_20StringStorageDefaultIcEEEE13stl_allocatorIS5_L18MemLabelIdentifier1ELi16EEE6assignINS_11__wrap_iterIPS5_EEEENS_9enable_ifIXaasr21__is_forward_iteratorIT_EE5valuesr16is_constructibleIS5_NS_15iterator_traitsISF_E9referenceEEE5valueEvE4typeESF_SF_
cZm:dynCall_iiiifii
SFf:__ZNSt3__27__sort5IRNS_6__lessIN2UI14DepthSortEntryES3_EEPS3_EEjT0_S7_S7_S7_S7_T_
Jmj:_FileLoadException_ToString_m2989457882
eOk:__Z165RuntimeInvoker_Void_t1185182177_UInt32U26_t3735378166_Int32_t2950945753_UInt32U26_t3735378166_Int32_t2950945753_Int32_t2950945753_Int32_t2950945753_Int32_t2950945753PFvvEPK10MethodInfoPvPS4_
Hmf:_UNITY_FT_DivFix
edl:_Array_InternalArray__get_Item_TisDecimal_t2948259380_m3511003792_gshared
R1:__ZL45__ManagedRegistrationHelperFunction_AudioClipPv
ERi:_SecurityElement_IsValidAttributeValue_m948345692
Bz:__ZN12NavMeshQuery18InitSlicedFindPathEyyRK8Vector3fS2_PK11QueryFilter
mYc:__ZN14Texture2DArrayC2E10MemLabelId18ObjectCreationMode
Ia:invoke_vdd
go:FUNCTION_TABLE_fiii
EFg:__ZL75g_UnityEngine_SharedInternalsModule_Assembly_CustomAttributesCacheGeneratorP21CustomAttributesCache
N$c:__Z19RegisterModule_Corev
RZ:__ZN14SafeBinaryRead21TransferSTLStyleArrayI19StaticArrayTransferIiLi15EEEEvRT_17TransferMetaFlags
Nzf:__ZZ29InitializeTextRenderingModulevEN27cleanupAfterLoadRegistrator7ForwardEv
qv:__ZN20NavMeshBuildSettings8TransferI19StreamedBinaryWriteILb0EEEEvRT_
dK:__ZN27AnimationLayerMixerPlayable24ProcessAnimationLayerMixEP33AnimationPlayableEvaluationOutputP35AnimationPlayableEvaluationConstantP32AnimationPlayableEvaluationInputS1_if
pcj:_CCFixed_FromDateTime_m3894190577
VPm:__ZN6il2cpp6icalls8mscorlib4Mono8Security12Cryptography18KeyPairPersistence19_IsMachineProtectedEP12Il2CppString
Nvc:__Z29PluginsIssueRenderingExtEvent26UnityRenderingExtEventTypePv
OJk:__Z116RuntimeInvoker_RuntimeObject_RuntimeObject_Int32_t2950945753_RuntimeObject_RuntimeObject_RuntimeObject_RuntimeObjectPFvvEPK10MethodInfoPvPS4_
$Kh:_MessageFormatter_ReadMethodCall_m2327590823
BFd:__Z19UpdateSingleRow2TplIL27ParticleSystemCurveEvalMode2ELS0_2EEvfRK11MinMaxCurveS3_RK23ParticleSystemParticlesPfbiii
QXc:__Z14RandomRotationP9Texture2DPhiiii
$Lj:_Array_InternalArray__ICollection_Add_TisUInt16_t2177724958_m3981262878_gshared
Mhf:__ZThn132_N5physx7profile8ZoneImplINS_28PxProfileNameProviderForwardEED1Ev
j3j:_HashSet_1_Contains_m3173358704_gshared
GRl:_ToggleEvent__ctor_m834619998
xFi:_PKCS1_Encode_v15_m2077073129
_Lb:__ZN10Instancing11DrawAPIArgsC2ERK19ShaderPropertySheetPK8Vector4fS6_S6_i
mbi:_X509ChainElementCollection_System_Collections_IEnumerable_GetEnumerator_m3829089536
tx:__ZN7NavMesh18SetSurfaceSettingsEiRK20NavMeshBuildSettings
uGe:__ZN5physx7NpScene27setCCDContactModifyCallbackEPNS_26PxCCDContactModifyCallbackE
abf:__ZNK5physx17ConvexHullBuilder17ComputeGeomCenterERNS_6PxVec3E
vBh:_RectOffset_get_left_m1232181034
Stm:__ZNSt3__214__split_bufferIN6il2cpp8metadata18GenericArrayMethodERNS_9allocatorIS3_EEED2Ev
tVe:__ZN3MBPD0Ev
GKb:__ZN4gles14UseGLSLProgramER15DeviceStateGLESjbij
c5m:_glDeleteProgram__wrapper
lod:__ZN11ShapeModule18MultiModeParameterIN25IParticleSystemProperties8PropertyIfNS1_11ClampRadiusEEEE8TransferI24GenerateTypeTreeTransferEEvRT_
pab:__ZN6prcoreL18BlitFloatToIntegerERK14ImageReferenceRS0_
iAj:_DBNull_System_IConvertible_ToUInt32_m3784627971
vJi:_ClientSessionCache_Add_m964342678
AJe:__ZNK5physx10PxsContext18getBounceThresholdEv
O3c:__ZN23TransformChangeDispatch46GetAndClearChangedTransformsForMultipleSystemsEyR13dynamic_arrayI23TransformAccessReadOnlyLj0EERS0_IyLj0EEPN9profiling6MarkerE
gka:__ZN11UnityEngine15CloudWebService14RestDownloader17OnCompleteContentEv
Zhm:__ZN15dense_hashtableINSt3__24pairIK10KeyWrapperINS1_IPK14Il2CppAssemblyP11Il2CppClassEEEjEES9_17ReflectionMapHashIS8_EN14dense_hash_mapIS9_jSD_NS9_14EqualsComparerINS0_8equal_toIS8_EEEENS0_9allocatorISB_EEE9SelectKeyESI_SK_E15insert_noresizeERKSB_
YLb:__ZN10Instancing11DrawAPIArgsC2Ev
oFh:_Transform_get_localScale_m129152068
nBj:_DivideByZeroException__ctor_m3496959969
DEe:__ZN5physx6shdfnd5ArrayIPvNS0_15InlineAllocatorILj256ENS0_19ReflectionAllocatorINS_2Gu31SpherePersistentContactManifoldEEEEEE15growAndPushBackERKS2_
L5e:__ZN5physx2Cm18DelegateFanoutTaskINS_2Sc5SceneEXadL_ZNS3_17finalizationPhaseEPNS_10PxBaseTaskEEEE11runInternalEv
CZ:__ZN6Avatar8TransferI14SafeBinaryReadEEvRT_
fM:__ZN17AnimationPlayable28UpdateInternalStateRecursiveILi1ELb0EEEvPK35AnimationPlayableEvaluationConstant
NCm:__ZN6il2cpp2gcL10CleanupCCWEPvS1_
_a:invoke_vifff
F3m:_glGetVertexAttribiv__wrapper
vhe:__ZN5physx6shdfnd15atomicDecrementEPVi
nf:_emscripten_request_fullscreen
cAk:_Predicate_1_Invoke_m851618236_gshared
c3b:__ZN20LocalFileSystemWebGL6DeleteER13FileEntryDatab
pf:_emscripten_glDisableVertexAttribArray
JGj:_Array_InternalArray__ICollection_Remove_TisSingle_t1397266774_m3361324455_gshared
ao:FUNCTION_TABLE_iiiifiiii
sc:invoke_fifffi
_lk:_Collection_1_System_Collections_IList_Add_m2969482770_gshared
SRj:_BitConverterLE_GetBytes_m4130646282
jcc:__ZN4gles23ClearCurrentFramebufferEP7ApiGLESbbbRK10ColorRGBAffi
zK:__ZN7mecanim12statemachine20CreateStateWorkspaceEjjjRNS_6memory9AllocatorE
VDk:_UnityEvent_1_Invoke_m3604335408_gshared
Iaf:__ZN5physx2Gu11HeightField13releaseMemoryEb
Af:_emscripten_glDeleteObjectARB
gTf:_EventSystem_RaycastComparer_m3685368675
hdb:__Z14DecompressDXT3iiiPKjPj
HNk:__Z131RuntimeInvoker_Void_t1185182177_RuntimeObject_RuntimeObject_Int64_t3736567304_ObjectU26_t2146539884_SerializationInfoU26_t419328957PFvvEPK10MethodInfoPvPS4_
Hrd:__ZN12LightsModule5StartER23ParticleSystemParticlesjj
GSj:_DSAManaged_CreateSignature_m2233977444
v_i:_PKCS12_RemoveCertificate_m1421555398
w2h:_Slider_FindSelectableOnLeft_m1667068522
YCa:__ZN6prcoreL17RemapGenericFloatI17TexFormatRGBAHalf18TexFormatARGBFloatEEvPKNS_9InnerInfoE
z$e:__ZN5physx24PxsParticleSystemBatcher23scheduleShapeGenerationEPPNS_20PxvParticleSystemSimEPNS_28PxvParticleShapesUpdateInputEjRNS_10PxBaseTaskE
ecd:__Z14GetBuiltinSkini
Qfa:___cxx_global_var_init_12
zfa:___cxx_global_var_init_13
Ofa:___cxx_global_var_init_10
Pfa:___cxx_global_var_init_11
Kl:_JS_SystemInfo_GetBrowserVersionString
syb:__ZN2UI13RectTransform23VirtualRedirectTransferER14SafeBinaryRead
dHe:__ZN5physx7NpScene17flushQueryUpdatesEv
NFc:__ZNSt3__26vectorIN9ShaderLab20SerializedSubProgramENS_9allocatorIS2_EEE6assignIPS2_EENS_9enable_ifIXaasr21__is_forward_iteratorIT_EE5valuesr16is_constructibleIS2_NS_15iterator_traitsIS9_E9referenceEEE5valueEvE4typeES9_S9_
hid:__Z18Transfer_BlittableI8JSONReadLb0E8BitFieldEvRK29SerializationCommandArgumentsR31RuntimeSerializationCommandInfo
eRi:_SecurityPermission_set_Flags_m1503445204
d3j:_HashSet_1_CopyTo_m2849056227_gshared
VXb:__ZL17Transfer_GUIStyleI18StreamedBinaryReadILb1EELb0EEvRK29SerializationCommandArgumentsR31RuntimeSerializationCommandInfo
I9c:__ZN9Scripting11UnityEngine15ScrollViewState9InitProxyEv
OQj:_ModulusRing_Multiply_m343333088
Vef:__ZN12PhysXRaycast15InitializeClassEv
vHe:__ZN5physx7NpScene10unlockReadEv
HTg:__ZL76AnimatorTransitionInfo_t2534804151_CustomAttributesCacheGenerator_m_AnyStateP21CustomAttributesCache
HDc:__ZN9ShaderLab14SerializedPass8TransferI14SafeBinaryReadEEvRT_
Bbd:__Z71Register_UnityEngine_GUILayoutUtility_INTERNAL_CALL_Internal_MoveWindowv
Mca:__ZN12AudioManager16SetListenerPauseEb
zN:__ZN11UnityEngine9Animation31SetHumanTransformPropertyValuesERKNS0_21AvatarBindingConstantERKN7mecanim8skeleton13SkeletonPoseTIN4math4trsXEEEby
Nsb:__ZNSt3__26vectorIN30RuntimeInitializeOnLoadManager9ClassInfoE13stl_allocatorIS2_L18MemLabelIdentifier13ELi16EEE6assignINS_11__wrap_iterIPS2_EEEENS_9enable_ifIXaasr21__is_forward_iteratorIT_EE5valuesr16is_constructibleIS2_NS_15iterator_traitsISC_E9referenceEEE5valueEvE4typeESC_SC_
OId:__ZL50__ManagedRegistrationHelperFunction_ContactPoint2DPv
fa:invoke_viiiiiiiiiii
jSm:___syscall_ret
GAl:_DeriveBytes_set_Salt_m1400945044
pVf:_PointerEventData_set_worldNormal_m1888481930
xGl:_AnchorInfo__ctor_m46784903
bIi:_CipherSuiteCollection_get_Item_m4188309062
kxl:_SslHandshakeHash_HashFinal_m2573455475
Ygg:_SynchronizationAttribute_ReleaseLock_m1030353464
$om:__ZNSt3__212basic_stringIcNS_11char_traitsIcEENS_9allocatorIcEEE6assignINS_11__wrap_iterIPKcEEEENS_9enable_ifIXaasr21__is_forward_iteratorIT_EE5valuesr38__libcpp_string_gets_noexcept_iteratorISC_EE5valueERS5_E4typeESC_SC_
iIf:__Z56Register_UnityEngine_Analytics_CustomEventData_AddDoublev
Rib:__ZN11ChannelInfo8TransferI19StreamedBinaryWriteILb0EEEEvRT_
YHm:__ZN4utf88internal13validate_nextIPKcEENS0_9utf_errorERT_S5_Rj
d4g:__ZL53ToggleGroup_t123837990_CustomAttributesCacheGeneratorP21CustomAttributesCache
Zse:__ZN5physx2Sc9ClothCore22setFrictionCoefficientEf
jmc:__ZN14qsort_internal13Partition3WayIP17RODataReplacementi19ROSorterReplacementEENSt3__24pairIT_S6_EES6_S6_T0_T1_
ane:__ZNK5physx9NpPhysics17getNbConvexMeshesEv
SGe:__ZNK5physx7NpScene29getContactCorrelationDistanceEv
ALc:__Z34Register_UnityEngine_Gradient_Initv
Q0c:__Z15WriteLineVertexILb0EEvRPhRKN4math8float4x4ERKNS2_7_float3ERK11ColorRGBA32RKffRKNS2_7_float2E
qod:__ZN13InitialModule8TransferI17RemapPPtrTransferEEvRT_
igg:_Context_ToString_m1073616138
upd:__ZN25IParticleSystemProperties8PropertyI8Vector3fNS_3MinILi0EEEE8TransferI18StreamedBinaryReadILb0EEEEvRT_PKc
QRh:_InputField_EnforceTextHOverflow_m3400115777
akf:__ZN9Scripting11UnityEngine12TreeInstance9InitProxyEv
uCc:__ZN12LineRenderer23VirtualRedirectTransferER24GenerateTypeTreeTransfer
uqb:__ZN9InputAxis8TransferI19StreamedBinaryWriteILb0EEEEvRT_
mij:__Z33il2cpp_codegen_check_sub_overflowxx
JSh:_InputField_get_caretColor_m2973283772
j1d:__ZN5physx6shdfnd8SyncImpl4waitEj
dpj:_NullStream_Seek_m1914924606
TCj:_Double_System_IConvertible_ToInt16_m3591921965_AdjustorThunk
Kxk:_Comparison_1_Invoke_m2925518770_gshared
uBd:__ZN33SizeBySpeedModulePropertyBindings13GetFloatValueERK14ParticleSystemi
qRa:__ZN10GameObject23VirtualRedirectTransferER18StreamedBinaryReadILb0EE
AMl:_SymmetricTransform__ctor_m2693628991
W6c:__Z36Camera_CUSTOM_get_pixelRect_InjectedP12Il2CppObjectR5RectTIfE
DWk:__Z67RuntimeInvoker_Void_t1185182177_Scene_t2348375561_Scene_t2348375561PFvvEPK10MethodInfoPvPS4_
Rg:_glFrontFace
Hbm:__ZNK15dense_hashtableINSt3__24pairIK10KeyWrapperIPK11Il2CppClassEPKcEES6_N6il2cpp5utils11PointerHashIS3_EEN14dense_hash_mapIS6_S9_SE_NS6_14EqualsComparerINS0_8equal_toIS5_EEEENS0_9allocatorISA_EEE9SelectKeyESJ_SL_E13find_positionERS7_
jud:__Z13DragUpdateTplIL27ParticleSystemCurveEvalMode4EEvRK11MinMaxCurvebbR23ParticleSystemParticlesjjRKN4math7_float4E
Wv:__ZN11OffMeshLink14OnNavMeshAddedEv
nod:__ZN14ParticleSystem8TransferI17RemapPPtrTransferEEvRT_
lw:__ZN22NavMeshProjectSettingsD0Ev
kYh:_MaskUtilities_IsDescendantOrSelf_m2247511982
KIe:__ZN5physx13NpVolumeCache17getNbCachedShapesEv
DSa:__ZN12BaseRenderer21SetGlobalLayeringDataE18GlobalLayeringDataj
H4e:__ZN5physx2Sc15ArticulationSim10sleepCheckEffb
HJa:__ZN9Scripting11UnityEngine15HideInInspector12CleanupProxyEv
OSi:_SecurityElement__cctor_m3326869319
lNl:_AesManaged_set_Key_m767972181
phj:_Int16_System_IConvertible_ToBoolean_m1656400658_AdjustorThunk
$Ff:__ZN2UI14CanvasRenderer11SyncCullingENS0_8SyncFlagE
c5i:_Byte_System_IConvertible_ToInt64_m285584218
SLh:_ObjectManager__ctor_m1844334865
U9b:__ZN13GfxDeviceGLES22SetScissorRectPlatformERK5RectTIiE
nCa:__ZN6prcoreL17RemapGenericFloatI17TexFormatRGBFloat18TexFormatRGBAFloatEEvPKNS_9InnerInfoE
lKe:__ZN5physx2Sc5Scene15getRenderBufferEv
v0a:__ZN11LightProbes8TransferI17RemapPPtrTransferEEvRT_
uLj:_Array_InternalArray__ICollection_Add_TisDictionaryEntry_t3123975638_m665385049_gshared
AHg:__ZL57BootConfigData_t3818279794_CustomAttributesCacheGeneratorP21CustomAttributesCache
gbh:_MissingMemberException__ctor_m2707802176
zYc:__ZN28ReflectionProbeAnchorManager10InitializeEv
R_l:_Canvas_get_renderMode_m841659411
sWi:_String_Join_m2050845953
d1b:__ZN13MonoBehaviour23VirtualRedirectTransferER19StreamedBinaryWriteILb0EE
qba:__ZN9AudioClip11CreateSoundEv
Kab:__ZN29SerializeTraitsForStringTypesIN4core12basic_stringIcNS0_20StringStorageDefaultIcEEEEE8TransferI24GenerateTypeTreeTransferEEvRS4_RT_
vom:__ZN14dense_hash_mapI10KeyWrapperINSt3__24pairIPK9FieldInfoP11Il2CppClassEEEj17ReflectionMapHashIS8_ENS9_14EqualsComparerINS1_8equal_toIS8_EEEENS1_9allocatorINS2_IKS9_jEEEEEC2EjRKSB_RKSF_
dxh:_PlayerConnection_GetConnectionNativeApi_m3116196780
Ujm:__ZNK15dense_hashtableINSt3__24pairIK10KeyWrapperINS1_IPK10MethodInfoP11Il2CppClassEEEjEES9_17ReflectionMapHashIS8_EN14dense_hash_mapIS9_jSD_NS9_14EqualsComparerINS0_8equal_toIS8_EEEENS0_9allocatorISB_EEE9SelectKeyESI_SK_E13find_positionERSA_
x9b:__ZN13GfxDeviceGLES20CreateComputeProgramEPKhj
_Mf:__ZN11UnityEngine7Connect16PersistentValues13RestoreValuesER8JSONRead
jAf:__ZN9Scripting11UnityEngine8Tilemaps8TileData9InitProxyEv
chj:_Guid_BaseToString_m3600006650
bDb:__ZN20ArchiveStorageReader31TryToReadDirectoryFromBlockDataEyPKvj
Y0e:__ZNK5physx2Gu11HeightField17getHeightInternalEff
Jym:__ZN6il2cpp2vmL11GetIdentityEP14Il2CppIUnknown
hcm:__ZN6il2cpp2vm13MetadataCache26GetWindowsRuntimeClassNameEPK11Il2CppClass
ILm:_GC_push_gc_structures
kLi:_TlsServerCertificate_ProcessAsTls1_m819212276
kGe:__ZNK5physx7NpScene22getClientBehaviorFlagsEh
icl:_Dictionary_2_Do_ICollectionCopyTo_TisRuntimeObject_m3942192587_gshared
Hne:__ZN5physx9NpFactory14createMaterialEfff
oga:__ZN5physx5cloth11PhaseConfigC2Et
LFd:__Z19UpdateSingleRow2TplIL27ParticleSystemCurveEvalMode0ELS0_2EEvfRK11MinMaxCurveS3_RK23ParticleSystemParticlesPfbiii
_T:__ZNSt3__26vectorIN13AnimationClip10FloatCurveE13stl_allocatorIS2_L18MemLabelIdentifier26ELi16EEE6resizeEj
QCi:_Kernel_DwordDivMod_m1540317819
sDd:__ZN22ParticleSystemRenderer23UpdateVertexInputLayoutEv
WEe:__ZThn8_N5physx2Sc19ShapeInstancePairLLD0Ev
XXe:__ZN5physx19PxcContactSphereBoxERKNS_2Gu13GeometryUnionES3_RKNS_11PxTransformES6_RKfRNS_10PxcNpCacheERNS0_13ContactBufferE
Kpl:_Enumerator_System_Collections_IEnumerator_get_Current_m1399273671_gshared
yGe:__ZNK5physx7NpScene21getBroadPhaseCallbackEh
b6d:__ZN5physx6shdfnd5ArrayIPNS_12PxConstraintENS0_19ReflectionAllocatorIS3_EEE15growAndPushBackERKS3_
g6f:_TypeBuilder_GetPropertyImpl_m3104345782
jjb:__ZNSt3__213__stable_sortIRNS_4lessI4PPtrI11SpriteAtlasEEENS_11__wrap_iterIPS4_EEEEvT0_SA_T_NS_15iterator_traitsISA_E15difference_typeEPNSD_10value_typeEi
skj:_Int64_ToString_m2085073918_AdjustorThunk
Tyi:_Transform_1_Invoke_m4084479750_gshared
ide:__ZNK5physx2Sc15ArticulationSim11checkResizeEv
Z6f:_FieldInfo_GetFieldOffset_m1356898082
Eoh:_Camera_RaycastTry_m3913529496
dCc:__ZN10BootConfig4Data14InitFromStringEPPKcjS2_
toa:__ZN8keywords6CreateEPKc
CYd:__ZN5physx2Gu11gjkRelativeINS0_8CapsuleVENS0_11ConvexHullVEEEjRKT_RKT0_RKNS_6shdfnd3aos15PsMatTransformVERNSB_5Vec3VESG_SG_RNSB_6FloatVE
F1l:__ZL7log2_32j
Fzh:_Quaternion_Inverse_Injected_m4070500351
S:Math_imul
z0h:_ScrollRect_LateUpdate_m1215231183
sLa:__ZN9Scripting11UnityEngine11ContextMenu9InitProxyEv
SFd:__Z17UpdateSprites2TplIL27ParticleSystemCurveEvalMode4ELS0_4EEvfRK11MinMaxCurveS3_RK23ParticleSystemParticlesPf
FLi:_TlsServerKeyExchange_Update_m453798279
Heb:__ZN11PlayerPrefs6GetIntERKN4core12basic_stringIcNS0_20StringStorageDefaultIcEEEEi
iIi:_CipherSuiteCollection_System_Collections_IList_IndexOf_m1361500977
p3h:_Text_set_fontStyle_m648756124
azf:__Z45TextGenerator_CUSTOM_INTERNAL_get_rectExtentsP12Il2CppObjectP5RectTIfE
$0:__ZN9Scripting11UnityEngine18AssetBundleRequest12CleanupProxyEv
Pxj:_DateTime__ctor_m2135476686_AdjustorThunk
Wid:__ZN13GUIStyleState8TransferI8JSONReadEEvRT_
Zca:__ZN11AudioSource12SetAudioClipEP9AudioClip
gCh:_RectTransform_GetLocalCorners_m823861473
c9i:_SynchronizedArrayListWrapper_GetEnumerator_m1579424644
cBd:__ZN30VelocityModulePropertyBindings13GetFloatValueERK14ParticleSystemi
o_h:_Scrollbar_get_value_m760470106
xef:__ZZN12MeshCollider15InitializeClassEvEN29FunctorImpl_378kDidDeleteMesh4CallEPviR11MessageData
qqa:__ZN18ScriptingArguments9AddObjectE18ScriptingObjectPtr
rDf:__Z39CanvasGroup_Get_Custom_PropInteractableP12Il2CppObject
Nga:__ZN11UnityEngine15CloudWebService16SessionContainerD2Ev
BLf:__ZL38InitializeUnityConnectScriptingClassesv
vwc:__ZN13ProbeRenderer8ConvolveEbijjb
qMl:_GUIUtility_set_systemCopyBuffer_m608712289
Fcc:__ZN17GenericDynamicVBOC2ER9GfxDevice13GfxBufferModejj
ycd:__ZZN10GUIManager14InitGUIManagerEvEN41PreUpdateIMGUISendQueuedEventsRegistrator7ForwardEv
c7h:_ServicePointManager_get_SecurityProtocol_m966397919
BCe:__ZNK5physx2Sc5Scene7isValidEv
Acj:_CCGregorianCalendar_day_from_fixed_m1674702403
fia:__ZN11UnityEngine15CloudWebService17SessionEventQueue10PurgeItemsEj
BIe:__ZN5physx2Sq17SceneQueryManager29setDynamicTreeRebuildRateHintEj
_wc:__ZN6Camera16StandaloneRenderENS_10RenderFlagEP6ShaderRKN4core12basic_stringIcNS3_20StringStorageDefaultIcEEEE
Anb:__ZN19SkinnedMeshRenderer13AwakeFromLoadE17AwakeFromLoadMode
F9h:_X509Chain_PrepareForNextCertificate_m3691934993
eRa:__ZN16LevelGameManager23VirtualRedirectTransferER24GenerateTypeTreeTransfer
nXb:__Z18Transfer_BlittableI18StreamedBinaryReadILb1EELb1EtEvRK29SerializationCommandArgumentsR31RuntimeSerializationCommandInfo
tVg:__ZL58EventType_t3528516131_CustomAttributesCacheGenerator_keyUpP21CustomAttributesCache
iwg:__ZL57X509Certificate_t713131622_CustomAttributesCacheGeneratorP21CustomAttributesCache
UGb:__ZN9GfxDevice20DeallocRenderSurfaceEP17RenderSurfaceBase
Zbe:__ZN5physx6shdfnd5ArrayIPvNS0_19ReflectionAllocatorINS_18NpArticulationLinkEEEE4copyINS0_15InlineAllocatorILj256ES5_EEEEvRKNS1_IS2_T_EE
YKb:__ZN20GpuProgramParameters36UpdatePrepareValuesMaximumBufferSizeEv
UVd:__ZNK5physx3Cct10Controller12getKineShapeEv
FOj:_SimpleCollator_GetContraction_m2205549079
GGh:_Vector3__ctor_m1719387948_AdjustorThunk
q4d:__ZN5physx6shdfnd4sortIPvNS0_4LessIS2_EENS0_19ReflectionAllocatorINS_2Sc18TriggerInteractionEEEEEvPT_jRKT0_RKT1_j
KMj:_Array_InternalArray__ICollection_CopyTo_TisDecimal_t2948259380_m2749946216_gshared
hB:__ZN12PathCorridor25MoveOverOffmeshConnectionEyRK8Vector3fRS0_S3_PK12NavMeshQuery
MAe:__ZNK5physx2Sc8BodyCore14getMaxAngVelSqEv
slf:__ZN20TextRenderingPrivate8FontImpl13CharacterInfo8TransferI18StreamedBinaryReadILb0EEEEvRT_
yUb:__Z29Transfer_Blittable_ArrayFieldI24GenerateTypeTreeTransferfEvRT_R9ArrayInfoRK23StaticTransferFieldInfo
Jwa:__ZNSt3__26__treeINS_12__value_typeIN4core12basic_stringIcNS2_20StringStorageDefaultIcEEEES6_EENS_19__map_value_compareIS6_S7_NS_4lessIS6_EELb1EEE13stl_allocatorIS7_L18MemLabelIdentifier13ELi16EEE7destroyEPNS_11__tree_nodeIS7_PvEE
Yrh:_UnityEvent_FindMethod_Impl_m2312362624
Byc:__ZN19CustomRenderTexture9AddParentE4PPtrIS_E
nPb:__ZN8Gradient8TransferI14SafeBinaryReadEEvRT_
a$f:_FloatTween_AddOnChangedCallback_m2814315272
zFl:_Parser_ParseSpecial_m1961501104
cUi:_Single_System_IConvertible_ToUInt64_m3299129161_AdjustorThunk
K7a:__ZNSt3__26vectorIN4core12basic_stringIcNS1_20StringStorageDefaultIcEEEE13stl_allocatorIS5_L18MemLabelIdentifier1ELi16EEE7reserveEj
Imf:__ZN20TextRenderingPrivate15DynamicFontData36GetFaceForCharacterIfAvailableInFontERKNS_7FontRefERK13dynamic_arrayI4PPtrIN13TextRendering4FontEELj0EEj
J6h:_IPv6Address_AsIPv4Int_m844941024
WYe:__ZN5physx2Gu32PCMConvexVsMeshContactGeneration15processTriangleEPKNS_6PxVec3EjhPKj
eMi:_RecordProtocol__cctor_m1280873827
d9j:_StringBuilder__ctor_m3504405255
odg:_Marshal__cctor_m4007734770
CKm:_GC_new_free_list_inner
zUj:_SymmetricTransform_Random_m2004892672
hKm:_GC_err_printf
EQf:__ZN9Scripting11UnityEngine2XR13InputTracking12CleanupProxyEv
z0e:__ZN5physx6shdfnd5ArrayINS_2Cm8Matrix34ENS0_19ReflectionAllocatorIS3_EEE15growAndPushBackERKS3_
dGi:_RSAManaged_DecryptValue_m1804388365
bZe:__ZN5physx2Gu32PCMConvexVsMeshContactGeneration31generatePolyDataContactManifoldERNS0_9TriangleVEjjhPNS0_21MeshPersistentContactERjRKNS_6shdfnd3aos6FloatVERNS8_5Vec3VE
dgi:_InternalEnumerator_1_System_Collections_IEnumerator_get_Current_m2980550840_AdjustorThunk
Ccf:__ZN5physx10SubSortSAH5splitEPjj
ZR:__ZN25RuntimeAnimatorController8TransferI14SafeBinaryReadEEvRT_
Xid:__ZN8JSONRead8TransferI10RectOffsetEEvRT_PKc17TransferMetaFlagsb
Qha:__ZN9JSONWrite8TransferIN11UnityEngine15CloudWebService14DataErrorEvent15FileErrorDetailEEEvRT_PKc17TransferMetaFlags
eik:_UInt32_System_IConvertible_ToUInt64_m1094958903
ijj:_Int32_Parse_m2087562008
NTj:_PrivateKeyInfo__ctor_m2414235375
bQd:__ZN5physx2Gu3EPA8addFacetEjjjRKNS_6shdfnd3aos6FloatVES6_
X9f:_MonoProperty_GetAccessors_m412928203
wFk:_TweenRunner_1_Start_m3757154622_gshared
X4:__ZN12SoundManager20RegisterModifiedClipEP10SampleClip
JIh:_RemotingServices_GetClientChannelSinkChain_m1499550585
igh:_Assembly_FillName_m1660001542
Epb:__ZN12MeshRenderer15AddAsRenderNodeER15RenderNodeQueueRK20DeprecatedSourceData
Rtg:__ZL56_EventBuilder_t2558055199_CustomAttributesCacheGeneratorP21CustomAttributesCache
pPi:_SHA384Managed_processBlock_m1272529332
h9:__ZN11AudioSource4PlayEd
M6i:_Char_ToString_m278452217_AdjustorThunk
a1d:__ZN5physx3Cct9CCTParamsC2Ev
c9l:__ZN15dense_hashtableI10KeyWrapperIPK17Il2CppGenericInstES4_N6il2cpp8metadata21Il2CppGenericInstHashEN14dense_hash_setIS4_S7_NS4_14EqualsComparerINS6_24Il2CppGenericInstCompareEEENSt3__29allocatorIS4_EEE8IdentityESB_SE_E13set_empty_keyERKS4_
oHk:__Z63RuntimeInvoker_Char_t3634460470_Int16_t2552820387_RuntimeObjectPFvvEPK10MethodInfoPvPS4_
Huj:_Convert_ToDouble_m2924063577
yqe:__ZN5physx7NpCloth21setStiffnessFrequencyEf
yRe:__ZN5physx17PxcSweepBoxConvexERKNS_11PxsCCDShapeES2_PKNS_12PxsRigidBodyES5_RKNS_11PxTransformES8_S8_S8_fRNS_6PxVec3ESA_RNS_10PxcNpCacheERNS_18PxcNpThreadContextEf
hwa:__Z17GetCoreModuleSpecv
R8e:__ZThn8_N5physx2Gu11HeightField14onRefCountZeroEv
K3d:__ZN5physx2Sc5Actor9setActiveEbj
rYd:__ZN12_GLOBAL__N_127SphereMeshContactGeneration15processTriangleEjRKN5physx6PxVec3ES4_S4_PKj
Lbb:__ZN7Cubemap23VirtualRedirectTransferER18StreamedBinaryReadILb0EE
dyd:__Z25UpdateOrbitalAndRadialTplIL27ParticleSystemCurveEvalMode0ELS0_0ELS0_0EEvRK11MinMaxCurveS3_S3_S3_S3_S3_S3_R23ParticleSystemParticlesjjRKN4math8float3x3ERKNS6_7affineXERKNS6_7_float4E
dwf:_Read_CVT
e4d:__ZN5physx2Sc10NPhaseCore28reserveContactReportPairDataEjjRj
rQd:__ZN5physx2Gu22barycentricCoordinatesERKNS_6shdfnd3aos5Vec3VES5_S5_RNS2_6FloatVE
oDb:__ZN12FileAccessor4SeekEx10FileOrigin
FD:__ZN9Scripting11UnityEngine25RuntimeAnimatorController12CleanupProxyEv
lTb:__ZL26Transfer_SimpleNativeClassI24GenerateTypeTreeTransfer17AnimationCurveTplIfELb0EEvRK29SerializationCommandArgumentsR31RuntimeSerializationCommandInfo
Ytj:_Convert_ToDecimal_m1783778724
Exi:_ShimEnumerator_get_Value_m153531060_gshared
Vcj:_DateTimeFormatInfo__ctor_m3106345035
_Ii:_TlsServerKeyExchange_verifySignature_m3412856769
Tv:__ZN14NavMeshManager11ReplaceTileEiiPhi
A_j:_EqualityComparer_1_System_Collections_IEqualityComparer_GetHashCode_m4137147946_gshared
Yrd:__Z9UpdateTplIL27ParticleSystemCurveEvalMode2EEvRK11MinMaxCurveR23ParticleSystemParticlesjjbjRK8Vector2f
Wul:_Collection_1_System_Collections_ICollection_CopyTo_m5285659_gshared
Mxa:__ZN16LightmapSettings20DidChangeActiveSceneEP10UnitySceneS1_
j7g:__ZL59g_AssemblyU2DCSharp_Assembly_CustomAttributesCacheGeneratorP21CustomAttributesCache
Pgm:__ZN6il2cpp5utils9PathUtils8BasenameIcEENSt3__212basic_stringIT_NS3_11char_traitsIS5_EENS3_9allocatorIS5_EEEERKSA_
t7:__ZN10AudioMixer11SetupGroupsEv
umm:__ZN6il2cpp2vmL16IsGenericCMethodEP12Il2CppObject
iE:__ZN9Scripting11UnityEngine10Animations21AnimationClipPlayable9InitProxyEv
Bad:__Z35Register_UnityEngine_Event_get_typev
pIa:__ZN9Scripting11UnityEngine9Rendering18GraphicsDeviceType12CleanupProxyEv
pwm:__ZN6il2cpp2vm9Exception23GetInvalidCastExceptionERKNS_5utils10StringViewIDsEE
T_m:_emscripten_glDepthRange__wrapper
B7e:__ZNK5physx13GuMeshFactory17getNbConvexMeshesEv
mDd:__ZN14ParticleSystem15InitializeClassEv
Du:__ZNSt3__26vectorI14HeightMeshData13stl_allocatorIS1_L18MemLabelIdentifier77ELi16EEE10deallocateEv
qra:__Z63ThreadAndSerializationSafeCheckGetMonoBehaviourBeingTransferredv
uJa:__ZN9Scripting11UnityEngine12LightmapData9InitProxyEv
ohl:_List_1_set_Item_m4224739467_gshared
sih:_ConstructorBuilder_get_Name_m2426555260
eRc:__Z37Register_UnityEngine_Input_GetAxisRawv
rKa:__ZN9Scripting11UnityEngine12Experimental10PlayerLoop6Update12CleanupProxyEv
AFl:_Parser_ParseCharacterClass_m4285351396
$vj:_Convert_ToSByte_m2653418303
nqj:_SyncHashtable__ctor_m2449935938
W8:__ZN11AudioSource5ResetEv
BOi:_RSAPKCS1SignatureFormatter_SetKey_m2935054088
Llc:__ZN12ImageFilters27SetSurfaceUseResolvedBufferEP13RenderTextureb
nQh:_HashAlgorithm_TransformBlock_m4006041779
Dz:__ZN12NavMeshQuery22FinalizeSlicedFindPathEPi
p9a:__ZN14Texture2DArray23VirtualRedirectTransferER18StreamedBinaryReadILb0EE
Tak:_UTF7Encoding_GetByteCount_m209415911
jyb:__ZN2UI13RectTransform13AwakeFromLoadE17AwakeFromLoadMode
gIl:_RegularExpression_Compile_m2385682508
frc:__ZN14qsort_internal30FindAndMovePivotToLastPositionIP20ShadowCasterSortDatai26ShadowCasterSortDataSorterEEvT_S4_T0_T1_
IMb:__Z18Transfer_BlittableI14SafeBinaryReadLb1EiEvRK29SerializationCommandArgumentsR31RuntimeSerializationCommandInfo
L9h:_X509ExtensionEnumerator_get_Current_m256207749
MTh:_InputField_MoveTextStart_m1087475594
Jbj:_EventArgs__cctor_m1889823314
S2i:_Array_Sort_m182264525
cWh:_LayoutGroup_set_padding_m282562135
_1e:__ZN5physx6shdfnd5ArrayINS_13PxcSolverBodyENS0_16AlignedAllocatorILj128ENS0_19ReflectionAllocatorIS2_EEEEE6resizeEjRKS2_
KVc:__ZN26SkinnedMeshRendererManager33HandleInvalidationRendererChangesEPK15TransformAccessj
ahh:_Default_IsArrayAssignable_m953489228
yhk:_UInt16_ToString_m355311020_AdjustorThunk
Lke:__ZN18MultiQueryCallbackIN5physx12PxOverlapHitEE6invokeERfPKNS0_2Sq13PrunerPayloadEj
USd:__ZN5physx2Gu18gjkRelativeRayCastINS0_4BoxVES2_NS0_10ShrunkBoxVES3_EEbRT_RT0_RKNS_6shdfnd3aos15PsMatTransformVERKNS9_6FloatVERKNS9_5Vec3VESI_RSD_RSG_SK_fb
fl:_glGetStringi
LXi:_DecoderExceptionFallback_CreateFallbackBuffer_m1133375601
WAm:__ZNK15dense_hashtableI10KeyWrapperIP18Il2CppGenericClassES3_N6il2cpp8metadata22Il2CppGenericClassHashEN14dense_hash_setIS3_S6_NS3_14EqualsComparerINS5_25Il2CppGenericClassCompareEEENSt3__29allocatorIS3_EEE8IdentityESA_SD_E10test_emptyERK30dense_hashtable_const_iteratorIS3_S3_S6_SF_SA_SD_E
Hui:_Enumerator_get_CurrentKey_m889650866_gshared
n3l:_Physics_Raycast_m3133704280
h8e:__ZThn8_N5physx2Gu10ConvexMeshD0Ev
ZN:__ZN8Animator9WriteStepEy
jUa:__ZN9Coroutine16SetCurrentMethodE18ScriptingMethodPtr
Bia:__ZN11UnityEngine15CloudWebService20WebRequestRestClient18GetResponseHeadersEv
Nsl:_Collection_1_ConvertItem_m1743542180_gshared
hzf:__Z38Register_UnityEngine_Font_HasCharacterv
hpa:__ZN13RuntimeStaticINSt3__26vectorIN4core12basic_stringIcNS2_20StringStorageDefaultIcEEEENS0_9allocatorIS6_EEEELb0EE13StaticDestroyEPv
uvc:__Z35IntersectSpherePlaneBoundsOptimizedRKN4math7_float4EPS1_i
INi:_RNGCryptoServiceProvider__cctor_m3587754670
d2d:__ZN5physx2Sc8ShapeSim20createLowLevelVolumeEjRKNS_9PxBounds3EjNS_9AABBMgrIdE
Mva:__ZN17TransformInternal21DetachTransformThreadER18TransformHierarchyjj
xBd:__ZN37InheritVelocityModulePropertyBindings13GetFloatValueERK14ParticleSystemi
tDm:__ZN6il2cpp2os5posix15PosixWaitObject13InterruptWaitEv
Dqe:__ZNK5physx7NpCloth22getAngularInertiaScaleEv
KZd:__ZN26IntersectAnyVsMeshCallbackILi1ELb1EE10processHitERKN5physx12PxRaycastHitERKNS1_6PxVec3ES7_S7_RfPKj
rxa:__Z22CleanupLODGroupManagerPv
VJe:__ZN5physx6shdfnd5ArrayINS_2Sc5Scene14SimpleBodyPairENS0_19ReflectionAllocatorIS4_EEE8recreateEj
Ql:_glUniform3fv
zQm:__ZNK6il2cpp8metadata24Il2CppGenericInstCompareclERK10KeyWrapperIPK17Il2CppGenericInstES8_
eai:_X509ChainElement_Set_m655180762
$1l:_CustomEventData_AddInt32_m548429697
S2c:__ZNK8Gradient19InitializeOptimizedER17OptimizedGradient
Jpc:__ZNK16LightmapSettings31GetRealtimeLightmapDecodeValuesEv
c7:__ZN5audio5mixer12SetSuspendedERNS0_16AudioMixerMemoryEb
txb:__ZN17PersistentManager21UnloadNonDirtyStreamsEv
rOk:__Z96RuntimeInvoker_Int32_t2950945753_RuntimeObject_Int32_t2950945753_RuntimeObject_Int32_t2950945753PFvvEPK10MethodInfoPvPS4_
hQl:_AnalyticsEventTracker_OnEnable_m1121905268
HIl:_Uri_get_Parser_m3737125102
__l:_Canvas_get_overrideSorting_m2740418462
iqh:_Debug_LogFormat_m309087137
$4i:_Byte_System_IConvertible_ToInt16_m4136764794_AdjustorThunk
Fkb:__ZN12ImageFilters4BlitER17ShaderPassContextP7TextureP13RenderTextureiPK18SharedMaterialDataPKcP6ShaderiNS_9BlitFlagsE11CubemapFaceRK8Vector2fSH_
Egf:__ZN5physx6shdfnd8PoolBaseINS_24NpPtrTableStorageManager8PtrBlockILi4EEENS0_19ReflectionAllocatorIS4_EEE12allocateSlabEv
xDl:_Mark_get_Index_m3048692661
p4g:__ZL69CanvasScaler_t2767979955_CustomAttributesCacheGenerator_m_ScaleFactorP21CustomAttributesCache
pia:__ZN11UnityEngine15CloudWebService10RestClientINS0_23WebRequestRestHeaderMapEED2Ev
j5e:__ZN5physx2Sc5Scene13ccdBroadPhaseEPNS_10PxBaseTaskE
lm:_emscripten_glDepthMask
YYe:__ZN5physx2Gu24PCMMeshContactGeneration15processContactsEhb
OJh:_RemotingServices_CreateClientProxy_m3886727610
Xcb:__ZN4crnd25static_huffman_data_model22prepare_decoder_tablesEv
oqe:__ZN5physx7NpCloth12setParticlesEPKNS_15PxClothParticleES3_
Mgf:__ZN5physx7profile8ZoneImplINS_28PxProfileNameProviderForwardEE9doAddNameEPKctb
jMi:_RecordProtocol_GetMessage_m2086135164
Cy:__ZNSt3__27__sort5IR17DetailNodeYSorterP16DetailMeshBVNodeEEjT0_S5_S5_S5_S5_T_
Rxa:__Znaj
C5m:_emscripten_glEnableClientState__wrapper
LOf:__ZN20UnityWebRequestProtoI24UnityWebRequestTransport16AtomicRefCounter14RedirectHelper14ResponseHelper15DownloadHandler13UploadHandler18CertificateHandler12HeaderHelper14AsyncOperationE26Job_ExecuteUnityWebRequestEPS9_
xna:__ZN17MessageIdentifierC2EPKcNS_7OptionsEPKN5Unity4TypeES1_
jwh:_Mesh_SetTriangles_m1523451247
TTi:_Single_System_IConvertible_ToSByte_m1208276900
a9k:_Array_InternalArray__set_Item_TisVector4_t3319028937_m757305038_gshared
WSc:__ZNSt3__26__treeIPc15compare_tstringIPKcENS_9allocatorIS1_EEE25__emplace_unique_key_argsIS1_JS1_EEENS_4pairINS_15__tree_iteratorIS1_PNS_11__tree_nodeIS1_PvEEiEEbEERKT_DpOT0_
KMk:__Z105RuntimeInvoker_Void_t1185182177_RuntimeObject_RuntimeObject_RuntimeObject_RuntimeObject_Int32_t2950945753PFvvEPK10MethodInfoPvPS4_
mTe:__ZN5physxL26solveFriction4_StaticBlockEPKNS_23PxcSolverConstraintDescERNS_16PxcSolverContextE
MHk:__Z64RuntimeInvoker_RuntimeObject_Int16_t2552820387_Int16_t2552820387PFvvEPK10MethodInfoPvPS4_
Ada:__Z55Register_UnityEngine_AudioSource_get_spatializeInternalv
c1:__ZN14SafeBinaryRead8TransferI14ConstantStringEEvRT_PKc17TransferMetaFlags
RXe:__ZN5physx30PxcGetMaterialShapeHeightFieldEPKNS_12PxsShapeCoreES2_RNS_18PxcNpThreadContextEPNS_15PxsMaterialInfoE
Ojc:__ZNK6Camera16GetStereoEnabledEv
tRk:__Z72RuntimeInvoker_Int32_t2950945753_TimeSpan_t881159249_TimeSpan_t881159249PFvvEPK10MethodInfoPvPS4_
KMi:_SendRecordAsyncResult_SetComplete_m153213906
OT:__ZN13AnimationClip9PPtrCurveaSERKS0_
wgb:__ZN16LightmapSettings23VirtualRedirectTransferER19StreamedBinaryWriteILb0EE
pYc:__ZN12LightManager15InitializeClassEv
U5e:__ZN5physx6shdfnd8PoolBaseINS_2Sc19ParticlePacketShapeENS0_19ReflectionAllocatorIS3_EEE12allocateSlabEv
v6a:__ZN9ShaderLab11shaderprops16GetComputeBufferEPK19ShaderPropertySheetS3_NS_16FastPropertyNameE
AIm:__ZN6il2cpp6icalls8mscorlib6System10Reflection10MethodBase31GetMethodFromHandleInternalTypeEii
lta:__ZN23ManagedAttributeManager35CallManagedGetDefaultExecutionOrderE17ScriptingClassPtr
Eqa:__ZN18ScriptingArgumentsC2Ev
coh:_Vector3_op_Equality_m4231250055
Eic:__ZZ23InitPlayerLoopCallbacksvEN47PostLateUpdateMemoryFrameMaintenanceRegistrator7ForwardEv
H0m:_emscripten_glBlendFuncSeparate__wrapper
Qu:__ZNSt3__26vectorI15NavMeshTileData13stl_allocatorIS1_L18MemLabelIdentifier77ELi16EEE6assignINS_11__wrap_iterIPS1_EEEENS_9enable_ifIXaasr21__is_forward_iteratorIT_EE5valuesr16is_constructibleIS1_NS_15iterator_traitsISB_E9referenceEEE5valueEvE4typeESB_SB_
Sgb:__ZN15SerializeTraitsI13dynamic_arrayI7Hash128Lj0EEE19ResizeSTLStyleArrayERS2_i
rEd:__ZL37ParticleGeomBillboardFacingOrVelocityIL25ParticleSystemRenderSpace4ELb1EEvRKN4math8floatNx3ES4_PS3_S4_S4_RKNS1_8float3x3ES4_S4_RKNS1_8floatNx2ES4_RS2_SC_PS2_
mmj:_FileSystemInfo__ctor_m3769019897
Pdl:_Array_InternalArray__get_Item_TisContentType_t1787303396_m421427711_gshared
llc:__ZNK25CameraStackRenderingState27GetStereoImageEffectTextureEb
RQh:_HMACSHA384__ctor_m1677515580
gxl:_RIPEMD160Managed_J_m1336489154
g9c:__ZL52__ManagedRegistrationHelperFunction_PlayableDirectorPv
Gdm:__ZN6il2cpp6icalls6System6System3Net7Sockets6Socket7ReceiveEiP11Il2CppArrayiiNS4_11SocketFlagsEPi
TKc:__ZN13BuildSettings13GetSceneIndexERKN4core12basic_stringIcNS0_20StringStorageDefaultIcEEEE
op:FUNCTION_TABLE_ii
EQa:__ZN10TagManager8TransferI18StreamedBinaryReadILb0EEEEvRT_
wfd:__Z18Transfer_BlittableI9JSONWriteLb0E8BitFieldEvRK29SerializationCommandArgumentsR31RuntimeSerializationCommandInfo
soj:_MemoryStream_set_Capacity_m1773624579
_sm:__ZNK15dense_hashtableINSt3__24pairIK10KeyWrapperINS1_IP11Il2CppClassjEEES4_EES6_N6il2cpp8metadata14ArrayClassHashEN14dense_hash_mapIS6_S4_SB_NS6_14EqualsComparerINSA_17ArrayClassCompareEEENS0_9allocatorIS8_EEE9SelectKeyESF_SH_E10test_emptyEj
BEc:__ZNSt3__26vectorIN9ShaderLab20SerializedSubProgram15StructParameterENS_9allocatorIS3_EEE8__appendEj
Gb:invoke_diiii
myj:_DateTime_ToString_m2992030064
RYd:__ZL17sweepVolumeVsMeshPKN5physx3Cct9SweepTestEPKNS0_11TouchedMeshERNS0_12SweptContactERKNS_6PxVec3ERKNS_10PxGeometryERKNS_11PxTransformEjPKNS_10PxTriangleEj
OC:__ZL57__ManagedRegistrationHelperFunction_AnimationClipPlayablePv
yTk:__Z95RuntimeInvoker_Void_t1185182177_RuntimeObject_RuntimeObject_SByte_t1669577662_SByte_t1669577662PFvvEPK10MethodInfoPvPS4_
l0e:__ZN5physx2Gu31checkOverlapOBB_heightFieldGeomERKNS_10PxGeometryERKNS_11PxTransformERKNS0_3BoxE
cBc:__Z24CreateDirectoryRecursiveRKN4core12basic_stringIcNS_20StringStorageDefaultIcEEEE
$_m:b41
PGc:__ZN9ShaderLab20SerializedSubProgram8TransferI18StreamedBinaryReadILb0EEEEvRT_
__m:b40
dXd:__ZN5physx2Gu23findRotationMatrixFromZERKNS_6PxVec3E
_8:__ZN11AudioSource23VirtualRedirectTransferER17RemapPPtrTransfer
VF:__ZN26AnimatorControllerPlayable13GenerateGraphEv
$oa:__ZN13RuntimeStaticI21ScalableBufferManagerLb0EE13StaticDestroyEPv
NBf:__ZN2UI13CanvasManager9AddCanvasEPNS_6CanvasE
vkb:__ZN9Texture3D8TransferI19StreamedBinaryWriteILb0EEEEvRT_
tmc:__ZNK6Camera22CalculateRenderingPathEv
a$m:b42
Rgd:__ZN9JSONWrite8TransferI5RectTIfEEEvRT_PKc17TransferMetaFlags
IIe:__ZN5physx13NpVolumeCache10invalidateEv
LP:__ZN11UnityEngine9Animation37SetGenericRootTransformPropertyValuesERKNS0_30AnimatorGenericBindingConstantERKN7mecanim10ValueArrayER9Transformbb
jec:__Z13ConvertMipmap14GraphicsFormatPKvS_Pviiii
L0:__ZN9Scripting11UnityEngine2XR5Tango24MeshReconstructionServer9InitProxyEv
TRb:__ZL12InvokeMethodI17RemapPPtrTransferEvRK29SerializationCommandArgumentsR31RuntimeSerializationCommandInfo
H5h:_RemoteCertificateValidationCallback_Invoke_m3086073466
gXi:_StringComparer_Compare_m991165676
Rtf:_tt_sbit_decoder_load_image
O4a:__Z14IsHalfRTFormat19RenderTextureFormat
ehj:_Guid_ToString_m3279186591
iFk:_U3CStartU3Ec__Iterator0_Dispose_m261027331_gshared
Icd:__ZNSt3__24listIN10GUIManager12SortedScriptE11memory_poolIS2_EE6__sortI13OldSortScriptEENS_15__list_iteratorIS2_PvEESA_SA_jRT_
A2d:__ZN5physx6shdfnd5ArrayIPvNS0_19ReflectionAllocatorINS_2Sc10NPhaseCore16ClothListElementEEEE15growAndPushBackERKS2_
Hvl:_Collection_1_System_Collections_IList_Add_m3364892189_gshared
Khl:_List_1_AddEnumerable_m3500350831_gshared
QCc:__ZN12LineRenderer8TransferI18StreamedBinaryReadILb0EEEEvRT_
KFi:_PrivateKeyInfo_get_PrivateKey_m3647771102
qV:__ZN13AnimationClip8TransferI17RemapPPtrTransferEEvRT_
dvm:__ZN6il2cpp6icalls8mscorlib6System9ThreadingL11ThreadStartEPv
hAa:__ZN15DirectorManager12OnSampleTimeEv
N5f:_TypeBuilder_check_not_created_m3652863637
JWf:_StandaloneInputModule_UpdateModule_m450861257
bM:__ZN8Animator13ClearBindingsEv
cwk:_ReadOnlyCollection_1_System_Collections_IList_Insert_m2928873627_gshared
c0j:_EqualityComparer_1__cctor_m314889309_gshared
UNa:__ZN12CachedReader10Align4ReadEv
sBl:_X501__cctor_m2428304915
Z_l:_Canvas_get_renderOrder_m1489855841
QT:__Z14resize_trimmedINSt3__26vectorIN13AnimationClip10FloatCurveE13stl_allocatorIS3_L18MemLabelIdentifier26ELi16EEEEEvRT_j
jIk:__Z50RuntimeInvoker_Void_t1185182177_Single_t1397266774PFvvEPK10MethodInfoPvPS4_
KZi:_X501_ToString_m4186311521
XJl:_Event_ToString_m1688862299
DOa:__ZNK9Behaviour22GetTypeVirtualInternalEv
rle:__ZN5physx2Sc14ConstraintCore13setBreakForceEff
nqh:_Debug_LogErrorFormat_m575266265
zcj:_CCGregorianCalendar_month_from_fixed_m4268992710
qJj:_Array_compare_TisUICharInfo_t75501106_m1310495481_gshared
owc:__Z21GetScriptingArraySize17ScriptingArrayPtr
Qkf:__ZN20TextRenderingPrivate8FontImpl8TransferI14SafeBinaryReadEEvRT_
iHd:__ZNSt3__27__sort4IRN10vector_mapIi22ParticleModulePropertyNS_4lessIiEENS_9allocatorINS_4pairIiS2_EEEEE13value_compareEPS7_EEjT0_SD_SD_SD_T_
GTg:__ZL82AnimatorTransitionInfo_t2534804151_CustomAttributesCacheGenerator_m_NormalizedTimeP21CustomAttributesCache
UFe:__ZN5physx7NpScene15removeAggregateERNS_11PxAggregateEb
ruk:_ReadOnlyCollection_1_System_Collections_IList_Clear_m4022532825_gshared
HWi:_Encoding_get_ASCII_m3595602635
dff:__ZZN14PhysicsManager15InitializeClassEvEN63EarlyUpdatePhysicsResetInterpolatedTransformPositionRegistrator7ForwardEv
And:__ZN11ShapeModule18MultiModeParameterIN25IParticleSystemProperties8PropertyIfNS1_11ClampRadiusEEEE8TransferI14SafeBinaryReadEEvRT_
DHb:__ZN9GfxDevice17ImmediateTexCoordEifff
mjh:_DerivedType_GetCustomAttributes_m3536779709
azg:__ZL93Interlocked_t2273387594_CustomAttributesCacheGenerator_Interlocked_CompareExchange_m388540288P21CustomAttributesCache
V5f:_MethodBase_get_IsAbstract_m428833029
uSb:__Z35Transfer_Blittable_FixedBufferFieldI24GenerateTypeTreeTransferhEvRK29SerializationCommandArgumentsR31RuntimeSerializationCommandInfo
J_m:_emscripten_glUniform4f__wrapper
x6j:_Enumerator_MoveNext_m2595190390_AdjustorThunk
m3e:__ZN5physx6shdfnd5ArrayINS_25PxcThresholdStreamElementENS0_19ReflectionAllocatorIS2_EEE8recreateEj
OKj:_Array_InternalArray__IndexOf_TisColor32_t2600501292_m3783551884_gshared
woc:__ZNK6Camera16GetProjectionFarEv
NA:__Z24InverseTransformRotationRK23TransformAccessReadOnlyRKN4math7_float4E
mId:__ZN11UnityEngine9Analytics16StartupTimeEvent23SetSplashScreenTimeInfoEyyy
sCl:_X509Chain_Build_m2469702749
b9:__ZN11AudioSource6UpdateEv
aOf:__Z31GetPerformanceReportingSettingsv
T8a:__ZNK14PlayableOutput11DerivesFromE17ScriptingClassPtr
Yab:__ZN7Texture34CreateFileTextureUploadInstructionE18TextureUploadFlagsj
Rgg:__ZN25GenericVirtActionInvoker06InvokeEPK10MethodInfoP12Il2CppObject
Ere:__ZN5physx7NpCloth21setCollisionMassScaleEf
A0e:__ZN5physx6shdfnd5ArrayINS_7PxPlaneENS0_19ReflectionAllocatorIS2_EEE8recreateEj
Qw:__ZNSt3__26vectorIN22NavMeshProjectSettings15NavMeshAreaDataENS_9allocatorIS2_EEE6assignINS_11__wrap_iterIPS2_EEEENS_9enable_ifIXaasr21__is_forward_iteratorIT_EE5valuesr16is_constructibleIS2_NS_15iterator_traitsISB_E9referenceEEE5valueEvE4typeESB_SB_
tvd:__Z16UpdateOrbitalTplIL27ParticleSystemCurveEvalMode4EEvRK11MinMaxCurveS3_S3_S3_S3_S3_S3_R23ParticleSystemParticlesjjRKN4math8float3x3ERKNS6_7affineXERKNS6_7_float4E
Zif:__ZN13PhysicsModule17GetRigidBodyStateERK9RigidbodyPN8IPhysics14RigidBodyStateE
L5f:_TypeBuilder_DefineConstructor_m2989882735
XDb:__ZN25SingleBlockMemoryFileDataC2E10MemLabelIdPvjb
aom:__ZN15dense_hashtableINSt3__24pairIK10KeyWrapperINS1_IPK11Il2CppImageP11Il2CppClassEEEjEES9_17ReflectionMapHashIS8_EN14dense_hash_mapIS9_jSD_NS9_14EqualsComparerINS0_8equal_toIS8_EEEENS0_9allocatorISB_EEE9SelectKeyESI_SK_E15set_deleted_keyERKSB_
NQ:__ZN8Animator8TransferI14SafeBinaryReadEEvRT_
jva:__Z23AsyncReadForceCloseFileRKN4core12basic_stringIcNS_20StringStorageDefaultIcEEEE
Xea:__ZN16BaseVideoTexture19UpdateVideoTexturesEv
W8f:_MonoField_GetValue_m3124733531
eHd:__ZN14ParticleSystem14UpdateFunctionEP24ParticleSystemUpdateData
Uvb:__ZNK16LightmapSettings23HasLightProbeTetrahedraEv
pyd:__ZNK18ColorBySpeedModule12UpdateSingleERK22ParticleSystemParticleR11ColorRGBA32
Ahb:__ZN6Sprite23VirtualRedirectTransferER19StreamedBinaryWriteILb0EE
aLc:__ZN2UI13RectTransform12SetAnchorMaxERK8Vector2f
dPc:__Z38Transform_CUSTOM_INTERNAL_set_positionP12Il2CppObjectRK8Vector3f
wTf:_EventTrigger_Execute_m2453060771
rxk:_Comparison_1_Invoke_m517083441_gshared
Wim:__ZNK15dense_hashtableINSt3__24pairIK10KeyWrapperINS1_IPK9FieldInfoP11Il2CppClassEEEjEES9_17ReflectionMapHashIS8_EN14dense_hash_mapIS9_jSD_NS9_14EqualsComparerINS0_8equal_toIS8_EEEENS0_9allocatorISB_EEE9SelectKeyESI_SK_E5beginEv
yFm:__ZN6il2cpp2os6Thread15CurrentThreadIdEv
MO:__ZN15SerializeTraitsIN4math4trsXEE8TransferI8BlobSizeEEvRS1_RT_
Rbc:__ZN14DataBufferGLES11CopySubDataEPKS_jjj
Ge:_emscripten_glVertexPointer
Qzd:__ZN14ParticleSystem22SetUsesEmitAccumulatorEi
dEl:_PatternCompiler_GetMachineFactory_m3758869886
cTd:__ZN5physx2Gu19gjkLocalPenetrationINS0_8CapsuleVENS0_10ShrunkBoxVEEEjRKT_RKT0_RKNS_6shdfnd3aos6FloatVERNSB_5Vec3VESG_SG_RSC_PhSI_Rhb
Mrc:__Z17GetFrustumPortionPK8Vector3fffPS_
q5d:__ZNK5physx2Gu22SupportMapRelativeImplINS0_4BoxVEE18doWarmStartSupportEiRNS_6shdfnd3aos5Vec3VE
eym:__ZN15dense_hashtableINSt3__24pairIK10KeyWrapperIP14Il2CppIUnknownEjEES5_N6il2cpp5utils11PointerHashIS3_EEN14dense_hash_mapIS5_jSB_NS5_14EqualsComparerINS0_8equal_toIS4_EEEENS0_9allocatorIS7_EEE9SelectKeyESG_SI_E14squash_deletedEv
D2a:__ZN5Light13AwakeFromLoadE17AwakeFromLoadMode
lLl:_GUILayoutEntry_ApplyOptions_m1741659338
Ygh:_Default_check_arguments_m3882727959
vNh:_RuntimeTypeHandle_Equals_m2857439487_AdjustorThunk
$Fb:__ZNK9GfxDevice27GetPlatformAdjustedViewportEv
I$h:_ScrollRect_get_rectTransform_m2442061719
nrk:_ReadOnlyCollection_1_System_Collections_Generic_IListU3CTU3E_set_Item_m88350439_gshared
Vta:__ZNSt3__26vectorINS_4pairIiiEE13stl_allocatorIS2_L18MemLabelIdentifier38ELi16EEE6insertENS_11__wrap_iterIPKS2_EEOS2_
Uza:__ZNSt3__26__treeINS_12__value_typeIPvsEENS_19__map_value_compareIS2_S3_NS_4lessIS2_EELb1EEE13stl_allocatorIS3_L18MemLabelIdentifier86ELi16EEE25__emplace_unique_key_argsIS2_JNS_4pairIS2_sEEEEENSD_INS_15__tree_iteratorIS3_PNS_11__tree_nodeIS3_S2_EEiEEbEERKT_DpOT0_
yBd:__ZN37InheritVelocityModulePropertyBindings13SetFloatValueER14ParticleSystemif
eOf:__GLOBAL__sub_I_artifacts_WebGL_codegenerator_0_cpp_6965
fzk:_Func_3_Invoke_m1194147890_gshared
NGl:_Reference_Compile_m4195878675
Mtk:_ReadOnlyCollection_1_System_Collections_ICollection_CopyTo_m2672196987_gshared
A0c:__ZN16StreamedResource8TransferI24GenerateTypeTreeTransferEEvRT_
HBh:_RectTransform_get_anchorMin_m2928307238
T$d:__ZN5physx3Cct10Controller13onOriginShiftERKNS_6PxVec3E
X6i:_ArrayList__ctor_m3828927650
mYa:__ZN10Matrix3x3f15InvertTransposeEv
xLl:_GUILayoutGroup_SetHorizontal_m996475327
oLl:_GUILayoutEntry__cctor_m663865902
Epd:__ZN14EmissionModule8TransferI19StreamedBinaryWriteILb0EEEEvRT_
hjc:__Z11IsBatchmodev
VRe:__ZN5physx2Gu19_gjkRelativeRayCastINS0_9TriangleVENS0_11ConvexHullVEEEbRT_RT0_RKNS_6shdfnd3aos15PsMatTransformVERKNS9_6FloatVERKNS9_5Vec3VESI_RSD_RSG_SK_f
tQb:__Z29Transfer_Blittable_ArrayFieldI14SafeBinaryRead8Vector3fEvRT_R9ArrayInfoRK23StaticTransferFieldInfo
Sob:__ZN26SkinnedMeshRendererManager31HandlePreparationBreakingChangeER19SkinnedMeshRenderer
Flf:__ZN20TextRenderingPrivate8FontImpl18ResetCachedTextureEv
Efm:__ZN6il2cpp6icalls8mscorlib6SystemL16GetFieldFromTypeINS_5utils10functional6FilterINSt3__212basic_stringIcNS7_11char_traitsIcEENS7_9allocatorIcEEEENS4_13VmStringUtils21CaseSensitiveComparerEEEEEP21Il2CppReflectionFieldP11Il2CppClassSK_iRKT_
hXe:__ZNK5physx19ActorAABBUpdateTask7getNameEv
c8h:_X509KeyUsageExtension_Decode_m3150759625
kLm:_GC_print_finalization_stats
bzd:__Z16EmitterStoreDataRKN4math8float3x3ERKNS_7affineXER23ParticleSystemParticlesRK19ParticleSystemStatejRNS_8floatNx3ESC_RKNS_4pix4ER5RandNfffbb
cMl:_GUITargetAttribute_GetGUITargetAttrValue_m2954410352
HLc:__Z53Register_UnityEngine_Behaviour_get_isActiveAndEnabledv
_2i:_SimpleEnumerator_get_Current_m72361444
Cw:__ZNSt3__26vectorIN4core12basic_stringIcNS1_20StringStorageDefaultIcEEEENS_9allocatorIS5_EEE8__appendEj
gfa:__ZN13ProduceHelperI10SampleClipLb0EE7ProduceE10MemLabelId18ObjectCreationMode
erb:__ZN26PlayerSettingsSplashScreen8TransferI17RemapPPtrTransferEEvRT_
KRj:_ASN1_set_Value_m2803403806
Lfm:__ZN6il2cpp6icalls8mscorlib6SystemL17CollectTypeFieldsINS_5utils10functional10TrueFilterEEEvP11Il2CppClassPKS7_iRNSt3__26vectorIP9FieldInfoNSB_9allocatorISE_EEEERKT_
S5d:__ZN5physx3Scb5Scene20addArticulationJointERNS0_17ArticulationJointE
EGe:__ZN5physx7NpScene14resetFilteringERNS_12PxRigidActorEPKPNS_7PxShapeEj
CMc:__Z13GetTagManagerv
jxd:__Z25UpdateOrbitalAndRadialTplIL27ParticleSystemCurveEvalMode3ELS0_4ELS0_2EEvRK11MinMaxCurveS3_S3_S3_S3_S3_S3_R23ParticleSystemParticlesjjRKN4math8float3x3ERKNS6_7affineXERKNS6_7_float4E
C0i:_Hashtable__ctor_m1815022027
GGf:__ZN14UnityAnalytics19ConfigChangedStaticEPS_RKN4core12basic_stringIcNS1_20StringStorageDefaultIcEEEER8JSONReadb
qbk:_UTF8Encoding_GetChars_m1433288684
KP:__ZN11UnityEngine9Animation37HasGenericRootTransformPropertyValuesERKNS0_30AnimatorGenericBindingConstantEb
Lga:__ZN11UnityEngine15CloudWebService17CloudJobSchedulerD0Ev
cMd:__ZN15CapsuleCollider23VirtualRedirectTransferER14SafeBinaryRead
xub:__ZN18LoadSceneOperation7PerformEv
eMe:__ZN5physx2Sc5Scene26setSimulationEventCallbackEPNS_25PxSimulationEventCallbackEh
UHd:__ZN11UnityEngine9Analytics26PerformanceReportingConfig13ConfigChangedERKN4core12basic_stringIcNS2_20StringStorageDefaultIcEEEER8JSONRead
fIk:__Z96RuntimeInvoker_Boolean_t97287965_RuntimeObject_RuntimeObject_Int32_t2950945753_Int32_t2950945753PFvvEPK10MethodInfoPvPS4_
TJj:_Array_IndexOf_TisUICharInfo_t75501106_m3198896198_gshared
QAf:__ZNK2UI11CanvasGroup22GetTypeVirtualInternalEv
AKi:_Context_get_Current_m2853615040
LWd:__ZL30GeomMTDCallback_CapsuleCapsuleRN5physx6PxVec3ERfRKNS_10PxGeometryERKNS_11PxTransformES5_S8_
iHe:__ZN5physx7NpScene23forceDynamicTreeRebuildEbb
xZd:__ZL18intersectAnyVsMeshILi0EEbPKN5physx2Gu6SphereEPKNS1_7CapsuleEPKNS1_3BoxERKNS1_13RTreeMidphaseERKNS0_11PxTransformERKNS0_11PxMeshScaleEP14LimitedResults
Tcd:__Z21CleanupGlobalGUIStatev
ggk:_Type_IsContextfulImpl_m3693603908
Ice:__ZN5physx14NpArticulation6wakeUpEv
zgc:__ZN22VertexDeclarationCache5ClearEv
aPh:_CspParameters__ctor_m3852972821
szc:__ZN17PersistentManager12SetPathRemapERKN4core12basic_stringIcNS0_20StringStorageDefaultIcEEEES6_
uJ:__Z27ProcessRootMotionEmptyMixerP35AnimationPlayableEvaluationConstantP32AnimationPlayableEvaluationInputP33AnimationPlayableEvaluationOutput
CPl:_PlayerMovement_Awake_m4232364429
rtc:__ZN6Camera24PrepareCullingParametersERK23CameraCullingParameters13RenderingPathR11CullResults
Ctc:__Z20CullReflectionProbesR8JobFenceRK22SceneCullingParametersRK23ReflectionProbesContextPKjjPjS9_
Iub:__ZN19RuntimeSceneManager22EndIntegrateMainThreadEP10UnitySceneNS_11LoadingModeE
Mal:_Array_Sort_TisUICharInfo_t75501106_m3474449559_gshared
wZi:_Buffer_BlockCopy_m2884209081
VRb:__Z26Transfer_UnityEngineObjectI17RemapPPtrTransferLb0EEvRK29SerializationCommandArgumentsR31RuntimeSerializationCommandInfo
aFl:_QuickSearch_GetShiftDistance_m2542665852
mdl:_Array_InternalArray__get_Item_TisCustomAttributeTypedArgument_t2723150157_m2639399822_gshared
YPj:_BigInteger_GenerateRandom_m3141592944
pUb:__Z29Transfer_Blittable_ArrayFieldI24GenerateTypeTreeTransfer4AABBEvRT_R9ArrayInfoRK23StaticTransferFieldInfo
F9c:__ZN9Scripting11UnityEngine12StylePainter12CleanupProxyEv
Udi:_Interval_Contains_m1454846757
W1f:_Graphic_CacheCanvas_m1120385152
W_:__ZN26AnimatorOverrideController15InitializeClassEv
e9e:__ZN5physx20InternalTriangleMesh16allocateVerticesEj
eLe:__ZN5physx2Sc16InteractionScene18releaseConstraintsEb
J9c:__ZN9Scripting11UnityEngine15ScrollViewState12CleanupProxyEv
ZSh:_InputField_set_contentType_m1277230266
pVe:__ZN5physx6shdfnd5ArrayINS_17PxcBroadPhasePairENS0_19ReflectionAllocatorIS2_EEE8recreateEj
fSm:_emscripten_GetProcAddress
Ja:invoke_fiiifii
ATm:_modff
GSd:__ZThn4_N16RayRTreeCallbackILi1ELb0EED1Ev
l2a:__ZN20SphericalHarmonicsL219AddDirectionalLightERKN4math7_float3ERKNS0_7_float4E
Q7e:__ZN5physx13BigConvexDataD2Ev
_za:__Z26ScheduleJobForEachInternalR8JobFencePFvPvjES1_iPFvS1_E11JobPriority
Fic:__ZZ23InitPlayerLoopCallbacksvEN41PostLateUpdateProfilerEndFrameRegistrator7ForwardEv
_Ic:__ZN9Scripting18RaiseMonoExceptionEPKcz
u$c:__ZN10GameObject17WillHandleMessageERK17MessageIdentifier
MRi:_StrongNamePublicKeyBlob_Equals_m3655422942
JSi:_SecurityContext__ctor_m1730177197
c0l:_RectTransformUtility_GetTransposed_m3952754222
_Yc:__ZN9ShaderLab16FastPropertyName15InitBy28BitHashEj
Kgl:_List_1_System_Collections_IList_set_Item_m4182383657_gshared
nLk:__Z96RuntimeInvoker_Void_t1185182177_Int32_t2950945753_Single_t1397266774_RuntimeObject_RuntimeObjectPFvvEPK10MethodInfoPvPS4_
Iti:_Enumerator_System_Collections_IDictionaryEnumerator_get_Key_m195047678_AdjustorThunk
Y_l:_Canvas_get_pixelPerfect_m333060872
vmb:__ZN17PackedFloatVector12UnpackFloatsEPfiiii
CM:__ZN17AnimationPlayable28UpdateInternalStateRecursiveILi3ELb0EEEvPK35AnimationPlayableEvaluationConstant
y9b:__ZN13GfxDeviceGLES21DestroyComputeProgramER12ObjectHandleI18ComputeProgram_TagPvE
iHj:_Enumerable_Any_TisRuntimeObject_m3853239423_gshared
zEl:_PatternCompiler_EmitIfDefined_m2075050865
OAj:_Decimal_System_IConvertible_ToInt64_m1446427516_AdjustorThunk
vxa:__ZN17UniqueIDGenerator16DestroyPureIndexEj
qdh:_NotImplementedException__ctor_m3095902440
zta:__ZL21AppendNestedClassName17ScriptingClassPtrRN4core17string_with_labelILi1EEE
iEc:__ZN14SafeBinaryRead21TransferSTLStyleArrayINSt3__26vectorIN9ShaderLab20SerializedSubProgram12UAVParameterENS1_9allocatorIS5_EEEEEEvRT_17TransferMetaFlags
Itm:__ZN6il2cpp8metadata13ArrayMetadata20SetupArrayInterfacesEP11Il2CppClassRKNS_2os12FastAutoLockE
dTh:_InputField_set_inputType_m424695295
Iha:__ZN24TextDOMTransferWriteBaseI9JSONWriteE12PushMetaFlagEi
jre:__ZN5physx7NpCloth22removeCollisionCapsuleEj
bug:__ZL59_PropertyBuilder_t1366136710_CustomAttributesCacheGeneratorP21CustomAttributesCache
Jld:__ZN16MinMaxPolyCurves26FindMinMaxDoubleIntegratedEv
hDa:__ZN6prcoreL26RemapGenericIntegerToFloatI17TexFormatARGB888815TexFormatRFloatEEvPKNS_9InnerInfoE
ekl:_List_1__ctor_m808270210_gshared
jpm:__ZN6il2cpp2vm17TypeNameParseInfoD2Ev
S2j:_PrimeHelper_ToPrime_m3704362632_gshared
r4:__ZN4FMOD7Channel7setModeEj
t3e:__ZN5physx18PxsSolverStartTask16articulationTaskEv
CGh:_Vector2_get_right_m1027081661
tfb:__ZNK8Renderer8GetLayerEv
a7d:__ZN5physx6shdfnd4sortIPvNS0_4LessIS2_EENS0_19ReflectionAllocatorINS_2Cm5BlockIS2_Lj16EEEEEEEvPT_jRKT0_RKT1_j
ppj:_Stream_Close_m771352034
I1a:__ZN12FlareManager11DeleteFlareEi
Fnc:__ZNK6Camera20GetReplacementShaderEv
Qke:__ZN18MultiQueryCallbackIN5physx12PxRaycastHitEE6invokeERfPKNS0_2Sq13PrunerPayloadEj
DPm:__ZNSt3__26__treeINS_12__value_typeINS_12basic_stringIcNS_11char_traitsIcEENS_9allocatorIcEEEEPFvvEEENS_19__map_value_compareIS7_SA_NS_4lessIS7_EELb1EEENS5_ISA_EEE4findIS7_EENS_15__tree_iteratorISA_PNS_11__tree_nodeISA_PvEEiEERKT_
V9a:__ZL23stbir__calculate_memoryP11stbir__info
tJd:__ZN14PhysicsManager18GetIgnoreCollisionEPKN5physx12PxFilterDataES3_
cdi:_Interpreter_Close_m126356671
INe:__ZN5physx18PxcNpThreadContextD2Ev
XJd:__ZN9Scripting11UnityEngine14SphereCollider12CleanupProxyEv
Pkb:__ZNK6Camera18GetRenderRectangleEv
u9h:_X509Chain_Reset_m1198177101
GKa:__ZN9Scripting11UnityEngine12Experimental9Playables20TextureMixerPlayable9InitProxyEv
Zkd:__ZN9Scripting11UnityEngine22ParticleCollisionEvent9InitProxyEv
fjb:__ZN13sorted_vectorIN4core12basic_stringIcNS0_20StringStorageDefaultIcEEEENSt3__24lessIS4_EE13stl_allocatorIS4_L18MemLabelIdentifier81ELi16EEE4findIS4_EENS5_11__wrap_iterIPS4_EERKT_
q_c:__Z13RegisterClassI30RuntimeInitializeOnLoadManagerEvPKc
rFl:_Parser_HandleExplicitNumericGroups_m1412234891
Ndl:_Array_InternalArray__get_Item_TisRaycastHit2D_t2279581989_m2440275162_gshared
Ahh:_CustomAttributeNamedArgument_Equals_m1414002036
qid:__ZL26Transfer_SimpleNativeClassI8JSONRead10RectOffsetLb1EEvRK29SerializationCommandArgumentsR31RuntimeSerializationCommandInfo
zDf:__Z44CanvasRenderer_CUSTOM_INTERNAL_CALL_SetColorP12Il2CppObjectRK10ColorRGBAf
uYa:__Z26TransformVerticesInnerLoopILb1ELb1ELb1EEvPhRK10Matrix4x4fRK10Matrix3x3fjPKhiS8_ii25GfxTransformVerticesFlagsj
p4j:_Enumerator_System_Collections_IEnumerator_Reset_m959124362_AdjustorThunk
UYf:_CanvasScaler_HandleScaleWithScreenSize_m3848620697
Mmc:__ZNK20DynamicPropertySheet18FindQueuedPropertyEN9ShaderLab16FastPropertyNameEN19ShaderPropertySheet12PropertyTypeE
gEj:_Enum_ToObject_m121831801
Rbf:__ZN5physx2Gu27computeBoundsAroundVerticesERNS_9PxBounds3EjPKNS_6PxVec3E
j4f:_Image_get_hasBorder_m3423344180
efd:__Z18Transfer_BlittableI9JSONWriteLb1EsEvRK29SerializationCommandArgumentsR31RuntimeSerializationCommandInfo
KFe:__ZNK5physx7NpScene9getLimitsEv
NHf:__Z48UnityAnalyticsHandler_CUSTOM_SendCustomEventNameP12Il2CppObjectP12Il2CppString
che:__ZN5physx2Sc8RigidSim25notifyShapeTranformChangeEv
nPc:__ZN9Transform16SetLocalRotationERK11Quaternionf
qSe:__ZNK5physx2Gu29EPASupportMapPairRelativeImplINS0_9TriangleVENS0_8CapsuleVEE9doSupportERKNS_6shdfnd3aos5Vec3VERS7_SA_SA_
m9c:__Z15CleanupGUIStylePv
Fjc:__ZN13RenderManager37RenderCamerasWithScriptableRenderLoopEi
iWe:__ZN3MBP12updateObjectEjRK5IAABB
nph:_Color_get_white_m332174077
cae:__ZN5physx6shdfnd5ArrayINS_6PxVec3ENS0_19ReflectionAllocatorIS2_EEE15growAndPushBackERKS2_
$8b:__ZN13GfxDeviceGLES22ReleaseThreadOwnershipEv
m6k:__Z37RuntimeInvoker_Enumerator_t3123848928PFvvEPK10MethodInfoPvPS4_
SBm:__ZN6il2cpp2os19ReleaseSocketHandleEj
lea:__ZN11AudioModule16GetDSPSampleRateEv
HJe:__ZN5physx2Sc5Scene20fireTriggerCallbacksEv
xSh:_InputField_get_characterValidation_m4196664041
jfk:_Type_get_Attributes_m58528356
RAf:__ZN2UI11CanvasGroup23VirtualRedirectTransferER19StreamedBinaryWriteILb0EE
ERe:__ZN5physx2Gu18GJKRelativeRayCastERNS0_8CapsuleVERNS0_4BoxVERKNS_6shdfnd3aos15PsMatTransformVERKNS6_6FloatVERKNS6_5Vec3VESF_RSA_RSD_SH_fb
PZi:_Array_GetUpperBound_m4018715963
$Cl:_X509Store__ctor_m2736551756
YRc:__Z13RegisterClassI9TextAssetEvPKc
mDm:__ZN6il2cpp2os5posix15PosixWaitObjectC2ENS2_4TypeE
Klc:__ZN6Camera21PostMultiCustomRenderENS_10RenderFlagEb
q7k:_Array_InternalArray__Insert_TisMonoResource_t4103430009_m1997865927_gshared
HPi:_SHA512Managed_HashFinal_m2173184560
$ec:__ZN12_GLOBAL__N_112UploadImagesEP7ApiGLESjji14GraphicsFormatPKhjS2_iiii16TextureUsageModePh
O5b:__ZN23ShaderVariantCollection13WarmupShadersEv
tNf:__ZN11UnityEngine15PlatformWrapper20GetPlayerPrefsUInt64ERKN4core12basic_stringIcNS1_20StringStorageDefaultIcEEEEy
gta:__Z25GetCommonScriptingClassesv
qvb:__Z27scripting_gc_collect_unsafei
kFi:_MD5SHA1_HashFinal_m4115488658
qea:__ZN11AudioModule20SuspendVideoTexturesEv
wLj:_Array_InternalArray__ICollection_Add_TisKeyValuePair_2_t71524366_m3468275433_gshared
AAf:__ZN9Scripting11UnityEngine9CSSLayout6Native9InitProxyEv
pda:__Z59Register_UnityEngine_AudioExtensionManager_GetAudioListenerv
wBe:__ZN5physx13NpRigidStaticC2ERKNS_11PxTransformE
HTb:__Z26Transfer_UnityEngineObjectI24GenerateTypeTreeTransferLb0EEvRK29SerializationCommandArgumentsR31RuntimeSerializationCommandInfo
Fuj:_Convert_ToDouble_m278900635
Lqf:_UNITY_FT_GlyphLoader_CheckPoints
Bqh:_DebugLogHandler_LogException_m302830419
tUh:_InputField_LineDownCharacterPosition_m2798128425
QRe:__ZN5physxL20PxcSweepBoxTrianglesERKNS_11PxsCCDShapeES2_RKNS_11PxTransformES5_S5_S5_fRNS_6PxVec3ES7_RNS_10PxcNpCacheERNS_18PxcNpThreadContextERKNS_2Cm23FastVertex2ShapeScalingERNS_2Gu9TriangleVEf
h0d:__ZN5physx3Cct15ObstacleContextD0Ev
Q1a:__ZN15SharedLightData7PrecalcEv
RSa:__ZN10Matrix4x4fmLERKS_
tAh:_Vector2__ctor_m3970636864
kSa:__ZN17TransformInternal12InitLocalTRSE15TransformAccessRKN4math7_float3ERKNS1_7_float4ES4_
iXb:__Z35Transfer_Blittable_FixedBufferFieldI18StreamedBinaryReadILb1EEsEvRK29SerializationCommandArgumentsR31RuntimeSerializationCommandInfo
DEj:_Environment_InternalGetFolderPath_m468390978
PCb:__ZN15ArchiveReadFileD0Ev
Ar:__ZN14NavMeshManager13RegisterAgentER12NavMeshAgentRi
Rx:__ZN11DynamicMesh24RemoveDegeneratePolygonsEv
w2m:b82
sTi:_SecurityFrame_ToString_m339310712
AKe:__ZN5physx3Scb9Aggregate9syncStateERNS0_5SceneE
kcj:_Calendar__ctor_m106290643
A1f:_FontUpdateTracker_RebuildForFont_m3134452007
seh:_NumberFormatter_FormatDecimal_m1921932981
GHd:__ZN14ParticleSystem18SyncSimulationJobsEv
Sfm:__ZN6il2cpp6icalls8mscorlib6System8MonoType19GetGenericArgumentsEP20Il2CppReflectionType
gLi:_TlsClientKeyExchange_ProcessAsTls1_m338960549
kXf:_TouchInputModule_ProcessTouchPress_m3504077560
GCd:__ZN22ParticleSystemRenderer13BoundsChangedEv
v1h:_Selectable_IsInteractable_m2611421038
pqf:_FT_MSB
U2m:_emscripten_glReadPixels__wrapper
h3j:_HashSet_1_Add_m1971460364_gshared
$Wc:__ZZL23RegisterLightPropertiesR22GenericPropertyBindingEN29Wrapper_LightShadowNormalBias13GetFloatValueEPv
RPm:__ZN6il2cpp6icalls8mscorlib4Mono8Security12Cryptography18KeyPairPersistence10_CanSecureEP12Il2CppString
xFj:_Array_InternalArray__ICollection_Contains_TisParameterModifier_t1461694466_m1000453323_gshared
kge:__ZN5physx7NpActor17resolveReferencesERNS_24PxDeserializationContextE
Gef:__ZN9Rigidbody15InitializeClassEv
$Wj:_Dictionary_2_System_Collections_ICollection_CopyTo_m4047192178_gshared
Fhm:__ZN6il2cpp2os4File11GetFileStatERKNSt3__212basic_stringIcNS2_11char_traitsIcEENS2_9allocatorIcEEEEPNS0_8FileStatEPi
nHf:__ZN14UnityAnalytics22HandleCustomEventLimitERN11UnityEngine9Analytics15UserCustomEventE
Cpd:__ZN13InitialModule8TransferI19StreamedBinaryWriteILb0EEEEvRT_
XSc:__ZN9TransformC2E10MemLabelId18ObjectCreationMode
E7b:__ZN13GfxDeviceGLES14SetRasterStateEPK17DeviceRasterState
ngh:_Assembly_ToString_m2053237013
svh:_Vector4_Equals_m1779210055
w2d:__ZN5physx6shdfnd8internal8HashBaseINS0_4PairIKPKNS_2Sc8ShapeSimENS4_10NPhaseCore16ClothListElementEEES7_NS0_4HashIS7_EENS1_11HashMapBaseIS7_SA_SD_NS0_9AllocatorEE6GetKeyESF_Lb1EE5eraseERS8_
Asf:_otv_Coverage_get_count
Sag:_ParameterModifier_t1461694466_marshal_pinvoke_back
iNa:__ZN14SafeBinaryRead11EndTransferEv
uEd:__ZL32TransformParticleMeshAnimatedUVsILb1EEvRK16ParticleMeshDataiRK22ParticleSystemTempDataRK31ParticleSystemParticlesTempData11ColorRGBA32RK26ParticleSystemRendererDataRK21ParticleSystemModulesRKN4math7affineXERKNSG_8float3x3ERK23ParticleSystemParticlesjPPhPPf
gq:__ZN9Scripting11UnityEngine13Accessibility13VisionUtility9InitProxyEv
YDj:_Enum_System_IConvertible_ToUInt16_m4216751959
Jqd:__ZN11MinMaxCurve11ResetCurvesEv
h7k:_Array_InternalArray__Insert_TisInt32_t2950945753_m4073217122_gshared
LNi:_RNGCryptoServiceProvider_RngClose_m3915778345
brj:_SortedList_Remove_m2784369438
Hcb:__ZN4crnd12crn_unpacker10unpack_dxnEPPhjjj
Tta:__ZN14SerializedFileD2Ev
rvd:__Z16UpdateOrbitalTplIL27ParticleSystemCurveEvalMode2EEvRK11MinMaxCurveS3_S3_S3_S3_S3_S3_R23ParticleSystemParticlesjjRKN4math8float3x3ERKNS6_7affineXERKNS6_7_float4E
qad:__Z30Event_Get_Custom_PropModifiersP12Il2CppObject
n8d:__ZN5physx6shdfnd5ArrayIPvNS0_16AlignedAllocatorILj64ENS0_9AllocatorEEEE15growAndPushBackERKS2_
tse:__ZN5physx6shdfnd5ArrayINS_35PxClothParticleSeparationConstraintENS0_19ReflectionAllocatorIS2_EEE6resizeEjRKS2_
bH:__ZN7mecanim9animation16CreateClipOutputEPKNS0_4ClipERNS_6memory9AllocatorE
_Yh:_RawImage_get_mainTexture_m2396337033
kod:__ZN27ParticleSystemEmissionBurst8TransferI24GenerateTypeTreeTransferEEvRT_
Rhm:__ZN6il2cpp2vm10Reflection17GetAssemblyObjectEPK14Il2CppAssembly
w$d:__ZN5physx3Cct12SweptCapsuleC2Ev
Cv:__ZN14NavMeshCarving17ApplyCarveResultsEv
ZCc:__ZN6Shader21AwakeFromLoadThreadedEv
rCa:__ZN6prcoreL17RemapGenericFloatI17TexFormatRGBFloat17TexFormatRGBAHalfEEvPKNS_9InnerInfoE
TPj:_BigInteger__ctor_m3991350270
vOc:__Z58Register_UnityEngine_PlayerConnectionInternal_PollInternalv
qGh:_Vector2_GetHashCode_m3916089713_AdjustorThunk
Mff:__ZN5physx24PxcContactBoxHeightFieldERKNS_2Gu13GeometryUnionES3_RKNS_11PxTransformES6_RKfRNS_10PxcNpCacheERNS0_13ContactBufferE
eRm:__ZN6il2cpp2os9SemaphoreC2Eii
Oif:__Z13RegisterClassI14PhysicsManagerEvPKc
tOb:__ZNSt3__26vectorI8MonoPPtr13stl_allocatorIS1_L18MemLabelIdentifier1ELi16EEE8__appendEj
lmc:__ZN14qsort_internal30FindAndMovePivotToLastPositionIP17RODataReplacementi19ROSorterReplacementEEvT_S4_T0_T1_
Sfc:__ZN15UniformTFMethod20IsBoneCountSupportedEi
_We:__ZNK5physx23AggregateAABBUpdateTask7getNameEv
zjk:_UnauthorizedAccessException__ctor_m246605039
wfg:_LifetimeServices_set_SponsorshipTimeout_m2538334028
Xu:__ZN24GenerateTypeTreeTransfer21TransferSTLStyleArrayINSt3__26vectorI14HeightMeshData13stl_allocatorIS3_L18MemLabelIdentifier77ELi16EEEEEEvRT_17TransferMetaFlags
IYm:dynCall_viidi
kwi:_KeyCollection__ctor_m1356492051_gshared
Pqa:__ZN24ScriptingMethodFiltering17FilterOnSignatureENS_18MethodSearchFilterE
Wpd:__ZN11TrailModule8TransferI19StreamedBinaryWriteILb0EEEEvRT_
V6e:__ZN5physx13NpClothFabric16scaleRestlengthsEf
hHf:__ZNSt3__26__treeINS_12__value_typeIN4core12basic_stringIcNS2_20StringStorageDefaultIcEEEEN11UnityEngine9Analytics15UserCustomEvent11CustomValueEEENS_19__map_value_compareIS6_SB_NS_4lessIS6_EELb1EEE13stl_allocatorISB_L18MemLabelIdentifier6ELi16EEE7destroyEPNS_11__tree_nodeISB_PvEE
Npf:_cf2_arrstack_finalize
QBl:_X509Certificate_VerifySignature_m3538124832
z9j:_StringBuilder_Append_m1640838743
tpj:_StreamAsyncResult_SetComplete_m1102187093
CUc:__ZN13MonoBehaviour19HandleNotificationsEPviR11MessageData
qBh:_RectOffset_Init_m2028508611
dDe:__ZN5physx6shdfnd5ArrayIPNS_2Sc17ParticleSystemSimENS0_19ReflectionAllocatorIS4_EEE8recreateEj
bnl:_List_1_System_Collections_IList_Remove_m4226673807_gshared
BGi:_Alert__ctor_m3135936936
R4b:__Z14SetPlayerFocusb
Ijj:_Int64_System_IConvertible_ToInt32_m772105781
Kyl:_TlsClientSettings__ctor_m3220697265
Slm:__ZNK15dense_hashtableINSt3__24pairIK10KeyWrapperINS1_IPK9EventInfoP11Il2CppClassEEEjEES9_17ReflectionMapHashIS8_EN14dense_hash_mapIS9_jSD_NS9_14EqualsComparerINS0_8equal_toIS8_EEEENS0_9allocatorISB_EEE9SelectKeyESI_SK_E23find_position_with_hashERSA_j
XQf:__ZL45__ManagedRegistrationHelperFunction_SubsystemPv
pWj:_Dictionary_2_make_pair_m2250450206_gshared
Q8j:_ForwardingDecoder_GetChars_m4228908854
xdi:_InterpreterFactory_get_GroupCount_m2226373271
p$m:b53
k$m:b50
l$m:b51
V_e:__ZN5physx9PxTaskMgrD0Ev
x$m:b57
u$m:b54
v$m:b55
iD:__ZL45__ManagedRegistrationHelperFunction_HumanBonePv
NOj:_SimpleCollator_IsSafe_m310268646
J_i:_X509Certificate_get_RawData_m2387471414
o1m:_glDetachShader__wrapper
f3i:_ArrayTypeMismatchException__ctor_m3375008173
Txi:_Transform_1_BeginInvoke_m1757796657_gshared
LJa:__ZN9Scripting11UnityEngine7Hash12812CleanupProxyEv
STc:__ZN10GameObject12CleanupClassEv
Zae:__ZN5physx3Scb5Scene13addRigidNoSimINS0_11RigidStaticELb0ELb1EEEvRT_RNS0_13ObjectTrackerE
bGb:__ZN9GfxDevice25SetShaderPropertiesSharedERK19ShaderPropertySheet
xNf:__ZN11UnityEngine7Connect20RemoteConfigSettingsC2ERKN4core12basic_stringIcNS2_20StringStorageDefaultIcEEEEPFvPS1_E18ScriptingObjectPtr
YXf:_BaseMeshEffect_get_graphic_m1852367505
P9i:_CaseInsensitiveHashCodeProvider_GetHashCode_m2168170016
vJb:__ZN18AsyncUploadManager19AsyncResourceUploadER9GfxDeviceii9TextureID
RKa:__ZN9Scripting11UnityEngine12Experimental18GlobalIllumination11LightDataGI12CleanupProxyEv
xUc:__ZL25InitializeDefaultMaterialv
qEf:__Z53Register_UnityEngine_CanvasRenderer_get_materialCountv
Z4f:_PropertyBuilder_GetCustomAttributes_m3798356764
Wag:_PropertyInfo_get_MemberType_m2794839864
VQl:_EventTrigger_RemoveRule_m1596811726
Dsi:_Comparer_1_System_Collections_IComparer_Compare_m4179495191_gshared
Bwb:__ZN17PersistentManager12UnloadStreamERKN4core12basic_stringIcNS0_20StringStorageDefaultIcEEEEb
c3f:_GraphicRegistry__cctor_m1805310505
Q7k:_Array_InternalArray__Insert_TisUICharInfo_t75501106_m2924156520_gshared
Lnh:_Bounds_Equals_m3920299735
mLj:_MonoProperty_GetterAdapterFrame_TisRuntimeObject_TisRuntimeObject_m458718082_gshared
hal:_Array_Sort_TisInt32_t2950945753_TisInt32_t2950945753_m3955828611_gshared
orm:_il2cpp_unity_liveness_calculation_from_statics
K$k:__Z70RuntimeInvoker_Boolean_t97287965_CharU26_t1697032762_Int16_t2552820387PFvvEPK10MethodInfoPvPS4_
NK:__ZNK26AnimatorControllerPlayable11DerivesFromE17ScriptingClassPtr
Tpi:_InternalEnumerator_1_System_Collections_IEnumerator_get_Current_m2649471526_gshared
fgb:__ZN8Renderer8TransferI17RemapPPtrTransferEEvRT_
qab:__ZN6prcore16BlitFuncInfoSIMD19BlitFuncExecuteSIMDEPKNS_9InnerInfoEPKv
SOf:__ZN20UnityWebRequestProtoI24UnityWebRequestTransport16AtomicRefCounter14RedirectHelper14ResponseHelper15DownloadHandler13UploadHandler18CertificateHandler12HeaderHelper14AsyncOperationE9DoRequestEv
Eti:_Enumerator_System_Collections_IDictionaryEnumerator_get_Entry_m522483686_gshared
Lq:__ZN15NavMeshSettings23VirtualRedirectTransferER24GenerateTypeTreeTransfer
Ack:_Thread_get_CurrentContext_m1695017876
rse:__ZNK5physx2Sc9ClothCore16getCollisionDataEPNS_22PxClothCollisionSphereEPjPNS_21PxClothCollisionPlaneES4_PNS_24PxClothCollisionTriangleE
AKc:__Z33Sprite_CUSTOM_INTERNAL_get_borderP12Il2CppObjectP8Vector4f
Lwc:__ZN16ReflectionProbes9GetCameraEv
xrc:__Z23CalculateLightOcclusionRK17LightProbeContextRK29LightProbeSamplingCoordinatesi
wwe:__ZNK5physx2Sc18ParticleSystemCore20getMaxMotionDistanceEv
MCd:__ZN22ParticleSystemRenderer8TransferI14SafeBinaryReadEEvRT_
oCf:__ZN2UI6Canvas17SetSortingLayerIDEi
jDm:__ZN6il2cpp2vm11MethodStack23CleanupForCurrentThreadEv
oxj:_Convert_ToUInt64_m388601487
V_a:__ZN20TierGraphicsSettings8TransferI24GenerateTypeTreeTransferEEvRT_
Fam:__ZN15dense_hashtableINSt3__24pairIK10KeyWrapperIN6il2cpp5utils13dynamic_arrayIPK10Il2CppTypeLj4EEEEPFvvEEESA_NS3_8metadata19Il2CppSignatureHashEN14dense_hash_mapISA_SD_SG_NSA_14EqualsComparerINSF_22Il2CppSignatureCompareEEENS0_9allocatorISE_EEE9SelectKeyESK_SM_E16reset_thresholdsEv
Pvh:_Mesh_get_vertices_m3585684815
FEh:_TouchScreenKeyboard_get_text_m1797464608
g8a:__ZN18UnityPropertySheet8TransferI19StreamedBinaryWriteILb0EEEEvRT_
GD:__ZN9Scripting11UnityEngine27AnimatorControllerParameter9InitProxyEv
YAa:__ZNSt3__26__treeINS_12__value_typeIiN11TypeManager18TypeCallbackStructEEENS_19__map_value_compareIiS4_NS_4lessIiEELb1EEENS_9allocatorIS4_EEE7destroyEPNS_11__tree_nodeIS4_PvEE
uWa:__ZN9ShaderLab32FindBestMatchingShaderKeywordSetERK16ShaderKeywordSetRK13dynamic_arrayIS0_Lj0EEPS5_
$Eh:_Transform_INTERNAL_set_position_m3627767375
b0c:__ZNK14PlayableOutput23GetSourcePlayableUnsafeEv
vJf:__ZN11UnityEngine7Connect17XRDeviceInfoEventD0Ev
gUf:_ExecuteEvents_Execute_m3936726821
gvg:__ZL60SoapTypeAttribute_t1750930817_CustomAttributesCacheGeneratorP21CustomAttributesCache
Ugh:_Binder_ConvertArgs_m2124461494
SBc:__ZN21UnityDefaultAllocatorI17LowLevelAllocatorE10DeallocateEPv
A2m:b86
NVa:__ZN20IntermediateRenderer15AddAsRenderNodeER15RenderNodeQueueRK20DeprecatedSourceData
wU:__ZN15PackedIntVector8TransferI14SafeBinaryReadEEvRT_
nii:_InternalEnumerator_1_System_Collections_IEnumerator_get_Current_m1514266661_gshared
pee:__ZNK5physx19NpArticulationJoint20getTangentialDampingEv
jFi:_MD5SHA1_Initialize_m675470944
iMj:_Array_InternalArray__ICollection_Add_TisKeyframe_t4206410242_m442111799_gshared
Gkl:_List_1_CheckMatch_m3263549496_gshared
rzh:_PropertyNameUtils_PropertyNameFromString_Injected_m1259736140
Xba:__ZN13AudioListener8DoUpdateEv
YVd:__ZN5physx3Cct10Controller22setUpDirectionInternalERKNS_6PxVec3E
qdd:__ZN5Unity9rapidjson13GenericReaderINS0_4UTF8IcEES3_13JSONAllocatorE9ParseTrueILj1ENS0_25GenericInsituStringStreamIS3_EENS0_15GenericDocumentIS3_S4_S4_EEEEvRT0_RT1_
Pah:__Z13bankers_roundd
Vqb:__ZN14SafeBinaryRead8TransferI5RectTIfEEEvRT_PKc17TransferMetaFlags
Si:_emscripten_glGenFramebuffers
TAa:__ZN17BaseObjectManager16StaticInitializeEPv
bw:__ZL19MakeDetailEdgeSlabsP8Vector2fPK8Vector3fii
LIa:__ZN9Scripting11UnityEngine9Profiling8Profiler12CleanupProxyEv
Mfd:__Z18Transfer_BlittableI9JSONWriteLb0EyEvRK29SerializationCommandArgumentsR31RuntimeSerializationCommandInfo
s5a:__ZN13RenderTexture15ThreadedCleanupEv
Q8h:_X509BasicConstraintsExtension__ctor_m3721156175
mbb:__ZN12CubemapArray23VirtualRedirectTransferER14SafeBinaryRead
dte:__ZNK5physx2Sc9ClothCore23getNbCollisionTrianglesEv
Mf:___cxa_free_exception
Olj:_Path_GetFileName_m1354558116
g3l:_Physics_Raycast_m4145022031
ope:__ZN5physx7NpShape16setFlagsInternalENS_7PxFlagsINS_11PxShapeFlag4EnumEhEE
l0m:_emscripten_glUniform3i__wrapper
iPj:_SimpleCollator_IsPrefix_m3581642267
_Ah:_Rect_Contains_m1232228501_AdjustorThunk
eLc:__Z43RectTransform_CUSTOM_INTERNAL_set_sizeDeltaP12Il2CppObjectRK13Vector2fIcall
yTd:__ZN5physx2Gu30distanceSegmentTriangleSquaredERKNS_6shdfnd3aos5Vec3VES5_S5_S5_S5_RS3_S6_
Rjj:_Int64_System_IConvertible_ToType_m3223988955_AdjustorThunk
$ym:__ZN15dense_hashtableINSt3__24pairIK10KeyWrapperINS1_IPKcS4_EEEiEES6_24NamespaceAndNamePairHashN14dense_hash_mapIS6_iS9_NS6_14EqualsComparerI26NamespaceAndNamePairEqualsEENS0_9allocatorIS8_EEE9SelectKeyESD_SF_E6insertERKS8_
YOa:__ZN24GenerateTypeTreeTransfer18BeginArrayTransferEPKcS1_Ri17TransferMetaFlags
Ldl:_Array_InternalArray__get_Item_TisPlayableBinding_t354260709_m3837494573_gshared
mWc:__ZN4Mesh17VerifyBoneIndicesEj
Rm:___syscall51
zWi:_String_CreateString_m4016935005
ODl:_MatchCollection_get_FullList_m1829231879
Vm:___syscall54
X1i:_Array_GetValue_m2528415604
jCh:_Transform_INTERNAL_CALL_TransformPoint_m4261269221
ahj:_Guid_AppendShort_m791023083
all:_List_1__ctor_m4212503576_gshared
Mqf:_cff_builder_add_point1
iAm:__ZN6il2cpp2vm5Image21GetCachedResourceDataEPK11Il2CppImageRKNSt3__212basic_stringIcNS5_11char_traitsIcEENS5_9allocatorIcEEEE
bNb:__Z18Transfer_BlittableI14SafeBinaryReadLb0E10ColorRGBAfEvRK29SerializationCommandArgumentsR31RuntimeSerializationCommandInfo
nAd:__ZN21InheritVelocityModuleD2Ev
Fa:invoke_iiiiiiiiii
eda:__ZN11AudioSource25GetNumExtensionPropertiesEv
vNj:_Array_InternalArray__ICollection_CopyTo_TisUILineInfo_t4195266810_m104406798_gshared
DSc:__ZZL31RegisterRectTransformPropertiesR22GenericPropertyBindingEN32Wrapper_RectTransformAnchorMaxx013GetFloatValueEPv
oqh:_Debug_LogErrorFormat_m3558239521
yub:__ZN18LoadSceneOperation19IntegrateTimeSlicedEi
STh:_InputField_ActivateInputFieldInternal_m3360893886
Z9:__ZN4FMOD7SystemI11createSoundEPKcjP22FMOD_CREATESOUNDEXINFOPPNS_5SoundE
_Ac:__ZN10FileSystem19SetCurrentDirectoryERKN4core12basic_stringIcNS0_20StringStorageDefaultIcEEEE
zph:_Component_get_gameObject_m442555142
Ata:__ZN16ScriptingManager24NotifyScriptCacheReleaseEi
cTc:__ZN23TransformChangeDispatch24RemovePermanentInterestsE15TransformAccessPKN5Unity4TypeE
L6c:__Z47Register_UnityEngine_Coroutine_ReleaseCoroutinev
Xae:__ZN10ScSceneFnsIN5physx3Scb11RigidStaticEE6insertERNS0_2Sc5SceneERS2_
R2:__ZN15AudioReverbZone13SetFMODValuesEv
ryd:__ZNK17SizeBySpeedModule12UpdateSingleERK22ParticleSystemParticlebR8Vector3f
Ena:__ZL19StaticDestroyShaderPv
Be:_glRenderbufferStorageMultisample
W$c:__ZN8Playable4PlayEv
r5h:_DefaultCertificatePolicy_CheckValidationResult_m3811448269
ZL:__ZN23AnimationPlayableOutput17SetTargetAnimatorEP8Animator
Poc:__ZN22MotionVectorRenderLoopD2Ev
UYd:__ZN5physx2Gu20sweepCCTBoxTrianglesEjPKNS_10PxTriangleEbRKNS_13PxBoxGeometryERKNS_11PxTransformERKNS_6PxVec3EfRSA_SD_RfRjPKjfNS_7PxFlagsINS_9PxHitFlag4EnumEtEE
wXd:__ZN5physx2Gu15OBBTriangleTestC2ERKNS0_3BoxE
BTg:__ZL76AnimatorTransitionInfo_t2534804151_CustomAttributesCacheGenerator_m_FullPathP21CustomAttributesCache
Rtd:__Z25EvaluateRandomGradientHDRIL12GradientMode0ELS0_0EEN4math8floatNx4ERK14MinMaxGradientRKNS1_7_float4ES8_
sYd:__ZN5physx2Gu21computeMTD_SphereMeshERNS_6PxVec3ERfRKNS0_6SphereERKNS_22PxTriangleMeshGeometryERKNS_11PxTransformE
qLj:_Array_InternalArray__ICollection_Add_TisClientCertificateType_t1004704908_m2622721177_gshared
TV:__ZN17PackedFloatVector8TransferI18StreamedBinaryReadILb0EEEEvRT_
I2d:__ZN5physx2Sc10NPhaseCore15fetchFilterPairEPv
Iyd:__Z11StartCircleILN11ShapeModule14MultiModeValueE2EEvRS0_R23ParticleSystemParticlesRK19ParticleSystemStateRK27ParticleSystemEmissionStateRKN4math8float3x3ERKNSB_7affineXEjbj
xcf:__ZN5physx12SubSortQuick5sort4EPjjRNS_6shdfnd5ArrayINS_11RTreeNodeNQENS2_19ReflectionAllocatorIS4_EEEERjRNS_10PxBounds3VEj
N8c:__Z37Register_UnityEngine_Screen_get_widthv
n9d:__ZN5physx6shdfnd5ArrayIPNS_2Sc8BodyCoreENS0_19ReflectionAllocatorIS4_EEE15growAndPushBackERKS4_
bJl:_Uri_get_Authority_m3816772302
UJc:__ZN22BlockMemoryCacheWriter11GetPathNameEv
jDi:_BigInteger_op_Division_m3713793389
pQf:__GLOBAL__sub_I_artifacts_WebGL_codegenerator_0_cpp_7489
nVe:__ZN5physx16PxsBroadPhaseMBPC2ERNS_19PxcScratchAllocatorERNS_2Cm13EventProfilerERKNS_11PxSceneDescEPNS_14PxsAABBManagerE
_9f:_ParameterInfo__ctor_m3269320476
kLd:__ZN14PhysicsManager23VirtualRedirectTransferER14SafeBinaryRead
BZ:__ZN6Avatar23VirtualRedirectTransferER14SafeBinaryRead
Rbi:_X509SubjectKeyIdentifierExtension_FromHexChars_m3244835916
dUi:_Single_CompareTo_m2785801815
Nik:_UInt64_System_IConvertible_ToInt32_m949522652_AdjustorThunk
zAl:_PKCS12_MAC_m3355614022
uie:__ZN5physx7NpActor14onActorReleaseEPNS_7PxActorE
L$d:__ZN5physx3Cct26CharacterControllerManager19computeInteractionsEfPNS_26PxControllerFilterCallbackE
Zp:stackAlloc
F7d:__ZN5physx6shdfnd8PoolBaseINS_2Cm5BlockIhLj256EEENS0_19ReflectionAllocatorIS4_EEE12allocateSlabEv
_Db:__ZN25SingleBlockMemoryFileData4LockEPPv
Z3m:_glProgramParameteri__wrapper
YRa:__ZN9Transform35SetLocalPositionWithoutNotificationERKN4math7_float3Ey
kNc:__Z32RectOffset_Get_Custom_PropBottomP12Il2CppObject
kqh:_Debug_LogError_m2850623458
iWl:__ZL24UnresolvedVirtualCall_79P12Il2CppObjectPK10MethodInfo
mDc:__ZNSt3__26__treeINS_12__value_typeIN4core12basic_stringIcNS2_20StringStorageDefaultIcEEEE4PPtrI7TextureEEENS_19__map_value_compareIS6_SA_NS_4lessIS6_EELb1EEENS_9allocatorISA_EEE7destroyEPNS_11__tree_nodeISA_PvEE
XQk:__Z69RuntimeInvoker_UInt64_t4134040092_Int32_t2950945753_SByte_t1669577662PFvvEPK10MethodInfoPvPS4_
MTm:_stat
BWa:__ZN9ShaderLab10SubProgram7CompileEv
S4f:_PropertyBuilder_get_CanRead_m3783190070
EKa:__ZN9Scripting11UnityEngine12Experimental9Playables21TexturePlayableOutput9InitProxyEv
aIi:_CipherSuiteCollection_System_Collections_IList_get_Item_m2175128671
p6b:__ZNSt3__218__insertion_sort_3IRNS_4lessIN22BuiltinResourceManager8ResourceEEEPS3_EEvT0_S7_T_
uYe:__ZN5physx2Gu21findUniqueConvexEdgesEjPNS0_10ConvexEdgeEjPKNS0_15HullPolygonDataEPKh
i7c:__Z50Register_UnityEngine_Camera_get_pixelRect_Injectedv
rBe:__ZN5physx20NpRigidActorTemplateINS_14PxRigidDynamicEED0Ev
qa:invoke_iiiiiiiiiiii
ryj:_DateTime_System_IConvertible_ToType_m1242864300_AdjustorThunk
gTe:__ZN5physx43solveContactCoulombPreBlock_WriteBackStaticEPKNS_23PxcSolverConstraintDescEjRNS_16PxcSolverContextEPNS_25PxcThresholdStreamElementEjPi
bpi:_InternalEnumerator_1_get_Current_m2446410893_AdjustorThunk
dYa:__Z29CalculateDefaultChannelsToAdd17ShaderChannelMaskS_
O2i:_Array_Sort_m870838517
D7d:__ZN5physx2Sc5Scene23allocateConstraintBlockEj
I$l:_CanvasRenderer_SetMaterial_m633746949
oNk:__Z99RuntimeInvoker_RuntimeObject_RuntimeObject_RuntimeObject_StreamingContext_t3711869237_RuntimeObjectPFvvEPK10MethodInfoPvPS4_
w7:__ZN10AudioMixer12RebindOutputEv
Zhg:_MethodCall_InitMethodProperty_m1333573177
wtm:__ZNK15dense_hashtableINSt3__24pairIK10KeyWrapperIP11Il2CppClassES4_EES5_N6il2cpp8metadata16SZArrayClassHashEN14dense_hash_mapIS5_S4_SA_NS5_14EqualsComparerINS9_19SZArrayClassCompareEEENS0_9allocatorIS7_EEE9SelectKeyESE_SG_E5beginEv
__h:_Selectable_get_navigation_m3508916916
WWh:_LayoutRebuilder_PerformLayoutControl_m4241054021
K5l:__ZN6il2cpp2vm17SetupFieldsLockedEP11Il2CppClassRKNS_2os12FastAutoLockE
tmh:_AnimationCurve__ctor_m1565662948
S8:__ZN11AudioSourceD0Ev
Adc:__ZN18GlslGpuProgramGLES13SwitchProgramEj
T8d:__ZN5physx2Sc5Actor15onElementDetachERNS0_7ElementE
phc:__ZN20ArchiveStorageReaderC2E10MemLabelId
FHk:__Z132RuntimeInvoker_Int32_t2950945753_RuntimeObject_Int32_t2950945753_Int32_t2950945753_RuntimeObject_Int32_t2950945753_Int32_t2950945753PFvvEPK10MethodInfoPvPS4_
HBd:__ZN27TrailModulePropertyBindings13SetFloatValueER14ParticleSystemif
IEb:__ZN16MemoryFileSystem4NameEv
cFd:__Z20UpdateWholeSheet2TplIL27ParticleSystemCurveEvalMode2ELS0_0EEvfRK11MinMaxCurveS3_RK23ParticleSystemParticlesPf
Ewd:__Z22UpdateOrbitalOffsetTplIL27ParticleSystemCurveEvalMode2ELS0_4EEvRK11MinMaxCurveS3_S3_S3_S3_S3_S3_R23ParticleSystemParticlesjjRKN4math8float3x3ERKNS6_7affineXERKNS6_7_float4E
CCf:__Z37Canvas_Set_Custom_PropOverrideSortingP12Il2CppObjecth
y5c:__Z13SetCopyBufferRKN4core12basic_stringIcNS_20StringStorageDefaultIcEEEE
EVd:__ZN5physx3Cct13BoxController13setHalfHeightEf
xKe:__ZN5physx3Scb13ObjectTracker5clearEv
T_i:_X509CertificateEnumerator_System_Collections_IEnumerator_get_Current_m418791713
cnf:_UNITY_FT_New_Size
$Lc:__Z42ScriptingGetComponentsOfTypeFromGameObjectRK26ScriptingGetComponentsArgs
Mka:__ZN19CloudServiceHandler11FlushEventsEv
wud:__Z9UpdateTplIL27ParticleSystemCurveEvalMode4EEvRK11MinMaxCurveS3_S3_R23ParticleSystemParticlesjjRKN4math8float3x3ERKNS6_7_float4E
SWd:__ZL23GeomMTDCallback_BoxMeshRN5physx6PxVec3ERfRKNS_10PxGeometryERKNS_11PxTransformES5_S8_
rNg:__ZL73ArgumentCache_t2187958399_CustomAttributesCacheGenerator_m_ObjectArgumentP21CustomAttributesCache
ATg:__ZL65AnimatorTransitionInfo_t2534804151_CustomAttributesCacheGeneratorP21CustomAttributesCache
pbl:_Array_swap_TisRaycastResult_t3360306849_TisRaycastResult_t3360306849_m3400922624_gshared
cKd:__ZN9Scripting11UnityEngine21ControllerColliderHit9InitProxyEv
$Oh:_CspParameters__ctor_m2741097571
TBd:__ZN35ClampVelocityModulePropertyBindings13SetFloatValueER14ParticleSystemif
kre:__ZNK5physx7NpCloth22getNbCollisionCapsulesEv
D8a:__ZNSt3__27__sort4IRPFbRKNS_4pairIN9ShaderLab16FastPropertyNameEN18UnityPropertySheet11UnityTexEnvEEES8_EPS6_EEjT0_SD_SD_SD_T_
Lpf:_cf2_hintmap_build
fEh:_Texture_get_width_m888163864
PLc:__Z11StringToIntRKN4core16basic_string_refIcEE
Iyf:_Line_Up
PCf:__Z44Canvas_CUSTOM_GetETC1SupportedCanvasMaterialv
Ie:_emscripten_glBufferSubData
aWi:_String_ReplaceUnchecked_m1381393810
ice:__ZN5physx6shdfnd5ArrayIPvNS0_15InlineAllocatorILj256ENS0_19ReflectionAllocatorINS_7NpShapeEEEEEE15growAndPushBackERKS2_
g2a:__ZN11HaloManager10UpdateHaloEiR9Transform11ColorRGBA32fjP6Object
UDa:__ZN6prcoreL12RemapGenericI15TexFormatRGB88817TexFormatARGB8888EEvPKNS_9InnerInfoE
cs:__Z17CalculateGlobalRS23TransformAccessReadOnly
qzf:__Z56Register_UnityEngine_TextGenerator_GetCharactersInternalv
cPl:_LightningBolt_ChangePhase_m4014815663
oOm:__ZNSt3__210__list_impIPN6il2cpp5utils10MemoryPool6RegionENS_9allocatorIS5_EEE5clearEv
K2b:__ZNK25PathNamePersistentManager24PathIDToPathNameInternalEi
Moa:__ZN33InstancedMeshIntermediateRenderer13StaticDestroyEPv
Vce:__ZNK5physx14NpArticulation22computeImpulseResponseEPNS_18PxArticulationLinkERNS_6PxVec3ES4_RKNS_24PxArticulationDriveCacheERKS3_S9_
i4d:__ZN5physx2Sc19ContactReportBuffer23reallocateNotThreadSafeEjRjjj
DAb:__ZNK12HandlerChain7ToLocalERK13FileEntryDataRN4core12basic_stringIcNS3_20StringStorageDefaultIcEEEERyS9_
P6d:__ZN5physx2Sc5Actor19registerInteractionEPNS0_11InteractionE
xxb:__ZN22MemoryCacherReadBlocks14LockCacheBlockEjPPhS1_
Zom:__ZN6il2cpp2vm14TypeNameParser17ParseAssemblyNameEv
Mkb:__ZNK9GfxDevice26GetSinglePassStereoEyeMaskEv
yqh:_DebugLogHandler_Internal_Log_m4175774469
ZZg:__ZL54EventSystem_t1003666588_CustomAttributesCacheGeneratorP21CustomAttributesCache
bIm:__ZN4utf88internal15increase_safelyIPKcEENS0_9utf_errorERT_S5_
Q6i:_CharEnumerator_get_Current_m525608209
jjf:__ZN13PhysicsModule19CreateNxHeightFieldEPv
pv:__ZN19StreamedBinaryWriteILb0EE21TransferSTLStyleArrayINSt3__26vectorI15NavMeshTileData13stl_allocatorIS4_L18MemLabelIdentifier77ELi16EEEEEEvRT_17TransferMetaFlags
PSf:__Z21ArrayElementTypeCheckP11Il2CppArrayPv
c3m:_emscripten_glTexSubImage2D__wrapper
lhb:__ZN18StreamedBinaryReadILb0EE21TransferSTLStyleArrayI13dynamic_arrayI33EnlightenTerrainChunksInformationLj0EEEEvRT_17TransferMetaFlags
fz:__ZNSt3__26__sortIR9SortIndexIPKhEPjEEvT0_S7_T_
Gpg:__ZL69DebuggerBrowsableAttribute_t1026244177_CustomAttributesCacheGeneratorP21CustomAttributesCache
rGa:__ZL48__ManagedRegistrationHelperFunction_LightmapDataPv
DVm:__ZNSt3__212basic_stringIcNS_11char_traitsIcEENS_9allocatorIcEEE6appendEjc
U$b:__Z13TransferFieldI18StreamedBinaryReadILb0EELb0E16Converter_StringEvRK23StaticTransferFieldInfoR31RuntimeSerializationCommandInfoRT1_
Oda:__ZN13ProduceHelperI15AudioMixerGroupLb0EE7ProduceE10MemLabelId18ObjectCreationMode
qOb:__Z14resize_trimmedINSt3__26vectorI8MonoPPtr13stl_allocatorIS2_L18MemLabelIdentifier1ELi16EEEEEvRT_j
qf:_TTF_RenderText_Solid
cwd:__Z25UpdateOrbitalAndRadialTplIL27ParticleSystemCurveEvalMode1ELS0_4ELS0_3EEvRK11MinMaxCurveS3_S3_S3_S3_S3_S3_R23ParticleSystemParticlesjjRKN4math8float3x3ERKNS6_7affineXERKNS6_7_float4E
Del:_List_1__ctor_m3947764094_gshared
Luh:_Material_HasProperty_m1904868334
kHf:__ZN14UnityAnalytics15Internal_CreateE18ScriptingObjectPtr
P5h:_HttpRequestCreator_Create_m400548686
yNf:__ZN11UnityEngine7Connect16PersistentValuesC2Ev
Avk:_ReadOnlyCollection_1_System_Collections_IList_Insert_m134149130_gshared
qfd:__Z18Transfer_BlittableI9JSONWriteLb0E5RectTIiEEvRK29SerializationCommandArgumentsR31RuntimeSerializationCommandInfo
y$f:__Z15CastclassSealedP12Il2CppObjectP11Il2CppClass
oGj:_Array_InternalArray__ICollection_Remove_TisDateTime_t3738529785_m2250893026_gshared
Fdc:__Z15IsIEEE754Format14GraphicsFormat
RLf:__ZN22BaseUnityConnectClient17RestoreValuesFileEv
_Rb:__Z19TransferField_ArrayI17RemapPPtrTransfer27Converter_UnityEngineObjectEvRK23StaticTransferFieldInfoR31RuntimeSerializationCommandInfoRT0_
zaj:_KeyNotFoundException__ctor_m541499307
nqc:__ZN19ShaderPropertySheet24SetTextureFromTextureRefERK23FastTexturePropertyNamePK10TextureRef
NHj:_SetPropertyUtility_SetStruct_TisSpriteState_t1362986479_m665096788_gshared
$Hk:__Z61RuntimeInvoker_Single_t1397266774_RuntimeObject_RuntimeObjectPFvvEPK10MethodInfoPvPS4_
uGj:_Array_InternalArray__ICollection_Remove_TisIntPtr_t_m3807208150_gshared
iLd:__ZN14PhysicsManager23VirtualRedirectTransferER17RemapPPtrTransfer
rli:_InternalEnumerator_1_get_Current_m2316281569_AdjustorThunk
Ctj:_DateTime__ctor_m1095105629
F8b:__ZN13GfxDeviceGLES15UploadTexture2DE9TextureID16TextureDimensionPKhiii14GraphicsFormati18TextureUploadFlags16TextureUsageMode
vK:__ZN7mecanim9animation25CreateControllerWorkspaceEPKNS0_18ControllerConstantERNS_6memory9AllocatorE
JJl:_Event_Cleanup_m2477919477
R5:__ZN4FMOD6System9createDSPEP20FMOD_DSP_DESCRIPTIONPPNS_3DSPE
rzg:__ZL87Thread_t2300836069_CustomAttributesCacheGenerator_Thread_GetCompressedStack_m2923422412P21CustomAttributesCache
lNi:_SslClientStream_get_ClientCertificates_m998716871
vL:__ZN7mecanim9animation26DestroyControllerWorkspaceEPNS0_19ControllerWorkspaceERNS_6memory9AllocatorE
$3:__ZN4FMOD8ChannelI11EndCallbackEv
Obd:__ZN8GUIStyle14SetDefaultFontEPN13TextRendering4FontE
Und:__ZN11ForceModule8TransferI24GenerateTypeTreeTransferEEvRT_
neb:__ZN15QualitySettings23VirtualRedirectTransferER24GenerateTypeTreeTransfer
wLh:_ObjectReader_ReadValue_m3145979203
a1:__ZN9Scripting11UnityEngine24AssetBundleCreateRequest9InitProxyEv
gZe:__ZN5physx2Gu32PCMConvexVsMeshContactGeneration35generateTriangleFullContactManifoldERNS0_9TriangleVEjPKjhRKNS0_13PolygonalDataEPNS0_16SupportLocalImplIS2_EEPNS0_12SupportLocalEPNS0_21MeshPersistentContactERjRKNS_6shdfnd3aos6FloatVERNSI_5Vec3VE
vGl:_AnchorInfo__ctor_m3523994803
x6c:__Z59Register_UnityEngine_MonoBehaviour_Internal_CancelInvokeAllv
W2g:__ZL68Scrollbar_t1494447233_CustomAttributesCacheGenerator_m_NumberOfStepsP21CustomAttributesCache
DX:__ZN14SafeBinaryRead21TransferSTLStyleArrayI22OffsetPtrArrayTransferI9OffsetPtrIN7mecanim12statemachine17ConditionConstantEEEEEvRT_17TransferMetaFlags
U8l:__ZN30dense_hashtable_const_iteratorINSt3__24pairIK10KeyWrapperIPK19Il2CppGenericMethodEPK26Il2CppGenericMethodIndicesEES6_N6il2cpp8metadata23Il2CppGenericMethodHashEN14dense_hash_mapIS6_SA_SE_NS6_14EqualsComparerINSD_26Il2CppGenericMethodCompareEEENS0_9allocatorISB_EEE9SelectKeyESI_SK_EppEv
YOe:__ZNK16OBBAABBTest_SIMDclERKN5physx2Sq9BucketBoxE
Gmf:_UNITY_FT_Request_Metrics
Wxm:__ZN6il2cpp6icalls8mscorlib6System10Reflection10MonoMethod29get_IsGenericMethodDefinitionEP22Il2CppReflectionMethod
Bsm:__ZN6il2cpp2vm6Thread21AllocThreadStaticDataEi
kZa:__ZL12CopyChannelsj17ShaderChannelMaskRA4_K10StreamInfoRA12_K11ChannelInfoPKhS3_S7_Ph
Wgh:_Default_SelectMethod_m469311730
Kth:_Input_get_mousePosition_m1616496925
lHm:__ZN30dense_hashtable_const_iteratorINSt3__24pairIK10KeyWrapperIPK19Il2CppGenericMethodEP10MethodInfoEES6_N6il2cpp8metadata23Il2CppGenericMethodHashEN14dense_hash_mapIS6_S9_SD_NS6_14EqualsComparerINSC_26Il2CppGenericMethodCompareEEENS0_9allocatorISA_EEE9SelectKeyESH_SJ_EppEv
wik:_UInt32_ToString_m2066897296_AdjustorThunk
cyb:__ZN24GenerateTypeTreeTransfer19TransferSTLStyleMapINSt3__23mapI4PPtrI6ShaderEN4core12basic_stringIcNS6_20StringStorageDefaultIcEEEENS1_4lessIS5_EENS1_9allocatorINS1_4pairIKS5_SA_EEEEEEEEvRT_17TransferMetaFlags
Qaj:_Enumerator_Reset_m4274366540
Ped:__Z18Transfer_BlittableI9JSONWriteLb0E8Vector3fEvRK29SerializationCommandArgumentsR31RuntimeSerializationCommandInfo
og:_emscripten_glUniform4i
kHd:__ZNSt3__227__insertion_sort_incompleteIRN10vector_mapIi22ParticleModulePropertyNS_4lessIiEENS_9allocatorINS_4pairIiS2_EEEEE13value_compareEPS7_EEbT0_SD_T_
Csf:_otv_FeatureList_validate
qxh:_PlayerConnection_RegisterDisconnection_m2618599213
uCd:__ZN22ParticleSystemRenderer5ResetEv
n_d:__ZN16RayRTreeCallbackILi0ELb1EED2Ev
Bf:_emscripten_glUniform4f
pub:__ZN6Object22CheckInstanceIDsLoadedEPii
Yj:___unlock
Dyl:_TlsCipherSuite_ComputeServerRecordMAC_m3941098609
Krf:_otv_validate
uzc:__ZN13sorted_vectorINSt3__24pairIN4core12basic_stringIcNS2_20StringStorageDefaultIcEEEES6_EEN10vector_mapIS6_S6_27compare_tstring_insensitiveIS6_E13stl_allocatorIS7_L18MemLabelIdentifier38ELi16EEE13value_compareESD_E9erase_oneIS6_EEjRKT_
KWh:_U3CDelayedSetDirtyU3Ec__Iterator0_Reset_m160466733
aRi:_X509Certificate_Equals_m3784196370
Mol:_List_1__ctor_m3376067838_gshared
B9:__ZN20SoundChannelInstance19setReverbPropertiesEP29FMOD_REVERB_CHANNELPROPERTIES
_5j:_Enumerator_MoveNext_m1446151600_gshared
QOi:_SHA1Internal_ProcessFinalBlock_m1403775421
mql:_Queue_1_System_Collections_ICollection_CopyTo_m3452613063_gshared
mQf:__ZN9Scripting11UnityEngine5Video11VideoPlayer12CleanupProxyEv
dQc:__Z40Register_UnityEngine_Transform_IsChildOfv
m$d:__ZN5physx3Cct17CapsuleController15setClimbingModeENS_21PxCapsuleClimbingMode4EnumE
ZQe:__ZN5physx6shdfnd9atomicAddEPVii
dri:_InternalEnumerator_1_get_Current_m2356858238_AdjustorThunk
eOc:__Z45Register_UnityEngine_Display_GetSystemExtImplv
pI:__ZN7mecanim14ValueArrayLoopILb1EEEvRKNS_10ValueArrayES3_RKNS_14ValueArrayMaskERS1_f
eUj:_RSAManaged_ImportParameters_m1844641996
HLe:__ZN5physx6shdfnd5ArrayINS_3Scb13MaterialEventENS0_19ReflectionAllocatorIS3_EEE6resizeEjRKS3_
Lti:_Enumerator_System_Collections_IDictionaryEnumerator_get_Value_m3325938730_AdjustorThunk
fI:__ZN7mecanim9animation23TransformValuesFromClipEiiiRKNS_10ValueArrayERKNS0_10ClipOutputERKNS0_12ClipBindingsERS1_RNS_14ValueArrayMaskEb
tFd:__Z19UpdateSingleRow2TplIL27ParticleSystemCurveEvalMode4ELS0_4EEvfRK11MinMaxCurveS3_RK23ParticleSystemParticlesPfbiii
WWe:__ZNK5physx14SingleAABBTask25updateNumFastMovingShapesEv
dJd:__GLOBAL__sub_I_Runtime_Dynamics_0_cpp
BBi:_ValueCollection_System_Collections_ICollection_get_SyncRoot_m1114275063_gshared
Sgj:_Guid_Equals_m1866984197
f4b:__Z11StringToKeyRKN4core12basic_stringIcNS_20StringStorageDefaultIcEEEE
Sbf:__ZN5physx17ConvexMeshBuilder16computeGaussMapsEv
Nfh:_PlatformNotSupportedException__ctor_m1787918017
Iya:__ZN13RuntimeStaticI15DirectorManagerLb0EE16StaticInitializeEPv
vIl:_Uri_HexEscape_m1589417657
Ask:_ReadOnlyCollection_1_System_Collections_ICollection_CopyTo_m2643246984_gshared
Vpb:__ZN11TimeManager6UpdateEv
F5b:__ZN6Shader18LoadDefaultShadersEv
Yce:__ZNK5physx2Sc16ArticulationCore22computeImpulseResponseERNS0_8BodyCoreERNS_6PxVec3ES5_RKNS_9PxcFsDataERKS4_SA_
x_e:__ZN5physx21PxsBodyTransformVaultC2Ev
GYf:_CanvasScaler_get_fallbackScreenDPI_m2811935689
gC:__ZNK16ParentConstraint18GetTranslationAxisEv
Wcj:_DateTimeFormatInfo_ReadOnly_m890935083
rYe:__ZL6IsInYZffPPK10VertexInfo
Mcf:__ZN5physx19TriangleMeshBuilderD0Ev
TTm:_fflush
Lvb:__ZN17LightProbeContext4InitERK16LightmapSettingsRK14RenderSettings
msc:__ZN18DeferredRenderLoop14RenderLightingER21ActiveLightingContextP13RenderTexture9TextureIDPS3_iRK8Vector4fRK14LightingLayersR10MinMaxAABBb12ObjectHandleI17RenderSurface_TagP17RenderSurfaceBaseE
YCh:_SceneManager_Internal_ActiveSceneChanged_m3676176255
SCj:_Double_System_IConvertible_ToInt16_m3591921965
Wjb:__ZN9Texture3DD2Ev
fCd:__Z35ParticleSystemRenderer_RenderMeshesIL21SpriteMaskInteraction2EEvRK15RenderNodeQueuej16VertexInputMasksi
Amk:_Collection_1_set_Item_m4280581817_gshared
Ssj:_Convert_ToChar_m2796006345
P7k:_Array_InternalArray__Insert_TisContentType_t1787303396_m3566390691_gshared
jpe:__ZN5physx2CmlsERNS0_12RenderOutputERKNS0_10DebugArrowE
zX:__ZN14SafeBinaryRead21TransferSTLStyleArrayI22OffsetPtrArrayTransferI9OffsetPtrIN7mecanim12statemachine21SelectorStateConstantEEEEEvRT_17TransferMetaFlags
cud:__Z18MagnitudeUpdateTplIL27ParticleSystemCurveEvalMode2EEvRK11MinMaxCurveR23ParticleSystemParticlesjjRKN4math7_float4E
e8i:_ArrayListWrapper_GetEnumerator_m2336495952
Tuc:__Z34ProcessIndexListIsNodeVisibleStep2RK22SceneCullingParametersPK9SceneNodePK4AABBR9IndexList
C0b:__ZN10MonoScriptD2Ev
jJa:__ZN9Scripting11UnityEngine10Networking16PlayerConnection16PlayerConnection12CleanupProxyEv
jgc:__ZN19ConstantBuffersGLES8UpdateCBE5CbKeyPKvj
vV:__ZN18StreamedBinaryReadILb0EE8TransferINSt3__26vectorIN13AnimationClip12Vector3CurveE13stl_allocatorIS5_L18MemLabelIdentifier26ELi16EEEEEEvRT_PKc17TransferMetaFlags
eTl:_AudioSource_get_spatializeInternal_m2117549793
RQc:__Z39Input_CUSTOM_INTERNAL_get_mousePositionP8Vector3f
RLh:_SerializationCallbacks_GetMethodsByAttribute_m2095490433
ouf:_tt_cmap13_char_next
c_g:__ZL117EventSystem_t1003666588_CustomAttributesCacheGenerator_EventSystem_t1003666588____lastSelectedGameObject_PropertyInfoP21CustomAttributesCache
$ic:__ZN9ShaderLab4Pass16SetupPassOptionsEv
Eh:_JS_Sound_ReleaseInstance
Srm:_il2cpp_type_equals
ugj:_Guid_CheckArray_m921056615
hfg:_ConfigHandler_ReadLifetine_m208994800
dvi:_Enumerator_System_Collections_IDictionaryEnumerator_get_Entry_m3417028588_AdjustorThunk
v5e:__ZN5physx16PxsCCDBlockArrayINS_13PxsCCDOverlapELi128EE8pushBackEv
tum:__ZN6il2cpp6icalls8mscorlib6System7Runtime15InteropServices7Marshal19copy_from_unmanagedEiiP11Il2CppArrayi
Ald:__ZL25CalculateCurveRangesValueRKN4math7_float2ERK17AnimationCurveTplIfE
EAh:_Rect_get_max_m350137314_AdjustorThunk
dn:FUNCTION_TABLE_diddi
Svm:__ZN6il2cpp6icalls8mscorlib6System5Array8FastCopyEP11Il2CppArrayiS5_ii
t9e:__ZN5physx2Gu12TriangleMesh7releaseEv
zNc:__Z42Register_UnityEngine_RectOffset_get_bottomv
uTm:_newlocale
$Ne:__ZN5physx14PxsAABBManagerD2Ev
fQb:__ZN9BoundsInt8TransferI14SafeBinaryReadEEvRT_
eoc:__Z20DoDeferredRenderLoopRK17RenderLoopContextR13dynamic_arrayI16RenderObjectDataLj0EES5_RK11CullResultsRP13RenderTextureSB_Pb
$0m:_emscripten_glUniform1f__wrapper
FXm:dynCall_di
jrh:_BaseInvokableCall_AllowInvoke_m878393606
LNe:__ZN5physx16PxsIslandManagerD2Ev
AUk:__Z77RuntimeInvoker_Quaternion_t2301928331_Vector3_t3722313464_Vector3_t3722313464PFvvEPK10MethodInfoPvPS4_
xed:__Z28RegisterModule_JSONSerializev
XIf:__ZThn1168_N18UnityConnectClientD1Ev
oTe:__ZN5physx21solveFriction_BStaticERKNS_23PxcSolverConstraintDescERNS_16PxcSolverContextE
yyb:__ZN2UI13RectTransform8TransferI14SafeBinaryReadEEvRT_
Ifd:__Z35Transfer_Blittable_FixedBufferFieldI9JSONWriteaEvRK29SerializationCommandArgumentsR31RuntimeSerializationCommandInfo
QAd:__ZN34ColorBySpeedModulePropertyBindings13GetFloatValueERK14ParticleSystemi
znh:_Behaviour_get_enabled_m753527255
EOc:__Z20IsHumanControllingUsv
kem:_RemoteConfigSettings_Destroy_m1828341477
AT:__ZN7mecanim5human9HumanGoal8TransferI14SafeBinaryReadEEvRT_
hqg:__ZL51TextInfo_t3810425522_CustomAttributesCacheGeneratorP21CustomAttributesCache
KLc:__ZN10systeminfo21GetPersistentDataPathEv
WIf:__ZThn1168_N18UnityConnectClient18OnAdsIdRequestDoneERKN4core12basic_stringIcNS0_20StringStorageDefaultIcEEEEbS6_
c8b:__ZN13GfxDeviceGLES17DestroyGpuProgramEPK10GpuProgram
O8k:_Array_InternalArray__set_Item_TisRaycastResult_t3360306849_m730888808_gshared
AMb:__Z44InitializeTransferFunctionScriptingTraitsForI18StreamedBinaryReadILb0EEEvR31TransferFunctionScriptingTraits
yqc:__ZNSt3__218__insertion_sort_3IR23CompareReflectionProbesP31RuntimeReflectionProbeBlendInfoEEvT0_S5_T_
iSb:__ZN12NativeBufferI27Converter_SimpleNativeClassI8GradientEE15SetupForWritingER9ArrayInfo
DQj:_Kernel_RightShift_m2207393597
DBa:__ZNSt3__213__stable_sortIRNS_4lessIN4core12basic_stringIcNS2_20StringStorageDefaultIcEEEEEENS_11__wrap_iterIPS6_EEEEvT0_SC_T_NS_15iterator_traitsISC_E15difference_typeEPNSF_10value_typeEi
U5g:__ZL48Shadow_t773074319_CustomAttributesCacheGeneratorP21CustomAttributesCache
Hna:__ZN12_GLOBAL__N_113StaticDestroyEPv
hbd:__ZNK8GUIStyle4DrawER8GUIStateRK5RectTIfER10GUIContentbbbb
H3m:_glTexParameteriv__wrapper
r$i:_SmallXmlParser_Read_m3485223434
b6m:_glUnmapBuffer__wrapper
gKl:_GUISkin_MakeCurrent_m3239192349
pjd:__ZN8JSONRead21TransferSTLStyleArrayINSt3__26vectorI8Gradient13stl_allocatorIS3_L18MemLabelIdentifier1ELi16EEEEEEvRT_17TransferMetaFlags
Wrb:__ZNSt3__218__insertion_sort_3IRNS_6__lessINS_4pairIPKN5Unity4TypeE7Hash128EES8_EEPS8_EEvT0_SC_T_
VSh:_InputField_set_onValueChanged_m3658917578
lGd:__Z9UpdateTplIL22MinMaxGradientEvalMode0EL12GradientMode0ELS1_1EEvRK23ParticleSystemParticlesP11ColorRGBA32RK14MinMaxGradientRK23OptimizedMinMaxGradientRK8Vector2f
STb:__ZN10RectOffset8TransferI24GenerateTypeTreeTransferEEvRT_
$kj:_BinaryReader__ctor_m2266204403
YKa:__ZN9Scripting11UnityEngine6Events14UnityEventBase9InitProxyEv
H4j:_Enumerator_VerifyState_m3047769867_AdjustorThunk
cTb:__Z18Transfer_BlittableI24GenerateTypeTreeTransferLb1E5RectTIiEEvRK29SerializationCommandArgumentsR31RuntimeSerializationCommandInfo
yTa:__ZNSt3__24listI4PPtrI6CameraENS_9allocatorIS3_EEE6removeERKS3_
qBf:__ZN2UI13CanvasManager19RemoveDirtyRendererEPNS_6CanvasEPNS_14CanvasRendererE
Aoe:__ZN5physx7NpShape18setQueryFilterDataERKNS_12PxFilterDataE
wSm:_isspace
FJh:_BinaryFormatter__ctor_m2620705134
Gqd:__ZN14MinMaxGradient5ResetE26ParticleSystemGradientMode
fje:__ZN5physx2Sc8ShapeSim18onRestOffsetChangeEv
H_:__Z13RegisterClassI13AnimationClipEvPKc
i0e:__ZN5physx20PxcNpCacheStreamPair5resetEv
ySc:__ZZL31RegisterRectTransformPropertiesR22GenericPropertyBindingEN39Wrapper_RectTransformAnchoredPositiony113SetFloatValueEPvf
Tka:__ZN11UnityEngine15CloudWebService17WebFileDownloaderINS0_20WebRequestRestClientENS0_23WebRequestRestHeaderMapEED2Ev
HT:__ZNSt3__26vectorIN13AnimationClip9PPtrCurveE13stl_allocatorIS2_L18MemLabelIdentifier26ELi16EEE7reserveEj
q$i:_SmallXmlParser_HandleWhitespaces_m549588711
vld:__ZN14ParticleSystem17RemoveFromManagerEv
Jrd:__ZNK14RotationModule16UpdateProceduralERK19ParticleSystemStateR23ParticleSystemParticlesRKN4math7_float4E
ec:invoke_vd
Bb:invoke_vf
KDl:_Regex_get_RightToLeft_m2317867572
uva:__ZNK10GameObject8IsActiveEv
E8c:__Z34Component_Get_Custom_PropTransformP12Il2CppObject
sqd:__ZN21InheritVelocityModule5ResetEv
vph:_Color32_ToString_m403383053
rdc:__ZN18GfxFramebufferGLES23SetupDefaultFramebufferEPP17RenderSurfaceBaseS2_N2gl6HandleILNS3_10ObjectTypeE9EEE
A8d:__ZN5physx2Sq16computeWorldAABBERKNS_3Scb5ShapeERKNS1_5ActorE
x$f:_DefaultControls_CreateDropdown_m3286664171
Qjb:__ZN13ScreenManager18RequestOrientationE17ScreenOrientation
h6l:__ZN6il2cpp2vm5Class12SetupMethodsEP11Il2CppClass
EWe:__ZN5physx14PxsAABBManager31updateAggregateBPOverlapRecordsEv
Q3c:__Z39DeleteLastPathNameComponentWithAnySlashRKN4core12basic_stringIcNS_20StringStorageDefaultIcEEEE
wcd:__ZN10GUIManager14InitGUIManagerEv
Qd:_JS_Sound_SetListenerOrientation
lhk:_UInt16_Equals_m642257745
x1i:_Array_System_Collections_IList_IndexOf_m3301661616
xgh:_AssemblyFileVersionAttribute__ctor_m3720707642
ucg:_RuntimeResourceSet_CloneDisposableObjectIfPossible_m2725520898
JOc:__Z18GetApplicationInfov
CAf:__GLOBAL__sub_I_artifacts_WebGL_codegenerator_0_cpp_6512
Sbd:__Z37Register_UnityEngine_GUIStyle_Cleanupv
Ua:invoke_iiifii
s7c:__Z26Mesh_CUSTOM_SetIndicesImplP12Il2CppObjecti16GfxPrimitiveTypeP11Il2CppArrayihi
L1h:_SliderEvent__ctor_m3149452941
B_i:_DeriveBytes__cctor_m1212925033
Sfk:_Type_IsAssignableFrom_m3195021585
g2f:_Graphic_OnDisable_m1097930217
vgm:__ZN6il2cpp6icalls8mscorlib6System8MonoType13IsPointerImplEP20Il2CppReflectionType
UUd:__ZN9Rigidbody16AddNonConvexMeshER8ListNodeI12MeshColliderE
pj:_emscripten_glFramebufferRenderbuffer
utc:__ZN19CullingGroupManager17CullAndSendEventsERK22SceneCullingParametersiRK13CullingOutputRK8JobFence
Qzf:__ZNK19TextRenderingModule8TMGenGetERK11UTF16StringPN13TextRendering4FontE10TextAnchorN5Unity13TextAlignmentEfffbb11ColorRGBA32fiii
r_j:_DefaultComparer_GetHashCode_m142252408_gshared
f1k:__Z103RuntimeInvoker_Int32_t2950945753_RuntimeObject_UIVertex_t4057497605_Int32_t2950945753_Int32_t2950945753PFvvEPK10MethodInfoPvPS4_
XRa:__ZN9Transform30EnsureTransformHierarchyExistsEv
gfk:_Type_FilterName_impl_m2651733559
pLe:__ZN5physx2Sc14ConstraintCore15getPxConstraintEv
mMd:__ZNK8Collider12GetRigidbodyEv
Ro:FUNCTION_TABLE_viiiiiiii
TOc:__Z46Register_UnityEngine_Application_get_isPlayingv
bh:___cxa_find_matching_catch_4
a5c:__ZN13MonoBehaviour13StopCoroutineEPKc
gzc:__ZNSt3__26vectorINS_4pairIN4core12basic_stringIcNS2_20StringStorageDefaultIcEEEEPK17MessageIdentifierEENS_9allocatorISA_EEE12__move_rangeEPSA_SE_SE_
HCd:__ZThn32_N22ParticleSystemRendererD1Ev
mmc:__ZN14qsort_internal17MedianOfThreeSwapIP17RODataReplacement19ROSorterReplacementEEvT_S4_S4_T0_
cVi:_String_Split_m3646115398
Aqd:__ZN15CollisionModule5ResetEv
uBh:_RectOffset_ToString_m2007443979
Z4l:__ZNK15dense_hashtableINSt3__24pairIK10KeyWrapperIPK22Il2CppGenericParameterEP11Il2CppClassEES6_N6il2cpp5utils11PointerHashIS4_EEN14dense_hash_mapIS6_S9_SE_NS6_14EqualsComparerINS0_8equal_toIS5_EEEENS0_9allocatorISA_EEE9SelectKeyESJ_SL_E3endEv
eUb:__Z29Transfer_Blittable_ArrayFieldI24GenerateTypeTreeTransfer11ColorRGBA32EvRT_R9ArrayInfoRK23StaticTransferFieldInfo
hCb:__ZN17ArchiveFileSystem10ToAbsoluteEPKc
m_c:__Z13RegisterClassI11PreloadDataEvPKc
a7c:__Z35Camera_CUSTOM_RaycastTry2D_InjectedP12Il2CppObjectRK3Rayfi
YKf:__ZN19UnityConnectService15GetPlayerUserIdEv
EKj:_Array_InternalArray__IndexOf_TisSByte_t1669577662_m4156538463_gshared
kN:__ZN7mecanim6CRCKeyENS_7eStringE
ENc:__ZL12SetPrefValueRKN4core12basic_stringIcNS_20StringStorageDefaultIcEEEERK9PrefValue
zkb:__ZN19ShaderPropertySheet20ReservePropertyCountEj
JHm:__ZN6il2cpp5utils11StringUtils6PrintfEPKcz
Mtm:__ZNSt3__26vectorIN6il2cpp8metadata18GenericArrayMethodENS_9allocatorIS3_EEE7reserveEj
M8a:__ZN15NameToObjectMapI6ShaderNSt3__23mapI4PPtrIS0_EN4core12basic_stringIcNS5_20StringStorageDefaultIcEEEENS1_4lessIS4_EENS1_9allocatorINS1_4pairIKS4_S9_EEEEEENS1_8multimapIS9_S4_NSA_IS9_EENSC_INSD_IKS9_S4_EEEEEEE4FindERSK_
Jab:__ZN24GenerateTypeTreeTransfer21TransferResourceImageE19ActiveResourceImagePKcR13StreamingInfoPvjiPKN5Unity4TypeE
Zal:_Array_Sort_TisVector3_t3722313464_m1030213405_gshared
Frd:__ZN13InitialModule18GenerateProceduralERK27ParticleSystemReadOnlyStateR23ParticleSystemParticlesRK10Matrix4x4fRK8Vector3fRK24ParticleSystemEmitReplayRj
xBm:__ZN6il2cpp2vm6Object5CloneEP12Il2CppObject
Hpd:__ZN11ColorModule8TransferI19StreamedBinaryWriteILb0EEEEvRT_
tgf:__ZN5physx6shdfnd8PoolBaseINS_24NpPtrTableStorageManager8PtrBlockILi16EEENS0_19ReflectionAllocatorIS4_EEED2Ev
PPm:__ZN6il2cpp6icalls8mscorlib6System9Threading5Mutex20CreateMutex_internalEbP12Il2CppStringPb
_Mg:__ZL47Time_t2420636075_CustomAttributesCacheGeneratorP21CustomAttributesCache
c6l:__ZN6il2cpp2vm5Class12GetFinalizerEP11Il2CppClass
Mph:_Coroutine_Finalize_m1957108547
yMl:_KeyBuilder_Key_m2503211157
B$a:__ZNSt3__212__deque_baseI18ReflectionProbeJobNS_9allocatorIS1_EEED2Ev
FM:__ZN11UnityEngine9Animation27DestroyAnimationSetBindingsEPNS0_20AnimationSetBindingsERN7mecanim6memory9AllocatorE
_Dc:__ZN15dense_hashtableINSt3__24pairIKiN4core17string_with_labelILi1EEEEEi18SInt32HashFunctionN14dense_hash_mapIiS5_S7_NS0_8equal_toIiEE13stl_allocatorIS6_L18MemLabelIdentifier1ELi16EEE9SelectKeyESA_SD_E13set_empty_keyERKS6_
Xie:__ZN5physx2Sc9ShapeCore23setSimulationFilterDataERKNS_12PxFilterDataE
Cph:_Component_GetComponentInChildren_m388868270
s2j:_GenericEqualityComparer_1_Equals_m1705889345_gshared
c$:__ZN8Animator12CleanupClassEv
Yq:__ZN19NavMeshBuildManagerD0Ev
P4i:_Byte_System_IConvertible_ToBoolean_m2888023769
CAm:__GLOBAL__sub_I_GenericMetadata_cpp
Uhf:__ZN5physx7profile12MemoryBufferINS0_21WrapperNamedAllocatorEE5writeIyEEvRKT_
E4h:_NameObjectCollectionBase_GetEnumerator_m3677320185
ruc:__Z24CalculateSpotLightBoundsffRK10Matrix4x4fR15SpotLightBounds
JUl:_SampleFramesHandler_BeginInvoke_m2992664336
u4a:__ZNK13RenderTexture21GetShadowSamplingModeEv
Aga:__ZN23CloudWebServicesManager23VirtualRedirectTransferER14SafeBinaryRead
z_i:_PKCS12_AddCertificate_m3857004455
Lud:__ZNK11NoiseModule14CalculateNoiseILi3ELb1ELb0EEEvR23ParticleSystemParticlesRK27ParticleSystemReadOnlyStatejjRKN4math7_float4E
nKh:_WellKnownClientTypeEntry_ToString_m1119458503
R1b:__Z19ShouldTransferFieldR32SerializationCommandQueueBuilder17ScriptingClassPtriR18TransferField_InfoRK20CoreScriptingClasses
Dx:__Z16CarveNavMeshTilePPhPiPKhiPK17NavMeshCarveShapeifffRK8Vector3fRK11Quaternionf
z6c:__Z48Register_UnityEngine_MonoBehaviour_InvokeDelayedv
tSi:_SecurityElement_IsValidText_m1346599242
NLb:__ZN26SinglePassStereoSupportExt21SetStereoMatrixCommonE21MonoOrStereoscopicEye24BuiltinShaderMatrixParamRK10Matrix4x4f
Z6:__ZN5audio5mixer22UpdateAudioMixerMemoryERKNS0_18AudioMixerConstantERNS0_16AudioMixerMemoryEfPN4FMOD6SystemEf
Fjf:__ZL21InitializeCachedStripPv
$Vj:_Dictionary_2_System_Collections_Generic_ICollectionU3CSystem_Collections_Generic_KeyValuePairU3CTKeyU2CTValueU3EU3E_Add_m3652125112_gshared
ayc:__ZN19CustomRenderTexture16GetRenderTextureEv
gvm:__ZN6il2cpp6icalls8mscorlib6System9Threading6Thread23GetCachedCurrentCultureEP12Il2CppThread
dqd:__ZN25IParticleSystemProperties8PropertyI8Vector3fNS_3MinILi0EEEE8TransferI19StreamedBinaryWriteILb0EEEEvRT_PKc
GSa:__ZNK6Camera22GetWorldToCameraMatrixEv
$Cm:__ZN6il2cpp2vm12GenericClass11IsValueTypeEP18Il2CppGenericClass
eCc:__ZN13ScreenManager24SetIsFullscreenImmediateEb
b1b:__ZN13MonoBehaviour7SetNameEPKc
Vig:_MethodDictionary_IsOverridenKey_m946843558
kOe:__ZN5physx6shdfnd8PoolBaseINS_2Sc26ActorPairContactReportDataENS0_19ReflectionAllocatorIS3_EEE15disposeElementsEv
lFk:_U3CStartU3Ec__Iterator0_MoveNext_m4270440387_gshared
qei:_Action_1_BeginInvoke_m1817882028_gshared
oam:__ZN10KeyWrapperIN6il2cpp5utils13dynamic_arrayIPK10Il2CppTypeLj4EEEEC2ERKS7_
b6b:__ZN17InstancingBatcher22FindCBUpperBoundKonstsEv
HGf:__ZN11UnityEngine9Analytics15AnalyticsConfig13ConfigChangedERKN4core12basic_stringIcNS2_20StringStorageDefaultIcEEEER8JSONRead
Lub:__ZN18AwakeFromLoadQueue5ClearEv
Jnj:_FileStream_SetLength_m99749826
j7e:__ZN5physx6shdfnd5ArrayIfNS0_19ReflectionAllocatorIfEEE8recreateEj
Nsc:__ZNSt3__27__sort5IR15ReflProbeSorterPP15ReflectionProbeEEjT0_S6_S6_S6_S6_T_
xza:__ZN8Playable10DisconnectEPS_i
cvj:_Convert_ToInt16_m4174439391
Xk:_glGenTransformFeedbacks
Xtb:__ZN13LoadOperationD2Ev
SSe:__ZN5physx20PxsSolverCoreGeneral6createEv
aCd:__ZN29TriggerModulePropertyBindings13AddPropertiesER10vector_mapIi22ParticleModulePropertyNSt3__24lessIiEENS2_9allocatorINS2_4pairIiS1_EEEEE
X$i:_AttrListImpl_GetValue_m3657391095
z4d:__ZL29GeomOverlapCallback_SphereBoxRKN5physx10PxGeometryERKNS_11PxTransformES2_S5_PNS_2Gu12TriggerCacheE
rpl:_List_1_CheckIndex_m3933537097_gshared
pXi:_ASCIIEncoding_GetBytes_m2264249800
E8a:__ZNSt3__27__sort5IRPFbRKNS_4pairIN9ShaderLab16FastPropertyNameEN18UnityPropertySheet11UnityTexEnvEEES8_EPS6_EEjT0_SD_SD_SD_SD_T_
vbc:__ZNK7ApiGLES18GetExtensionStringEv
Tol:_List_1_System_Collections_IList_IndexOf_m2444653486_gshared
a1m:_emscripten_glVertexAttrib1f__wrapper
dAb:__ZNK12HandlerChain4SizeERK13FileEntryData
Xp:FUNCTION_TABLE_iiiiiiiii
sId:__ZN11UnityEngine9Analytics18RenderingInfoEvent13SetFrameStatsERK13dynamic_arrayIjLj0EEjjj
Gqe:__ZN5physx7NpCloth15setInertiaScaleEf
atk:_ReadOnlyCollection_1_System_Collections_Generic_ICollectionU3CTU3E_Remove_m4177779688_gshared
iMa:__ZN9Scripting11UnityEngine14AnimationCurve9InitProxyEv
u6i:_Char_IsLetter_m3996985877
hql:_Queue_1_Peek_m2302800625_gshared
saf:__ZN5physx6shdfnd4sortIPvNS0_4LessIS2_EENS0_19ReflectionAllocatorIN17PxcPoolMallocData10PoolData16EEEEEvPT_jRKT0_RKT1_j
BOd:__Z19sweepBox_SphereGeomRKN5physx10PxGeometryERKNS_11PxTransformERKNS_2Gu3BoxERKNS_6PxVec3EfRNS_10PxSweepHitENS_7PxFlagsINS_9PxHitFlag4EnumEtEEf
LKm:_GC_allochblk
lAe:__ZN5physx14NpRigidDynamic17setAngularDampingEf
oNj:_Array_InternalArray__ICollection_CopyTo_TisKeyframe_t4206410242_m2132255743_gshared
Y5m:_glCheckFramebufferStatus__wrapper
n8e:__ZNK5physx13GuMeshFactory15getHeightFieldsEPPNS_13PxHeightFieldEjj
Gsb:__ZNSt3__26vectorIN30RuntimeInitializeOnLoadManager15ClassMethodInfoE13stl_allocatorIS2_L18MemLabelIdentifier13ELi16EEE7reserveEj
lVj:_Dictionary_2_System_Collections_ICollection_CopyTo_m3143696177_gshared
Tw:__ZN22NavMeshProjectSettings8TransferI24GenerateTypeTreeTransferEEvRT_
$Md:__ZN15CapsuleCollider9SetRadiusEf
_Jk:__Z103RuntimeInvoker_Void_t1185182177_Int32_t2950945753_Int32_t2950945753_Int32_t2950945753_SByte_t1669577662PFvvEPK10MethodInfoPvPS4_
zDe:__ZN5physx2Cm20visualizeJointFramesERNS0_12RenderOutputEfRKNS_11PxTransformES5_
$Xe:__ZN5physx22PxcContactPlaneCapsuleERKNS_2Gu13GeometryUnionES3_RKNS_11PxTransformES6_RKfRNS_10PxcNpCacheERNS0_13ContactBufferE
V8c:__Z36Renderer_Get_Custom_PropSortingOrderP12Il2CppObject
mjm:__ZNK15dense_hashtableINSt3__24pairIK10KeyWrapperIPK10Il2CppTypeEjEES6_N6il2cpp8metadata14Il2CppTypeHashEN14dense_hash_mapIS6_jSB_NS6_14EqualsComparerINSA_26Il2CppTypeEqualityComparerEEENS0_9allocatorIS8_EEE9SelectKeyESF_SH_E13find_positionERS7_
k4a:__ZN7Texture5ResetEv
gVc:__ZN26SkinnedMeshRendererManagerD2Ev
xPh:_DESTransform_BSwap_m2723001589
ESb:__Z18Transfer_BlittableI24GenerateTypeTreeTransferLb0E8Vector2fEvRK29SerializationCommandArgumentsR31RuntimeSerializationCommandInfo
bgg:_Context_get_HasDynamicSinks_m3952434387
RCc:__ZN18StreamedBinaryReadILb0EE21TransferSTLStyleArrayI13dynamic_arrayIN4math14float3_storageELj0EEEEvRT_17TransferMetaFlags
T8j:_Latin1Encoding_GetByteCount_m1145650505
tSb:__Z18Transfer_BlittableI24GenerateTypeTreeTransferLb1EhEvRK29SerializationCommandArgumentsR31RuntimeSerializationCommandInfo
ukh:_GenericTypeParameterBuilder_GetPropertyImpl_m2584778600
uZb:__Z13TransferFieldI18StreamedBinaryReadILb1EELb0E16Converter_StringEvRK23StaticTransferFieldInfoR31RuntimeSerializationCommandInfoRT1_
i$d:__ZN5physx3Cct17CapsuleController9setRadiusEf
l5c:__ZNK16TypeTreeIterator10ByteOffsetEv
rvm:__ZN6il2cpp6icalls8mscorlib6System2IO6MonoIO5CloseEiPi
aYm:dynCall_iiifii
hya:__ZnwjRKSt9nothrow_t
xQ:__ZN8Animator11ClearObjectEv
zNd:__ZN9Rigidbody17MainThreadCleanupEv
T0i:_ApplicationException__ctor_m2557611022
l7a:__ZN14SafeBinaryRead19TransferSTLStyleMapINSt3__23mapI39DeprecatedFastPropertyNameSerializationN18UnityPropertySheet11UnityTexEnvENS1_4lessIS3_EENS1_9allocatorINS1_4pairIKS3_S5_EEEEEEEEvRT_17TransferMetaFlags
B6c:__Z45Register_UnityEngine_MonoBehaviour_IsInvokingv
yml:_List_1_CheckMatch_m579516778_gshared
xVb:__ZL26Transfer_SimpleNativeClassI19StreamedBinaryWriteILb0EE17AnimationCurveTplIfELb0EEvRK29SerializationCommandArgumentsR31RuntimeSerializationCommandInfo
l5b:__Z43GiveManagedDebuggerChanceToAttachIfRequiredv
L4i:_Buffer_ByteLengthInternal_m1388208719
xne:__ZN5physx9NpPhysics26unregisterDeletionListenerERNS_18PxDeletionListenerE
h5c:__Z35UnregisterSerializationCacheBuilderPFv17ScriptingClassPtrR23CachedSerializationDataRbE
XLm:_GC_reclaim_uninit
$sa:__ZNSt3__26__treeINS_12__value_typeIPKc18ScriptingMethodPtrEENS_19__map_value_compareIS3_S5_14CStringCompareLb1EEE13stl_allocatorIS5_L18MemLabelIdentifier1ELi16EEE25__emplace_unique_key_argsIS3_JRKNS_21piecewise_construct_tENS_5tupleIJOS3_EEENSH_IJEEEEEENS_4pairINS_15__tree_iteratorIS5_PNS_11__tree_nodeIS5_PvEEiEEbEERKT_DpOT0_
Vjj:_Int64_System_IConvertible_ToUInt32_m109903525_AdjustorThunk
Plh:_MethodToken_Equals_m460628456_AdjustorThunk
jWa:__Z30GetBuiltinVectorParamArraySize24BuiltinShaderVectorParam
nog:__ZL67DecimalConstantAttribute_t1976047975_CustomAttributesCacheGeneratorP21CustomAttributesCache
eGa:__ZL46__ManagedRegistrationHelperFunction_SpriteBonePv
zRc:__Z13RegisterClassI11LightProbesEvPKc
d4a:__ZN13RenderTextureC2E10MemLabelId18ObjectCreationMode
_hj:_Int32_GetFormatException_m519586683
yyg:__ZL46StringBuilder_t_CustomAttributesCacheGeneratorP21CustomAttributesCache
B6h:_IPAddress_Equals_m1823478787
k8c:__Z60Register_UnityEngine_ScriptableObject_CreateScriptableObjectv
Udl:_Array_InternalArray__get_Item_TisVector2_t2156229523_m2502961026_gshared
Lfb:__ZN21RendererUpdateManager11AddRendererER8Renderer
$fe:__ZNK5physx18NpArticulationLink15getArticulationEv
jNb:__Z35Transfer_Blittable_FixedBufferFieldI14SafeBinaryReadsEvRK29SerializationCommandArgumentsR31RuntimeSerializationCommandInfo
Xsj:_Convert_ToDateTime_m3802186295
KHm:__ZN6il2cpp5utils11StringUtils11Utf16ToUtf8EPKDs
Utb:__ZN18StreamedBinaryReadILb0EE21TransferSTLStyleArrayINSt3__26vectorIN15ResourceManager10DependencyE13stl_allocatorIS5_L18MemLabelIdentifier52ELi16EEEEEEvRT_17TransferMetaFlags
ejk:_UInt64_CompareTo_m1614517204_AdjustorThunk
$ka:__ZN11UnityEngine15CloudWebService26CloudServiceEventWithParamC2EPKcNS0_15CloudEventFlagsE
Nic:__ZZ23InitPlayerLoopCallbacksvEN52PreLateUpdateScriptRunBehaviourLateUpdateRegistrator7ForwardEv
Uuc:__Z33IntersectAABBPlaneBoundsOptimizedRK4AABBPKN4math7_float4Ei
Rej:_DateTimeFormatInfo_FillAllDateTimePatterns_m2683124783
qGb:__ZN9GfxDevice19EndGeometryJobFrameEv
tKl:_GUILayoutUtility_Layout_m1159951704
YRh:_InputField_get_shouldActivateOnSelect_m3055465770
nSb:__ZN27Converter_SimpleNativeClassI17AnimationCurveTplIfEE17ScriptingToNativeER18ScriptingObjectPtrPS1_
ffk:_Type__cctor_m2371893800
Cge:__ZN5physx2Sc15CoreInteraction17isCoreInteractionEPNS0_11InteractionE
AQm:__ZN6il2cpp8metadata24Il2CppGenericInstCompare7CompareERK10KeyWrapperIPK17Il2CppGenericInstES8_
Nhf:__ZThn132_N5physx7profile8ZoneImplINS_28PxProfileNameProviderForwardEED0Ev
FVd:__ZN5physx3Cct13BoxController17setHalfSideExtentEf
R8l:__ZNK15dense_hashtableINSt3__24pairIK10KeyWrapperIPK19Il2CppGenericMethodEPK26Il2CppGenericMethodIndicesEES6_N6il2cpp8metadata23Il2CppGenericMethodHashEN14dense_hash_mapIS6_SA_SE_NS6_14EqualsComparerINSD_26Il2CppGenericMethodCompareEEENS0_9allocatorISB_EEE9SelectKeyESI_SK_E5beginEv
STf:_ExecuteEvents_Execute_m3049310229
oG:__ZN27AnimationLayerMixerPlayable21UpdateLayerParametersEv
jNg:__ZL84Object_t631007953_CustomAttributesCacheGenerator_Object_DestroyImmediate_m2288369078P21CustomAttributesCache
vJa:__ZN9Scripting11UnityEngine12LightmapData12CleanupProxyEv
_I:__ZN7mecanim9animation16CopyMotionOutputEPKNS0_18AnimationNodeStateEPS1_bbRKNS_6bitsetILj83EEE
hmd:__ZN21InheritVelocityModule8TransferI14SafeBinaryReadEEvRT_
jQc:__ZNK17AnimationCurveTplIfE8EvaluateEfPNS0_5CacheE
Shc:__Z31ManagerContextInitializeClassesv
jtk:_ReadOnlyCollection_1_System_Collections_IList_Contains_m2650112051_gshared
TEj:_Array_get_swapper_TisVector3_t3722313464_m1221246401_gshared
inf:_UNITY_FT_List_Finalize
xCc:__ZThn32_N12LineRendererD1Ev
ync:__Z20LightAttenuateApproxRKfS0_
Asa:__ZN9Scripting30SetCachedPtrOnScriptingWrapperE18ScriptingObjectPtrP6Object
gwh:_Mesh_GetIndices_m2873123901
II:__ZN17AnimationPlayable17SetInternalWeightEf
jMh:_ObjectRecord_ChainFixup_m1889316362
jZ:__ZN7mecanim9animation21BlendTreeNodeConstant8TransferI19StreamedBinaryWriteILb0EEEEvRT_
X1a:__ZN18BlockRangeInternal16PopLastNodeIndexEP10BlockRangeji
zJm:__ZN6il2cpp2vm13CachedCCWBaseINS0_13ManagedObjectEE6AddRefEv
dXf:_TouchInputModule_UpdateModule_m2582897964
Xlb:__ZN4MeshD0Ev
wQf:__ZL42RequestRecreateEyeTexturesBeforeNextUpdatev
IR:__ZNK26AnimatorOverrideController13GetBehavioursEv
pVa:__ZNK6Camera20IsCurrentlyRenderingEv
eI:__ZN21AnimationClipPlayable23ProcessRootMotionNoClipEPK35AnimationPlayableEvaluationConstantPK32AnimationPlayableEvaluationInputP33AnimationPlayableEvaluationOutput
QDf:__Z36CanvasRenderer_CUSTOM_SetPopMaterialP12Il2CppObjectS0_i
Pfd:__Z18Transfer_BlittableI9JSONWriteLb0EdEvRK29SerializationCommandArgumentsR31RuntimeSerializationCommandInfo
tsf:_otv_u_O_O_u_O_O
PTa:__ZN6Camera8TransferI19StreamedBinaryWriteILb0EEEEvRT_
eAj:_DBNull_System_IConvertible_ToSByte_m3533624679
DZa:__ZThn252_N31CanvasBatchIntermediateRenderer14OnAssetDeletedEv
RSm:_wctomb
k6i:_Char_CompareTo_m42489266
thi:_InternalEnumerator_1_System_Collections_IEnumerator_get_Current_m3575233890_AdjustorThunk
P2k:__Z67RuntimeInvoker_Void_t1185182177_Int32_t2950945753_Double_t594665363PFvvEPK10MethodInfoPvPS4_
Tdk:_TimeSpan__ctor_m3689759052
YNc:__Z27Camera_CUSTOM_GetAllCamerasP11Il2CppArray
$od:__ZN11ForceModule8TransferI18StreamedBinaryReadILb0EEEEvRT_
td:___cxa_rethrow
h9e:__ZN5physx20InternalTriangleMesh17allocateFaceRemapEv
Lag:_ParameterInfo_GetCustomAttributes_m2376494592
thd:__Z18Transfer_BlittableI8JSONReadLb1EhEvRK29SerializationCommandArgumentsR31RuntimeSerializationCommandInfo
_1f:_Graphic_get_canvasRenderer_m315509948
Zul:_Collection_1_System_Collections_IList_Contains_m3397768605_gshared
fej:_CultureInfo_construct_internal_locale_from_name_m3254739477
QMi:_RSASslSignatureDeformatter_VerifySignature_m1061897602
wxc:__ZN13MonoBehaviour8SetClassE17ScriptingClassPtr18ScriptingObjectPtr
PGe:__ZNK5physx7NpScene26getBounceThresholdVelocityEv
nNe:__ZN5physx6shdfnd8PoolBaseINS_2Sc12SimStateDataENS0_19ReflectionAllocatorIS3_EEE15disposeElementsEv
o7k:_Array_InternalArray__Insert_TisLabelFixup_t858502054_m171542753_gshared
xqi:_InternalEnumerator_1_System_Collections_IEnumerator_get_Current_m3539708496_AdjustorThunk
LAb:__ZN20LocalFileSystemPosix4ReadER13FileEntryDatayyPvPy
nrc:__ZNSt3__211__sift_downIRN23ForwardShaderRenderLoop18RenderObjectSorterILb0EEEP21ForwardRenderPassDataEEvT0_S7_T_NS_15iterator_traitsIS7_E15difference_typeES7_
dRi:_SecurityPermission__ctor_m1462427327
OZm:dynCall_iiiiiiffiiiiiiiiiffffiiii
r1b:__ZN13MonoBehaviour5DoGUIENS_13GUILayoutTypeEii
jeg:_ChannelData_get_ClientProviders_m594662942
g$:__ZZN8Animator15InitializeClassEvEN43FunctorImpl_438kDidModifyAnimatorController4CallEPviR11MessageData
$El:_QuickSearch_GetChar_m1297698557
zPa:__ZNK12TLSAllocatorI14StackAllocatorE8ContainsEPKv
Ypb:__ZN11TimeManager8TransferI18StreamedBinaryReadILb0EEEEvRT_
_8e:__ZNK5physx13GuMeshFactory19getNbTriangleMeshesEv
mnc:__ZL8AddLightRK12ActiveLightsRK8Vector3fiR13dynamic_arrayI11CulledLightLj0EE
itj:_DateTime__ParseEnum_m253019513
Ywj:_Convert_ToUInt32_m2194577773
imb:__ZN14BlendShapeData8TransferI14SafeBinaryReadEEvRT_
jPd:__ZN5physx2Gu15getPolygonIndexERKNS0_13PolygonalDataEPNS0_12SupportLocalERKNS_6shdfnd3aos5Vec3VE
zce:__ZN5physx14NpArticulation24setSolverIterationCountsEjj
hbj:_Hashtable_Remove_m4032631466
xSj:_DSAManaged_GenerateKeyPair_m2236915969
i2e:__ZN5physx36normalizePartitionsWithArticulationsERNS_6shdfnd5ArrayIjNS0_19ReflectionAllocatorIjEEEEPNS_23PxcSolverConstraintDescEPKNS_13PxcSolverBodyEjjS5_Pjj
sab:__ZN7Texture25ReloadFromStorageIfNeededEPvb
$Jj:_Array_InternalArray__IndexOf_TisBoolean_t97287965_m1161209222_gshared
t8l:__ZNK15dense_hashtableINSt3__24pairIK10KeyWrapperIP9FieldInfoEiEES5_N6il2cpp5utils11PointerHashIS3_EEN14dense_hash_mapIS5_iSB_NS5_14EqualsComparerINS0_8equal_toIS4_EEEENS0_9allocatorIS7_EEE9SelectKeyESG_SI_E3endEv
Kfe:__ZN5physx18NpArticulationLink17setLinearVelocityERKNS_6PxVec3Eb
f9c:__GLOBAL__sub_I_artifacts_WebGL_codegenerator_0_cpp_2794
tPm:__ZN6il2cpp2os12Cryptography24OpenCryptographyProviderEv
iKe:__ZN5physx2Sq17SceneQueryManager17processSimUpdatesEv
S8i:_SynchronizedArrayListWrapper_Clear_m2191301493
Owf:_Update_Max
$vm:__ZN6il2cpp6icalls8mscorlib6SystemL15ThrowNoWideningEv
Wbe:__ZN5physx6shdfnd5ArrayIPvNS0_19ReflectionAllocatorINS_13NpRigidStaticEEEE15growAndPushBackERKS2_
uPc:__ZNK23TransformChangeDispatch24GetChangeMaskForInterestENS_12InterestTypeE
FR:__ZN26AnimatorOverrideController23GetAnimationSetBindingsEv
ivd:__Z14UpdateSpeedTplIL27ParticleSystemCurveEvalMode4EEvRK11MinMaxCurveR23ParticleSystemParticlesjj
CPc:__Z45Transform_CUSTOM_INTERNAL_CALL_TransformPointP12Il2CppObjectRK8Vector3fRS1_
zui:_Enumerator_VerifyState_m1203790900_gshared
pJe:__ZN5physx10PxsContext25setVisualizationParameterENS_24PxVisualizationParameter4EnumEf
Dkh:_GenericTypeParameterBuilder_InvokeMember_m1647304778
CBc:__ZL10KeyHandleriPK23EmscriptenKeyboardEventPv
D7a:__ZNSt3__26__treeINS_12__value_typeI39DeprecatedFastPropertyNameSerializationfEENS_19__map_value_compareIS2_S3_NS_4lessIS2_EELb1EEENS_9allocatorIS3_EEE7destroyEPNS_11__tree_nodeIS3_PvEE
UOd:__ZN24ConvexVsHeightfieldSweepC2ERN5physx2Gu15HeightFieldUtilERKNS1_14ConvexHullDataERKNS0_11PxMeshScaleERKNS0_11PxTransformESC_RKNS0_6PxVec3EfNS0_7PxFlagsINS0_9PxHitFlag4EnumEtEEfbb
Ouf:_tt_cmap4_char_index
MXf:_AspectRatioFitter_GetParentSize_m3159144324
pTi:_SecurityFrame_get_Assembly_m2874566710
Ipl:_Enumerator_System_Collections_IEnumerator_Reset_m1487823313_gshared
nAb:__ZNK12HandlerChain8IsHiddenERK13FileEntryData
lFb:__ZNSt3__26__treeINS_12__value_typeIN4core12basic_stringIcNS2_20StringStorageDefaultIcEEEEPN16MemoryFileSystem4NodeEEENS_19__map_value_compareIS6_SA_NS_4lessIS6_EELb1EEE13stl_allocatorISA_L18MemLabelIdentifier55ELi16EEE25__emplace_unique_key_argsIS6_JNS_4pairIKS6_S9_EEEEENSK_INS_15__tree_iteratorISA_PNS_11__tree_nodeISA_PvEEiEEbEERKT_DpOT0_
DRb:__ZL26Transfer_SimpleNativeClassI17RemapPPtrTransfer10RectOffsetLb0EEvRK29SerializationCommandArgumentsR31RuntimeSerializationCommandInfo
yTc:__ZN16GraphicsSettings12CleanupClassEv
LU:__ZNSt3__26vectorIN13AnimationClip15QuaternionCurveE13stl_allocatorIS2_L18MemLabelIdentifier26ELi16EEE6assignINS_11__wrap_iterIPS2_EEEENS_9enable_ifIXaasr21__is_forward_iteratorIT_EE5valuesr16is_constructibleIS2_NS_15iterator_traitsISC_E9referenceEEE5valueEvE4typeESC_SC_
sjj:_Int32_ToString_m2507389746_AdjustorThunk
Gvj:_Decimal_op_Explicit_m438967917
Q0l:_AnimatorControllerPlayable_SetHandle_m2260644454_AdjustorThunk
tEd:__ZL30CalculateMeshParticleTransformIL25ParticleSystemRenderSpace4EEvRN4math7affineXERNS1_8float3x3ERKNS1_7_float3EiRKS2_SA_SA_S8_RK23ParticleSystemParticlesRK21ParticleSystemModulesRK26ParticleSystemVector3Array
Ngb:__ZN21EnlightenSceneMapping16BuildRemapTablesEv
pFc:__ZNSt3__26vectorIN9ShaderLab20SerializedSubProgram13BufferBindingENS_9allocatorIS3_EEEC2ERKS6_
PSh:_InputField_set_selectionColor_m2084640295
fWa:__ZNK9ShaderLab20ShaderBlendStateDesc15ToGfxBlendStateEPK19ShaderPropertySheetS3_R13GfxBlendState
Hvi:_Enumerator_System_Collections_IEnumerator_get_Current_m1747693366_AdjustorThunk
o$h:_ScrollRectEvent__ctor_m1107027632
iM:__ZN11UnityEngine9AnimationL22GenericBindingCallbackEPvS1_i
tP:__ZN12_GLOBAL__N_121ProcessAnimationBeginER35AnimationPlayableEvaluationConstantR32AnimationPlayableEvaluationInputR33AnimationPlayableEvaluationOutput
VIc:__ZN9ShaderLab9IntShaderC2Ev
$xd:__Z25UpdateOrbitalAndRadialTplIL27ParticleSystemCurveEvalMode0ELS0_3ELS0_3EEvRK11MinMaxCurveS3_S3_S3_S3_S3_S3_R23ParticleSystemParticlesjjRKN4math8float3x3ERKNS6_7affineXERKNS6_7_float4E
Cgm:__ZN6il2cpp6icalls8mscorlib6SystemL9IsPrivateEPK9EventInfo
WOm:__ZN6il2cpp6icalls8mscorlib6System10Reflection4Emit11TypeBuilder20setup_internal_classEP27Il2CppReflectionTypeBuilderS7_
hbf:__ZN5physx11AdjacenciesD2Ev
RDe:__ZN5physx6shdfnd8PoolBaseINS_2Sc24ElementInteractionMarkerENS0_19ReflectionAllocatorIS3_EEE12allocateSlabEv
QOe:__ZN5physx2Sq16BucketPrunerCore11shiftOriginERKNS_6PxVec3E
MKb:__ZNSt3__26vectorIN20GpuProgramParameters14ConstantBufferENS_9allocatorIS2_EEE21__push_back_slow_pathIRKS2_EEvOT_
xKj:_Array_InternalArray__IndexOf_TisILTokenInfo_t2325775114_m2602704009_gshared
PIg:__ZL52Matrix4x4_t1817901843_CustomAttributesCacheGeneratorP21CustomAttributesCache
I9j:_StringBuilder_AppendFormat_m3255666490
Jnd:__ZN27ParticleSystemReadOnlyState8TransferI24GenerateTypeTreeTransferEEvRT_
Odd:__ZN5Unity9rapidjson6WriterI16TempBufferWriterNS0_4UTF8IcEES4_13JSONAllocatorE11WriteUint64Ey
Mcd:__ZN13GUIStateScope3EndER16GUIKeyboardStateR8GUIStatePN5IMGUI19NamedKeyControlListE
Zgh:_Default_GetBetterMethod_m3232777160
w6f:_TypeBuilder_GetGenericArguments_m2872156836
DJe:__ZN5physx6shdfnd5ArrayIPNS_3Scb5ShapeENS0_19ReflectionAllocatorIS4_EEE6resizeEjRKS4_
g0d:__ZN5physx3Cct15ObstacleContextD2Ev
J4l:__ZN13Il2CppHashMapIPK22Il2CppGenericParameterP11Il2CppClassN6il2cpp5utils11PointerHashIS1_EENSt3__28equal_toIS2_EENS9_9allocatorINS9_4pairIK10KeyWrapperIS2_ES4_EEEEEC2EjRKS8_RKSB_
Lid:__ZN8JSONRead21TransferSTLStyleArrayI31ArrayOfManagedObjectsTransfererEEvRT_17TransferMetaFlags
xBb:__Z15CreateDirectoryRKN4core12basic_stringIcNS_20StringStorageDefaultIcEEEE
Nob:__Z21CalculateGlobalMatrix23TransformAccessReadOnly
x6f:_TypeBuilder_GetGenericTypeDefinition_m1632720438
nLj:_MonoProperty_StaticGetterAdapterFrame_TisRuntimeObject_m4131530968_gshared
fFj:_Array_InternalArray__ICollection_Contains_TisLink_t544317964_m163190451_gshared
Dzj:_DateTimeOffset_System_IComparable_CompareTo_m176229495_AdjustorThunk
Buh:_ManagedStreamHelpers_ValidateLoadFromStream_m580138133
Grb:__ZNK13BuildSettings22GetTypeVirtualInternalEv
UCk:__ZN30GenericInterfaceActionInvoker1I17Scene_t2348375561E6InvokeEPK10MethodInfoP12Il2CppObjectS0_
$Pe:__ZN5physx2Cm10FanoutTaskC2EPKc
znl:_List_1_CheckIndex_m2250397830_gshared
xMe:__ZNK5physx2Sc5Scene17prefetchForRemoveERKNS0_8BodyCoreE
SVi:_String_LastIndexOf_m578673845
zA:__ZN14NavMeshManager6UpdateEv
nxh:_PlayerEditorConnectionEvents_UnregisterManagedCallback_m400366024
t9d:__ZN5physx2Sc8RigidSimD2Ev
HIc:__ZN9ShaderLab20SerializedSubProgram14ConstantBufferC2EOS1_
d5f:_PropertyBuilder_GetSetMethod_m128670376
Jdi:_Interval_get_Empty_m3617514670
jgh:_Assembly_GetName_m981771927
wK:__ZN7mecanim12statemachine24CreateStateMachineOutputEPKNS0_20StateMachineConstantEjRNS_6memory9AllocatorE
CAd:__ZN15CollisionModuleD0Ev
RIe:__ZNK5physx13NpVolumeCache7raycastERKNS_6PxVec3ES3_fRNS_13PxHitCallbackINS_12PxRaycastHitEEENS_7PxFlagsINS_9PxHitFlag4EnumEtEERKNS_17PxQueryFilterDataEPNS_21PxQueryFilterCallbackE
MGb:__ZNK9GfxDevice27GetActiveRenderSurfaceWidthEv
S$g:__ZL114StandaloneInputModule_t2760469101_CustomAttributesCacheGenerator_StandaloneInputModule_ForceAutoSelect_m2837047882P21CustomAttributesCache
w_e:__ZN5physx16PxsIslandManagerC2EjRNS_19PxcScratchAllocatorEPNS_2Cm13EventProfilerE
oKf:__ZN11UnityEngine15PlatformWrapper28GetCleanGraphicsFixedVersionEv
pYh:_MaskableGraphic_RecalculateClipping_m1772937317
qah:_UnmanagedMemoryStream_SetLength_m3752964620
Kxl:_SslStreamBase_RaiseLocalPrivateKeySelection_m4112368540
Kpm:__ZN6il2cpp2vm4Type7GetTypeEPK10Il2CppType
nXe:__ZN5physx13ActorAABBTask11runInternalEv
Zki:_InternalEnumerator_1_get_Current_m165106323_AdjustorThunk
YBd:__ZN14ParticleSystem18SetSimulationSpeedEf
wak:_UTF32Encoding_GetByteCount_m3610769032
gea:__ZN11AudioModule16SetListenerPauseEb
Gjc:__Z16FindCameraStacksRKNSt3__24listI4PPtrI6CameraENS_9allocatorIS3_EEEERNS_6vectorI11CameraStackNS4_ISA_EEEE
TDl:_MatchCollection_CopyTo_m3807326147
Fgb:__ZN10GISettings8TransferI14SafeBinaryReadEEvRT_
co:FUNCTION_TABLE_vifff
kRh:_MD5CryptoServiceProvider__ctor_m3271163125
xyc:__ZN19CustomRenderTexture12ClearGPUDataEv
Vgj:_Guid_Equals_m3683678873
t4a:__ZN13RenderTexture13ApplySettingsEv
gLh:_ObjectReader_RegisterObject_m1853376334
Ylh:_ModuleBuilderTokenGenerator_GetToken_m2588853565
Zwd:__Z25UpdateOrbitalAndRadialTplIL27ParticleSystemCurveEvalMode2ELS0_0ELS0_0EEvRK11MinMaxCurveS3_S3_S3_S3_S3_S3_R23ParticleSystemParticlesjjRKN4math8float3x3ERKNS6_7affineXERKNS6_7_float4E
d4i:_Boolean_System_IConvertible_ToDecimal_m3176932461_AdjustorThunk
Tqc:__ZNSt3__26__treeINS_12__value_typeIi17ShadowCachingDataEENS_19__map_value_compareIiS3_NS_4lessIiEELb1EEE13stl_allocatorIS3_L18MemLabelIdentifier66ELi16EEE25__emplace_unique_key_argsIiJNS_4pairIiS2_EEEEENSD_INS_15__tree_iteratorIS3_PNS_11__tree_nodeIS3_PvEEiEEbEERKT_DpOT0_
uf:_JS_Sound_SetListenerPosition
Xn:FUNCTION_TABLE_fiffi
yDf:__Z55Register_UnityEngine_CanvasGroup_get_ignoreParentGroupsv
_ob:__ZN12EventManager11RemoveEventEP10EventEntryPFvPvS2_iES2_
Aqe:__ZN5physx7NpCloth21setLinearInertiaScaleENS_6PxVec3E
S2m:_glGetActiveUniform__wrapper
dqj:_StreamWriter_LowLevelWrite_m1081676583
pxb:__ZNK8Material16MarkDependenciesER27GarbageCollectorThreadState
S1h:_Slider_set_handleRect_m1101657556
Qzj:_DateTimeOffset_ToString_m3985341516_AdjustorThunk
SLd:__ZN5Unity10FastCookerD2Ev
Sfd:__ZL17Transfer_GUIStyleI9JSONWriteLb0EEvRK29SerializationCommandArgumentsR31RuntimeSerializationCommandInfo
fMj:_Array_InternalArray__ICollection_Add_TisContactPoint_t3758755253_m4220022016_gshared
toc:__Z28GetHaloVertexPositionsStereoP8Vector3fRKS_S2_f
Kdf:__ZN17TriggerStayStates20executeDeferredEraseEv
fDa:__ZN6prcoreL27StretchGenericFloatBilinearI15TexFormatRGHalfEEvPKNS_9InnerInfoE
XR:__Z16return_effectiveRK21AnimationClipOverride
iB:__Z17UpdateVelocityJobP9CrowdInfoj
poc:__ZN9DepthPass7PrepareER6CameraRK13dynamic_arrayI16RenderObjectDataLj0EERK15RenderNodeQueueRK17ShaderReplaceDatab
Ffm:__ZN6il2cpp6icalls8mscorlib6SystemL16CheckMemberMatchI9FieldInfoNS_5utils10functional6FilterINSt3__212basic_stringIcNS8_11char_traitsIcEENS8_9allocatorIcEEEENS5_13VmStringUtils21CaseSensitiveComparerEEEEEbPKT_PK11Il2CppClassSN_iRKT0_
UJa:__ZN9Scripting11UnityEngine12Experimental3U2D10SpriteBone9InitProxyEv
H5a:__ZNK15PlayableMethods18InvokePrepareFrameER18ScriptingObjectPtrRK9HPlayableP18ScriptingFrameData
_R:__ZN14SafeBinaryRead21TransferSTLStyleArrayI13dynamic_arrayI21AnimationClipOverrideLj0EEEEvRT_17TransferMetaFlags
_y:__ZNK15NavMeshObstacle15GetWorldExtentsEv
GWe:__ZN5physx14PxsAABBManager22processAggregateSingleERKNS_19AggregateSortedDataERKNS_9AggregateEjPNS_2Cm10BitMapBaseINS_6shdfnd9AllocatorEEE
efa:__Z13RegisterClassI12AudioManagerEvPKc
a_b:__Z18Transfer_BlittableI18StreamedBinaryReadILb0EELb1E9BoundsIntEvRK29SerializationCommandArgumentsR31RuntimeSerializationCommandInfo
X3g:__ZL71SpriteState_t1362986479_CustomAttributesCacheGenerator_m_DisabledSpriteP21CustomAttributesCache
XLf:__ZN22BaseUnityConnectClient28UpdateConfigFromServerStaticEPv
E8h:_PublicKey_DecodeDSA_m3490622362
bPc:__Z49Register_UnityEngine_Resources_GetBuiltinResourcev
r$e:__ZN5physx2Sc17ParticleSystemSim20scheduleCollisionCpuERNS0_16InteractionSceneERKNS_6shdfnd5ArrayIPS1_NS4_19ReflectionAllocatorIS6_EEEERNS_10PxBaseTaskE
Yfk:_Type_GetMethod_m1479779718
Buf:_tt_cmap10_char_index
Hdk:_WaitHandle__cctor_m4242752477
iyl:_TlsException__ctor_m3242533711
hGc:__ZN15SerializeTraitsINSt3__24pairIN4core12basic_stringIcNS2_20StringStorageDefaultIcEEEE4PPtrI7TextureEEEE8TransferI24GenerateTypeTreeTransferEEvRSA_RT_
Iqj:_SortedList__ctor_m3676552745
l5l:__ZN15dense_hashtableINSt3__24pairIK10KeyWrapperIPK22Il2CppGenericParameterEP11Il2CppClassEES6_N6il2cpp5utils11PointerHashIS4_EEN14dense_hash_mapIS6_S9_SE_NS6_14EqualsComparerINS0_8equal_toIS5_EEEENS0_9allocatorISA_EEE9SelectKeyESJ_SL_E3endEv
mda:__ZN11AudioSource24ClearExtensionPropertiesE12PropertyName
jZa:__ZN14VertexDataInfo12UpdateFormatEj17ShaderChannelMaskS0_RK19VertexStreamsLayoutRK20VertexChannelsLayout
lHc:__ZN9ShaderLab22SerializedBindChannels8TransferI19StreamedBinaryWriteILb0EEEEvRT_
QPb:__ZN15SerializeTraitsI5RectTIiEE8TransferI14SafeBinaryReadEEvRS1_RT_
zbd:__ZN5IMGUI20MoveWindowFromLayoutER8GUIStateiRK5RectTIfE
znf:_UNITY_FT_Stream_ReadUShort
k7a:__ZNSt3__26__treeINS_12__value_typeIN4core12basic_stringIcNS2_20StringStorageDefaultIcEEEES6_EENS_19__map_value_compareIS6_S7_NS_4lessIS6_EELb1EEE13stl_allocatorIS7_L18MemLabelIdentifier1ELi16EEE7destroyEPNS_11__tree_nodeIS7_PvEE
Rhh:_AssemblyBuilder_get_Location_m384539722
ncc:__Z13IsDepthFormat14GraphicsFormat
$qb:__ZN12AspectRatios8TransferI24GenerateTypeTreeTransferEEvRT_
sch:_MonoType_GetFields_m4176012508
jg:_emscripten_glUniform1fv
pCc:__ZN12LineRenderer5ResetEv
y5l:__ZN6il2cpp2vm5Class13GetArrayClassEP11Il2CppClassj
xWf:_StandaloneInputModule_set_inputActionsPerSecond_m4057208843
Rmf:_ft_open_face_internal
iQh:_HashAlgorithm_ComputeHash_m2044824070
ho:FUNCTION_TABLE_iifff
add:__ZN11IMGUIModule12AddGUIScriptER8ListNodeI13MonoBehaviourE
yb:invoke_difi
qKl:_GUILayoutUtility_BeginWindow_m2240221150
H1m:_glDeleteSamplers__wrapper
Jxa:__ZL50StaticRegisterSceneLoadedCallback_LightmapSettingsPv
S3h:_HybridDictionary_set_Item_m2997363718
tn:FUNCTION_TABLE_iiffi
Vqi:_InternalEnumerator_1_get_Current_m1477715453_AdjustorThunk
Zqe:__ZNK5physx7NpCloth24getSeparationConstraintsEPNS_35PxClothParticleSeparationConstraintE
Yik:_UInt64_System_IConvertible_ToUInt32_m2784653358
Zbc:__ZN21GLESGpuProgramApplier11ApplyVectorERKN20GpuProgramParameters14ValueParameterEPK8Vector4ft
ztc:__Z17PrepareSceneNodesP11CullResults
hra:__ZN19RuntimeSceneManager19UnloadSceneInternalEP10UnityScene
FNh:_SByte_System_IConvertible_ToDecimal_m2548745278
rof:_cff_size_done
buc:__ZN29ExtractProjectionPlanesHelperILb1EE5ApplyERK10Matrix4x4fP5Plane
$1e:__ZN5physx6shdfnd5ArrayINS_17PxcSolverBodyDataENS0_16AlignedAllocatorILj128ENS0_19ReflectionAllocatorIS2_EEEEE6resizeEjRKS2_
lUc:__ZN13ProduceHelperI7CubemapLb0EE7ProduceE10MemLabelId18ObjectCreationMode
Pyc:__ZN6Camera34UpdatePreviousViewProjectionMatrixEv
H6a:__ZN9ShaderLab11ShaderState25RemoveUnsupportedProgramsEPK6Shader
v8c:__Z44Register_UnityEngine_Object_DestroyImmediatev
Uuh:_Mathf_Abs_m3281243566
q9g:_SynchronizedWriter_WriteLine_m1552352268
cMc:__Z26scripting_class_has_parent17ScriptingClassPtrS_
Fef:__ZN13ProduceHelperI9RigidbodyLb0EE7ProduceE10MemLabelId18ObjectCreationMode
vwa:__ZN13RuntimeStaticI21AssetReferenceStorageLb0EE16StaticInitializeEPv
zij:_Int32_System_IConvertible_ToByte_m3832391412_AdjustorThunk
Fda:__Z71Register_UnityEngine_AudioSource_INTERNAL_CALL_ClearExtensionPropertiesv
hQ:__ZNK8Animator20IsInMatchTargetStateEv
Lmi:_InternalEnumerator_1_System_Collections_IEnumerator_get_Current_m4088805473_gshared
hJa:__ZN9Scripting11UnityEngine5Plane12CleanupProxyEv
vbd:__Z36Register_UnityEngine_GUI_set_changedv
jgg:_Context_GetServerContextSinkChain_m3154465897
jLl:_GUIStyle_get_fixedHeight_m2868324709
Ktd:__Z11EvaluateHDRIL12GradientMode1ELS0_1EEN4math8floatNx4ERK14MinMaxGradientRKNS1_7_float4ES8_
Z2a:__ZN17LightBakingOutput8TransferI24GenerateTypeTreeTransferEEvRT_
sqe:__ZN5physx7NpCloth13setTargetPoseERKNS_11PxTransformE
dPm:__GLOBAL__sub_I_Il2CppCodeRegistration_cpp
TJ:__ZN27AnimationLayerMixerPlayable18SetInputConnectionEP8Playablei
CJ:__ZN7mecanim28TransformValueArrayBlendNodeEiiiRKNS_10ValueArrayERKNS_14ValueArrayMaskERS0_RS3_RNS_16ValueArrayWeightEf
ft:__ZN15HeightMeshQueryC2Ev
z7j:_List_1_GetIndex_m3112872964_gshared
$$f:_Dropdown_set_value_m1048320169
j2l:_CustomEventData_Finalize_m1724721833
c$a:__ZN20TierGraphicsSettings8TransferI18StreamedBinaryReadILb0EEEEvRT_
Yij:_Int32_System_IConvertible_ToUInt64_m2502338186_AdjustorThunk
DAa:__Z33CleanupCubemapGPUUtilityMaterialsPv
U7c:__Z43Register_UnityEngine_Material_EnableKeywordv
s1l:__ZL9rshift128PyS_
n6f:_TypeBuilder_IsValueTypeImpl_m3935440087
uij:_Int16_ToString_m2072232391_AdjustorThunk
B5j:_Enumerator_VerifyState_m169680537_AdjustorThunk
oom:__ZN14dense_hash_mapI10KeyWrapperINSt3__24pairIPK12PropertyInfoP11Il2CppClassEEEj17ReflectionMapHashIS8_ENS9_14EqualsComparerINS1_8equal_toIS8_EEEENS1_9allocatorINS2_IKS9_jEEEEE13set_empty_keyERSH_
cM:__ZN8Animator28BuildControllerPlayableCacheEv
pRc:__Z45Register_UnityEngine_Input_get_touchSupportedv
sKf:__ZN11UnityEngine15PlatformWrapper28GetTextureFormatSupportFlagsEv
Y8:__ZN11AudioSource23VirtualRedirectTransferER19StreamedBinaryWriteILb0EE
mJh:_RemotingConfiguration_RegisterWellKnownClientType_m1237674062
CMa:__ZN9Scripting5Unity11Collections8LowLevel6Unsafe42NativeDisableUnsafePtrRestrictionAttribute9InitProxyEv
sIl:_Uri_EscapeString_m3864445955
$of:_cf2_setError
Zhb:__ZN14SafeBinaryRead21TransferSTLStyleArrayI13dynamic_arrayI12BoneWeights4Lj16EEEEvRT_17TransferMetaFlags
ex:__ZNK12NavMeshQuery16FindStraightPathERK8Vector3fS2_PKyiPS0_PhPyPii
mic:__ZZ23InitPlayerLoopCallbacksvEN35PreUpdateSendMouseEventsRegistrator7ForwardEv
qVa:__ZNK6Camera25GetNormalizedViewportRectEP13RenderTextureb
a0f:_Dropdown_Awake_m3140021404
zh:_glDisable
aXm:_llvm_ctlz_i64
X4a:__ZN13RenderTexture8TransferI24GenerateTypeTreeTransferEEvRT_
uGh:_Vector2_get_sqrMagnitude_m837837635
dIm:__ZN6il2cpp5utils11StringUtils15StringDuplicateEPKDsj
hGl:_Regex_Match_m4145799399
AI:__ZN17AnimationPlayable17ProcessRootMotionEP35AnimationPlayableEvaluationConstantP32AnimationPlayableEvaluationInputP33AnimationPlayableEvaluationOutput
XVi:_String_IsNullOrEmpty_m2969720369
G_l:_TextGenerator_GetPreferredHeight_m3514897836
ny:__ZNK11DynamicMesh8SubtractERNSt3__26vectorI13dynamic_arrayI8Vector3fLj0EE13stl_allocatorIS4_L18MemLabelIdentifier1ELi16EEEERKS4_RS4_SC_PKhRKS2_I5PlaneLj0EE
gQj:_BigInteger_LowestSetBit_m3082714978
$6k:_Array_InternalArray__Insert_TisKeyValuePair_2_t2530217319_m1769848997_gshared
GQd:__ZN5physx10getInverseERNS_7PxMat33ERNS_6PxVec3ERKS0_RKS2_
s6m:b118
t6m:b119
Bjc:__ZNK8Material12GetPassCountEv
hOi:_RSAParameters_t1728406613_marshal_pinvoke
Sdi:_Interval_IsDisjoint_m1532171337_AdjustorThunk
U4m:b112
OWm:_bitshift64Ashr
X4m:b114
V5m:b115
W5m:b116
X5m:b117
qYm:dynCall_diii
pXh:_LayoutUtility_GetFlexibleWidth_m22831835
RKh:_BinaryFormatter__ctor_m971003555
Zfi:_ArrayReadOnlyList_1_ReadOnlyError_m865416608_gshared
oPl:_PlayerAttack_Defeated_m758078011
tvc:__Z18AddGroupToWorkloadR26BlockRangeBalancedWorkloadjR13dynamic_arrayI10BlockRangeLj0EERS1_IjLj0EE
_9i:_CollectionBase_System_Collections_IList_get_Item_m3743372945
qpj:_Stream_ReadByte_m4291052673
Scb:__ZN4crnd12crn_unpacker22decode_alpha_endpointsEv
d3l:_Physics_Raycast_m1896872038
aql:_Queue_1__ctor_m2068090025_gshared
Ruc:__Z23CullDynamicObjectsUmbraPK4AABBPKN5Umbra15OcclusionBufferER9IndexList
Jxl:_SslStreamBase_RaiseRemoteCertificateValidation2_m2908038766
Puf:_tt_cmap4_char_next
s_f:_ColorTween_set_startColor_m2562993758_AdjustorThunk
xtd:__ZN11ForceModule6UpdateERK27ParticleSystemReadOnlyStateRK19ParticleSystemStateR23ParticleSystemParticlesjjRKN4math7_float4E
aHk:__Z50RuntimeInvoker_Boolean_t97287965_Int16_t2552820387PFvvEPK10MethodInfoPvPS4_
dza:__ZN17DirectorFrameTime14ResetDSPValuesEv
ruj:_Convert_ToDecimal_m1233667008
KXk:__Z44RuntimeInvoker_RuntimeObject_Ray_t3785851493PFvvEPK10MethodInfoPvPS4_
IMf:__ZN22UnityAnalyticsSettings10SetEnabledEb
oyl:_SslStreamBase_Read_m231548581
b4:__ZN4FMOD7Channel11setPositionEjj
ri:_glBindSampler
SHi:_ClientContext_get_ClientHelloProtocol_m1654639078
Mge:__ZN5physx2Sc8BodyCore20clearSpatialVelocityEbb
vi:_glGetVertexAttribiv
AAi:_Enumerator_System_Collections_IEnumerator_get_Current_m1975949486_gshared
AEl:_PatternCompiler_EmitSub_m193323684
gOj:_MSCompatUnicodeTable_Category_m1834196420
FMe:__ZN5physx6shdfnd5ArrayINS_9PxBounds3ENS0_15InlineAllocatorILj192ENS0_19ReflectionAllocatorIS2_EEEEE8recreateEj
IMa:__ZN9Scripting5Unity11Collections8LowLevel6Unsafe49NativeContainerSupportsDeferredConvertListToArray9InitProxyEv
Yid:__ZN8JSONRead8TransferIbEEvRT_PKc17TransferMetaFlagsb
YA:__ZN12CrowdManager17UpdateMoveRequestEv
k4d:__ZN5physx6shdfnd5ArrayIPvNS0_19ReflectionAllocatorINS_2Sc24ElementInteractionMarkerEEEE4copyINS0_15InlineAllocatorILj256ES6_EEEEvRKNS1_IS2_T_EE
Nek:_TimeSpan_ToString_m1128692466
koe:__ZNK5physx7NpShape15getGeometryTypeEv
hNl:_AesManaged_CreateEncryptor_m2294080233
TJl:_Event_GetHashCode_m3559153592
g9j:_StringBuilder__ctor_m2367297767
tKm:_GC_promote_black_lists
aej:_CultureInfo_construct_datetime_format_m1928121315
Mjd:__Z29Transfer_Blittable_ArrayFieldI8JSONRead8Vector4fEvRT_R9ArrayInfoRK23StaticTransferFieldInfo
ych:_Binder_GetDerivedLevel_m3216810447
jp:FUNCTION_TABLE_vd
lp:FUNCTION_TABLE_vi
moa:__ZN13RuntimeStaticI37UnityShaderCompilerExtPluginConfigureLb0EE16StaticInitializeEPv
p3c:__ZN10systeminfo24GetRuntimePlatformStringEv
J9j:_StringBuilder_AppendFormat_m2403596038
YPh:_DSASignatureDeformatter_SetHashAlgorithm_m3186995552
Eqk:_ReadOnlyCollection_1_System_Collections_Generic_ICollectionU3CTU3E_Clear_m2772202961_gshared
VTe:__ZN5physxL25solveContact4_StaticBlockEPKNS_23PxcSolverConstraintDescERNS_16PxcSolverContextE
$9j:_UnicodeEncoding_GetString_m332467280
Z$:__ZNK8Animator17HasBoundPlayablesEv
Ekd:__ZN5Unity9rapidjson13GenericReaderINS0_4UTF8IcEES3_13JSONAllocatorE10ParseFalseILj0ENS0_19GenericStringStreamIS3_EENS0_15GenericDocumentIS3_S4_S4_EEEEvRT0_RT1_
uck:_SynchronizationContext_SetSynchronizationContext_m1249070039
O_d:__ZNK5physx3Cct17CapsuleController15getFootPositionEv
mnl:_List_1_AddEnumerable_m1267044261_gshared
tLk:__Z99RuntimeInvoker_Void_t1185182177_RuntimeObject_Int32_t2950945753_SByte_t1669577662_SByte_t1669577662PFvvEPK10MethodInfoPvPS4_
Ugm:__ZN6il2cpp2vm7Runtime9SetConfigEPKc
Jdd:__ZN5Unity9rapidjson12PrettyWriterI16TempBufferWriterNS0_4UTF8IcEES4_13JSONAllocatorE10StartArrayEv
MGd:__ZN14qsort_internal30FindAndMovePivotToLastPositionIP22ParticleRibbonSortDataiNSt3__27greaterIS1_EEEEvT_S6_T0_T1_
lMa:__ZN9Scripting11UnityEngine16AndroidJNIHelper12CleanupProxyEv
za:invoke_iiifiii
YBh:_RectTransform_INTERNAL_get_pivot_m2970933031
MCk:_UnityAction_1_Invoke_m927447181_gshared
kwm:__ZN6il2cpp2vm9Exception11FromNameMsgEPK11Il2CppImagePKcS6_S6_
Nn:FUNCTION_TABLE_fiiifii
aUe:__ZN5physx25solveContact_BStaticBlockEPKNS_23PxcSolverConstraintDescEjRNS_16PxcSolverContextE
q$:__ZN10HumanTrait15InitializeClassEv
dAa:__Z14GetTimeManagerv
uph:_Color32_op_Implicit_m213813866
BBh:_RectOffset_set_top_m713260669
wPf:__ZN19TransportJavaScript7CleanupEv
DOc:__Z12GUIDToStringRK9UnityGUIDPc
Wwa:__ZN15FileSystemEntry4LockE12FileLockModeP12FileAccessor
DHa:__ZN9Scripting11UnityEngine10Vector3Int12CleanupProxyEv
z4m:_emscripten_glDrawArrays__wrapper
iFl:_Parser__ctor_m3200411199
fjj:_Int32_Equals_m2976157357
p2:__ZNK15AudioMixerGroup22GetTypeVirtualInternalEv
jWk:__Z110RuntimeInvoker_Int32_t2950945753_Int32_t2950945753_Int32_t2950945753_Int32U26_t1369213839_Int32U26_t1369213839PFvvEPK10MethodInfoPvPS4_
GRd:__ZL4facejjjRN5physx6PxVec3ERKS0_S3_S3_PfRf
PJe:__ZN5physx6shdfnd5ArrayIPNS_2Sc14ConstraintCoreENS0_19ReflectionAllocatorIS4_EEE6resizeEjRKS4_
Wzl:_BasicConstraintsExtension_Encode_m2009213240
l9:__ZN11AudioSource22UnmuteActiveVideoSinksEv
azl:_TlsException__ctor_m3717683709
aIm:__ZN4utf88internal20is_overlong_sequenceIiEEbjT_
P9l:__ZN6il2cpp2vm13MetadataCache8RegisterEPK22Il2CppCodeRegistrationPK26Il2CppMetadataRegistrationPK20Il2CppCodeGenOptions
S2e:__ZL18getFrictionPatchesRN5physx26PxcFrictionPatchStreamPairERNS_20PxcCorrelationBufferEPKhjRKNS_11PxTransformES8_f
Qeh:_NumberFormatter_AppendExponent_m1258666517
iCd:__Z39ParticleSystemRenderer_RenderBillboardsIL21SpriteMaskInteraction2EEvRK15RenderNodeQueuej16VertexInputMasksi
YLc:__Z41Register_UnityEngine_Cursor_get_lockStatev
Kpc:__Z14SetupLightmapsRK8Vector4fS1_R17ShaderPassContext
Omm:__ZN14dense_hash_mapI10KeyWrapperIPK14Il2CppAssemblyEPK22Il2CppMonoAssemblyNameN6il2cpp5utils11PointerHashIS2_EENS4_14EqualsComparerINSt3__28equal_toIS3_EEEENSD_9allocatorINSD_4pairIKS4_S7_EEEEE13set_empty_keyERSJ_
a6a:__ZL20InitializeGUIShadersv
Pgj:_Guid_CompareTo_m243656946
GZc:__Z20DestroyObjectDelayedP6Objectf
jma:__ZN20DynamicHeapAllocatorI17LowLevelAllocatorED0Ev
lIf:__ZL56__ManagedRegistrationHelperFunction_AnalyticsSessionInfoPv
RXk:__Z159RuntimeInvoker_Boolean_t97287965_Vector3U26_t3464235976_Vector3U26_t3464235976_RaycastHitU26_t2429360258_Single_t1397266774_Int32_t2950945753_Int32_t2950945753PFvvEPK10MethodInfoPvPS4_
y_c:__ZN11TimeManagerC2E10MemLabelId18ObjectCreationMode
YKd:__ZN8Collider16RecreateColliderEPK9Rigidbody
Smc:__ZN9DepthPassD2Ev
$Fd:__Z17UpdateSprites2TplIL27ParticleSystemCurveEvalMode2ELS0_1EEvfRK11MinMaxCurveS3_RK23ParticleSystemParticlesPf
F3:__ZN11AudioFilter6GetDSPEv
rGh:_Vector2_Equals_m832062989
Xif:__ZN13PhysicsModule31GetColliderComponentsInChildrenERK10GameObjectbbR13dynamic_arrayIPN5Unity9ComponentELj0EE
yle:__ZN5physx2Sc14ConstraintCore9setBodiesEPNS0_9RigidCoreES3_
N_h:_Scrollbar_OnDrag_m4289602768
gra:__ZN19RuntimeSceneManager14CanUnloadSceneEP10UnityScene
Vmc:__Z22ExtractRenderNodeQueueRK11CullResults15ExtractionFlagsR15RenderNodeQueue
Ggf:__ZN5physx6shdfnd8PoolBaseINS_24NpPtrTableStorageManager8PtrBlockILi64EEENS0_19ReflectionAllocatorIS4_EEE12allocateSlabEv
x6:__ZN24AudioScriptBufferManagerC2Ev
_Hd:__ZN11UnityEngine9Analytics18SceneLoadTimeEvent12ToJsonStringER9JSONWrite
jmf:__ZNSt3__26vectorIh13stl_allocatorIhL18MemLabelIdentifier1ELi16EEE8__appendEj
Zoi:_InternalEnumerator_1_System_Collections_IEnumerator_get_Current_m3854084659_AdjustorThunk
ced:__ZN8JSONRead32GetValueForKeyWithNameConversionEPKN5Unity9rapidjson12GenericValueINS1_4UTF8IcEE13JSONAllocatorEEPKc
afi:_U3CGetEnumeratorU3Ec__Iterator0_System_Collections_IEnumerator_get_Current_m283764921_gshared
Hcj:_CultureInfo_get_IcuName_m2258611679
Ked:__Z18Transfer_BlittableI9JSONWriteLb0EfEvRK29SerializationCommandArgumentsR31RuntimeSerializationCommandInfo
J4a:__Z21GetAsyncUploadManagerv
hk:_emscripten_glDetachShader
PWh:_LayoutRebuilder_ReapplyDrivenProperties_m2581469389
Hde:__ZNK5physx2Sc15ArticulationSim16createDriveCacheEfj
klb:__ZN17GenericDynamicVBO20ReleaseChunkInternalERK21DynamicVBOChunkHandlejj
$zf:__ZL27CleanupModule_TextRenderingv
tUj:_SymmetricTransform_OFB_m3842617151
P1d:__ZN5physx6shdfnd5ArrayIPNS_3Scb5ActorENS0_19ReflectionAllocatorIS4_EEE6resizeEjRKS4_
$Na:__ZN12CachedWriter11Align4WriteEv
i5b:__ZN19RuntimeSceneManager11CreateSceneEv
Zoh:_Color__ctor_m286683560
hEl:_PatternCompiler_Emit_m1540115729
_sf:_ps_get_standard_strings
pqc:__Z27SetupBakedOcclusionForLightbRK15SharedLightDataR17ShaderPassContext
wVc:__ZNK25BlendshapePropertyBinding9BindValueER6ObjectRKN11UnityEngine9Animation14GenericBindingERNS3_10BoundCurveE
fV:__ZN24GenerateTypeTreeTransfer8TransferIN13AnimationClip9PPtrCurveEEEvRT_PKc17TransferMetaFlags
pYi:_EncoderFallbackException__ctor_m1051987327
Cme:__ZN5physx7NpScene14removeMaterialERNS_10NpMaterialE
X7d:__ZN5physx16PxsIslandManager24setEdgeArticulationJointERKNS_20PxsIslandManagerHookIjLj4294967295EEE
yAj:_Decimal_System_IConvertible_ToBoolean_m1123794670
WVe:__ZN5physx16PxsBroadPhaseMBP7destroyEv
Ege:__ZN5physx2Sc10NPhaseCore25addToDirtyInteractionListEPNS0_15CoreInteractionE
Q0k:__Z98RuntimeInvoker_Int32_t2950945753_RaycastResult_t3360306849_RaycastResult_t3360306849_RuntimeObjectPFvvEPK10MethodInfoPvPS4_
jqd:__ZN27ParticleSystemReadOnlyState5ResetEv
AXh:_Mask__ctor_m1269055150
zzg:__ZL99WaitHandle_t1743403487_CustomAttributesCacheGenerator_WaitHandle_t1743403487____Handle_PropertyInfoP21CustomAttributesCache
D7h:_WebRequest_AddPrefix_m3187775913
ikc:__Z18RenderImageFiltersR10RenderLoopb
JDf:__Z43CanvasRenderer_Get_Custom_PropMaterialCountP12Il2CppObject
zqc:__ZNSt3__227__insertion_sort_incompleteIR23CompareReflectionProbesP31RuntimeReflectionProbeBlendInfoEEbT0_S5_T_
Sjl:_List_1_Remove_m1457733883_gshared
ftj:_DateTime_IsLetter_m156019844
X3e:__ZN5physx2Cm12DelegateTaskINS_2Sc5SceneEXadL_ZNS3_19islandGenSecondPassEPNS_10PxBaseTaskEEEE11runInternalEv
ZT:__ZNSt3__26vectorIN13AnimationClip10FloatCurveE13stl_allocatorIS2_L18MemLabelIdentifier26ELi16EEE6assignINS_11__wrap_iterIPS2_EEEENS_9enable_ifIXaasr21__is_forward_iteratorIT_EE5valuesr16is_constructibleIS2_NS_15iterator_traitsISC_E9referenceEEE5valueEvE4typeESC_SC_
grd:__ZN15CollisionModule9ResetSeedERK27ParticleSystemReadOnlyState
FY:__ZN18StreamedBinaryReadILb0EE21TransferSTLStyleArrayI22OffsetPtrArrayTransferI9OffsetPtrIN7mecanim12statemachine18TransitionConstantEEEEEvRT_17TransferMetaFlags
nYb:__ZN18StreamedBinaryReadILb1EE21TransferSTLStyleArrayI13dynamic_arrayIdLj0EEEEvRT_17TransferMetaFlags
SNc:__ZN19RuntimeSceneManager32LoadSceneAsyncByNameOrBuildIndexERKN4core12basic_stringIcNS0_20StringStorageDefaultIcEEEEiNS_11LoadingModeEb
Wle:__ZN5physx6shdfnd4sortIPvNS0_4LessIS2_EENS0_19ReflectionAllocatorINS_10NpMaterialEEEEEvPT_jRKT0_RKT1_j
$Ei:_MD4Managed_Encode_m386285215
gxa:__ZN10InputEventD2Ev
o2c:__ZN24CompressedAnimationCurve18DecompressTimeKeysI11QuaternionfEEvR17AnimationCurveTplIT_E
dF:__ZN7mecanim4hand8HandPoseC2Ev
hOf:__ZN22UnityWebRequestManagerD2Ev
YJl:_Event_get_character_m1666742088
c4b:__Z20SetPlayerPauseDirect11PlayerPause
U$d:__ZN5physx3Cct15ObstacleContext13onOriginShiftERKNS_6PxVec3E
XSm:_isalpha
Rsj:_Convert_ToChar_m1442101407
JEe:__ZN5physx6shdfnd8PoolBaseINS_2Gu31SpherePersistentContactManifoldENS0_19ReflectionAllocatorIS3_EEE12allocateSlabEv
t8d:__ZN5physx6shdfnd5ArrayIPNS_2Sc7BodySimENS0_19ReflectionAllocatorIS4_EEE8recreateEj
Rvd:__Z25UpdateOrbitalAndRadialTplIL27ParticleSystemCurveEvalMode4ELS0_3ELS0_1EEvRK11MinMaxCurveS3_S3_S3_S3_S3_S3_R23ParticleSystemParticlesjjRKN4math8float3x3ERKNS6_7affineXERKNS6_7_float4E
OSc:__ZZL31RegisterRectTransformPropertiesR22GenericPropertyBindingEN28Wrapper_RectTransformPivoty113SetFloatValueEPvf
Szj:_DateTimeOffset_get_Offset_m2040541042_AdjustorThunk
Qem:__ZN6il2cpp2vmL17IsSocketAsyncCallEP14Il2CppDelegate
kqj:_Slot_t3975888750_marshal_pinvoke_back
Fsd:__ZNK13TriggerModule6UpdateERK24ParticleSystemUpdateDataR23ParticleSystemParticlesjRKf
rIm:__ZN6il2cpp2vm6String6NewLenEPKcj
aVh:_Selectable_get_image_m1928917691
N2b:__ZN17PersistentManager9AddStreamEv
Bl:_time
h_f:_ContentSizeFitter_set_verticalFit_m1831566876
EQi:_TripleDESCryptoServiceProvider_CreateDecryptor_m740960117
XYk:__Z122RuntimeInvoker_Void_t1185182177_Color_t2555686324_Single_t1397266774_SByte_t1669577662_SByte_t1669577662_SByte_t1669577662PFvvEPK10MethodInfoPvPS4_
f3d:__ZNK5physx2Sc8ShapeSim15getPxsRigidCoreEv
RBa:__ZN18SpriteAtlasManagerD2Ev
Nuh:_Material_EnableKeyword_m329692301
j4d:__ZN5physx2Sc20ContactStreamManager28fillInContactReportExtraDataEPNS_17PxContactPairPoseEjRKNS0_8RigidSimEb
Opf:_cf2_stack_free
tre:__ZN5physx7NpCloth23removeCollisionTriangleEj
APi:_SHA512Managed_HashCore_m2377807474
Wtd:__Z9UpdateTplIL27ParticleSystemCurveEvalMode4EEvRK11MinMaxCurveR23ParticleSystemParticlesPfRKN4math7_float4EjjRK8Vector2f
sdj:_CompareInfo_IndexOf_m667936183
lI:__ZN7mecanim9animation19EvaluateFloatValuesEPKNS0_18ClipMuscleConstantEPKNS_18ValueArrayConstantEPKNS0_12ClipBindingsEPKNS0_10ClipOutputEPNS0_18AnimationNodeStateEfbb
AQ:__ZN8Animator31ClearInternalControllerPlayableEv
pgc:__ZN26SinglePassStereoSupportExt18AfterSetViewMatrixEv
KSi:_SecurityContext_Capture_m1047743382
Gnh:_Bounds__ctor_m1937678907_AdjustorThunk
zDh:_SetupCoroutine_InvokeMember_m2661944898
U2j:_HashSet_1__ctor_m620629637_gshared
Eth:_Input_GetAxisRaw_m2316819917
ZRe:__ZNK5physx2Gu29EPASupportMapPairRelativeImplINS0_9TriangleVENS0_11ConvexHullVEE9doSupportERKNS_6shdfnd3aos5Vec3VERS7_SA_SA_
Bim:__ZN15dense_hashtableINSt3__24pairIK10KeyWrapperINS1_IPK9FieldInfoP11Il2CppClassEEEjEES9_17ReflectionMapHashIS8_EN14dense_hash_mapIS9_jSD_NS9_14EqualsComparerINS0_8equal_toIS8_EEEENS0_9allocatorISB_EEE9SelectKeyESI_SK_E4findERSA_
h5b:__ZN13LoadOperationC2E10MemLabelId
Nvb:__ZNK9Transform21GetLocalToWorldMatrixEv
bSh:_InputField_SendOnValueChanged_m2560301445
Lkc:__ZN13RenderTexture19SetAutoGenerateMipsEb
r2a:__Z20GetTextureFormatInfo13TextureFormat
GWc:__Z40InitializeLightAnimationBindingInterfacev
jGi:_RSAManaged_ToXmlString_m2369501989
$K:__ZN26AnimatorControllerPlayable8GetFloatEiRf
YAj:_Decimal_System_IConvertible_ToUInt64_m1323635232_AdjustorThunk
wig:_LogicalCallContext__ctor_m1263247987
bt:__ZN12NavMeshQueryD2Ev
kyj:_DateTime_System_IConvertible_ToSingle_m2193708681_AdjustorThunk
j0b:__ZNK35ScriptingManagedObjectProxyRegistry11InitProxiesEv
e4f:_Image_get_alphaHitTestMinimumThreshold_m2015654453
Zkg:__ZL64String_t_CustomAttributesCacheGenerator_String_Split_m3580120853P21CustomAttributesCache
rOm:__ZN6il2cpp5utils10MemoryPool6MallocEj
W3:__ZN11SoundHandle8InstanceD2Ev
$bg:_ResourceEnumerator_Reset_m3754276504
LAa:__ZN31CanvasBatchIntermediateRenderer13StaticDestroyEPv
LHe:__ZN5physx13NpVolumeCache13onOriginShiftERKNS_6PxVec3E
oIe:__ZNK5physx2Sc5Scene20getBroadPhaseRegionsEPNS_22PxBroadPhaseRegionInfoEjj
$ac:__ZNSt3__26__treeI17DeviceRasterState14MemoryCompLessIS1_ENS_9allocatorIS1_EEE25__emplace_unique_key_argsIS1_JS1_EEENS_4pairINS_15__tree_iteratorIS1_PNS_11__tree_nodeIS1_PvEEiEEbEERKT_DpOT0_
hEk:_UnityEvent_1_Invoke_m3400677460_gshared
e2m:_emscripten_glBindProgramARB__wrapper
P8k:_Array_InternalArray__set_Item_TisPlayerLoopSystem_t105772105_m93492520_gshared
ZBh:_RectTransform_set_pivot_m909387058
VLc:__Z41Register_UnityEngine_CullingGroup_Disposev
Gie:__ZN5physx14NpShapeManagerD2Ev
EEl:_PatternCompiler_EmitRepeat_m697083858
Kbb:__ZN7Cubemap23VirtualRedirectTransferER19StreamedBinaryWriteILb0EE
dhm:__ZN6il2cpp2vm7Runtime47RaiseExecutionEngineExceptionIfMethodIsNotFoundEPK10MethodInfoPK19Il2CppGenericMethod
jDb:__ZN25MultiBlocksMemoryFileData5WriteEyyPKv
Dbg:_ResourceReader_Read7BitEncodedInt_m3568166465
hSj:_BlockProcessor_Core_m2138791525
s$l:_CanvasGroup_set_alpha_m4032573
H1i:_Array_get_LongLength_m978104875
Ucc:__ZL17ProgramUniform2fvPK7ApiGLESjiihPKv
x2m:b83
Szd:__ZN24ParticleSystemUpdateDataC2EP14ParticleSystemPK27ParticleSystemReadOnlyStateP19ParticleSystemStatef
Vhe:__ZN5physx2Sc5Scene16removeConstraintERNS0_14ConstraintCoreE
fmf:__ZN20TextRenderingPrivate8FontImpl21HasCharacterInTextureEjijfPj
FFh:_Transform_SetAsFirstSibling_m253439912
tyj:_DateTime_System_IConvertible_ToUInt16_m4182197229_AdjustorThunk
Kdi:_Interval_get_IsDiscontiguous_m3016063288
Lxl:_SslStreamBase_get_CheckCertRevocationStatus_m2739906607
qUm:_htonl
vac:__Z20GetBufferManagerGLESv
U0l:_Animator_SetBool_m234840832
wCg:__ZL65NonSerializedAttribute_t2945079482_CustomAttributesCacheGeneratorP21CustomAttributesCache
Y_b:__ZN18StreamedBinaryReadILb0EE21TransferSTLStyleArrayI31ArrayOfManagedObjectsTransfererEEvRT_17TransferMetaFlags
GLe:__ZN5physx2Sc18ParticleSystemCore18addDeltaVelocitiesERKNS_2Cm10BitMapBaseINS_6shdfnd9AllocatorEEEPKNS_6PxVec3Ef
fGa:__ZL60__ManagedRegistrationHelperFunction_FailedToLoadScriptObjectPv
Whd:__Z18Transfer_BlittableI8JSONReadLb0EtEvRK29SerializationCommandArgumentsR31RuntimeSerializationCommandInfo
B0e:__ZN5physx6shdfnd8PoolBaseINS_2Sc16ActorElementPairENS0_19ReflectionAllocatorIS3_EEE12allocateSlabEv
AAd:__ZN18ColorBySpeedModuleD0Ev
kej:_CultureInfo_CreateCulture_m1493441763
uMf:__ZN22UnityAnalyticsSettings8TransferI24GenerateTypeTreeTransferEEvRT_
ene:__ZNK5physx9NpPhysics17getNbClothFabricsEv
NL:__ZN34AnimationStateMachineMixerPlayable13EndTransitionEv
Q2:__ZN12AudioManager21FixMasterGroupRoutingEv
Nkb:__ZNK19ShaderPropertySheet11HasPropertyERKN9ShaderLab16FastPropertyNameE
MYm:dynCall_viffffii
N$k:__Z81RuntimeInvoker_Boolean_t97287965_NavigationU26_t1807167253_Navigation_t3049316579PFvvEPK10MethodInfoPvPS4_
q4m:_emscripten_glUniform1fv__wrapper
$yb:__ZN2UI13RectTransform19SetAnchoredPositionERK8Vector2f
s3f:_GridLayoutGroup_SetLayoutHorizontal_m2838109254
kbf:__ZL10UpdateLinkjjjjPN5physx11AdjTriangleERKNS_17ADJACENCIESCREATEE
z$f:_Dropdown_RefreshShownValue_m2806045241
O6d:__ZN5physx2Sc16InteractionScene19registerInteractionEPNS0_11InteractionEb
eNb:__Z18Transfer_BlittableI14SafeBinaryReadLb1E4AABBEvRK29SerializationCommandArgumentsR31RuntimeSerializationCommandInfo
yTe:__ZN5physx19solveContactCoulombERKNS_23PxcSolverConstraintDescERNS_16PxcSolverContextE
rNm:_GC_set_no_dls
CZf:_ColorBlock_set_normalColor_m254595671_AdjustorThunk
Ajk:_UnauthorizedAccessException__ctor_m40101894
Ini:_InternalEnumerator_1_get_Current_m1007906068_gshared
Z3d:__ZNK5physx2Sc9ActorPair23createContactReportDataEv
yLa:__ZN9Scripting11UnityEngine7Color329InitProxyEv
JGf:__ZN11UnityEngine9Analytics15AnalyticsConfig12EventsConfig8TransferI8JSONReadEEvRT_
H8i:_SimpleEnumerator_Reset_m1520014659
Dba:__ZN9AudioClip7WWWOpenEPKciPjPPvS4_
Mfe:__ZN5physx18NpArticulationLink18setAngularVelocityERKNS_6PxVec3Eb
XMb:__Z18Transfer_BlittableI14SafeBinaryReadLb0E8Vector2fEvRK29SerializationCommandArgumentsR31RuntimeSerializationCommandInfo
TJi:_Context_set_ProtocolNegotiated_m2904861662
azm:__ZN15dense_hashtableINSt3__24pairIK10KeyWrapperINS1_IPKcS4_EEEiEES6_24NamespaceAndNamePairHashN14dense_hash_mapIS6_iS9_NS6_14EqualsComparerI26NamespaceAndNamePairEqualsEENS0_9allocatorIS8_EEE9SelectKeyESD_SF_E12resize_deltaEjj
AIh:_RemotingServices_GetRemoteObject_m2117098022
J$l:_CanvasRenderer_SetTexture_m1600559835
bmk:_Collection_1_System_Collections_IList_IndexOf_m4256072926_gshared
kRc:__Z53Register_UnityEngine_Input_INTERNAL_get_mousePositionv
nac:__ZN7ApiGLES12DrawElementsE16GfxPrimitiveTypePKvjjjj
KTj:_EncryptedPrivateKeyInfo_get_Salt_m3453455261
XRh:_InputField_get_shouldHideMobileInput_m2205078558
ktj:_DateTime__ParseNumber_m1240316250
tkd:__ZN8JSONRead21TransferSTLStyleArrayI13dynamic_arrayIfLj0EEEEvRT_17TransferMetaFlags
mOe:__ZN5physx6shdfnd8PoolBaseINS_2Sc19ShapeInstancePairLLENS0_19ReflectionAllocatorIS3_EEE15disposeElementsEv
WTi:_Single_System_IConvertible_ToSingle_m1939829239_AdjustorThunk
qhg:_LeaseManager__ctor_m4015084757
Lla:__GLOBAL__sub_I_Runtime_Utilities_6_cpp
Yji:_InternalEnumerator_1_get_Current_m3839250771_gshared
Bvh:_Mesh_Internal_Create_m2853543051
Odj:_CultureInfo_get_TextInfo_m2342840448
PRd:__ZN5physx2Gu14sweepTriSphereERKNS_10PxTriangleERKNS_6PxVec3ES6_fS6_Rf
HKj:_Array_InternalArray__IndexOf_TisMark_t3471605523_m2905388260_gshared
Fd:_SDL_GetTicks
_qd:__Z8EvaluateRK11MinMaxCurveRKN4math7_float4ES5_
xkm:__ZN15dense_hashtableINSt3__24pairIK10KeyWrapperINS1_IPK11Il2CppImageP11Il2CppClassEEEjEES9_17ReflectionMapHashIS8_EN14dense_hash_mapIS9_jSD_NS9_14EqualsComparerINS0_8equal_toIS8_EEEENS0_9allocatorISB_EEE9SelectKeyESI_SK_E6insertERKSB_
WN:__ZN8Animator24SortJobsBasedOnHierarchyERK13dynamic_arrayINS_11AnimatorJobELj0EERS0_IS2_Lj0EE
YE:__Z16AppendPathToHashRKN7mecanim5crc32EPKc
uuc:__Z21CreateShadowCullerJobP30CreateUmbraShadowCullerJobData
yre:__ZNK5physx7NpCloth21getNbVirtualParticlesEv
l3e:__ZN5physx17PxcNpMemBlockPool23releaseConstraintBlocksERNS_6shdfnd5ArrayIPNS_13PxcNpMemBlockENS1_19ReflectionAllocatorIS4_EEEE
juk:_ReadOnlyCollection_1_System_Collections_Generic_ICollectionU3CTU3E_Remove_m4072504734_gshared
Mcc:__ZL18ProgramUniform2uivPK7ApiGLESjiihPKv
lYf:_U3COnFinishSubmitU3Ec__Iterator0_MoveNext_m2729496168
S3m:_glUniform4iv__wrapper
crc:__Z33GenerateShadowCasterPartsSortDataRK16ShadowCasterDatajRK15RenderNodeQueueRKNSt3__26vectorI20ShadowCasterPartData13stl_allocatorIS7_L18MemLabelIdentifier2ELi16EEEERK10Matrix4x4fRjP20ShadowCasterSortData
Bic:__ZZ23InitPlayerLoopCallbacksvEN51PostLateUpdateTriggerEndOfFrameCallbacksRegistrator7ForwardEv
qek:_TimeSpan_Compare_m753151303
dQb:__Z29Transfer_Blittable_ArrayFieldI14SafeBinaryRead9BoundsIntEvRT_R9ArrayInfoRK23StaticTransferFieldInfo
I1e:__ZN5physx2Sc10NPhaseCore39addToPersistentContactEventPairsDelayedEPNS0_19ShapeInstancePairLLE
Hge:__ZN5physx2Sq17SceneQueryManager13markForUpdateEPNS0_10ActorShapeE
Vof:_cf2_computeDarkening
v0l:_AnimationLayerMixerPlayable__ctor_m860721801_AdjustorThunk
P9f:_MonoPropertyInfo_get_property_info_m1599555644
vPh:_DESTransform_CipherFunct_m3527261721
PKm:_GC_expand_hp_inner
hBm:__ZNK15dense_hashtableI10KeyWrapperIP18Il2CppGenericClassES3_N6il2cpp8metadata22Il2CppGenericClassHashEN14dense_hash_setIS3_S6_NS3_14EqualsComparerINS5_25Il2CppGenericClassCompareEEENSt3__29allocatorIS3_EEE8IdentityESA_SD_E12test_deletedEj
M8c:__Z25Screen_Get_Custom_PropDpiv
ash:_UnityEventBase_RebuildPersistentCallsIfNeeded_m216788690
RHm:__ZN4utf812find_invalidIPKcEET_S3_S3_
ES:__ZNK13AnimationClip8IsLegacyEv
cUh:_InputField_OnEndDrag_m4127187089
Iwk:_ReadOnlyCollection_1_System_Collections_IList_RemoveAt_m2555465054_gshared
kog:__ZL72RuntimeCompatibilityAttribute_t1169614002_CustomAttributesCacheGeneratorP21CustomAttributesCache
juc:__Z59ProcessShadowCasterNodeVisibilityAndCullWithoutUmbra_KernelILN17CullingParameters9LayerCullE2ELi8EEvR9IndexListRK22SceneCullingParametersPK9SceneNodePK4AABBjjPKN4math7_float4E
hCj:_StackFrame__ctor_m343464319
Eia:__ZN11UnityEngine15CloudWebService20WebRequestRestClient7PrepareEv
X8f:_MonoField_CheckGeneric_m453069507
Ulf:__ZN20TextRenderingPrivate19NativeTextGenerator23FixLineHorizontalOffsetEiii
Z_b:__Z19TransferField_ArrayI18StreamedBinaryReadILb0EE27Converter_UnityEngineObjectEvRK23StaticTransferFieldInfoR31RuntimeSerializationCommandInfoRT0_
uLh:_ObjectReader_ReadArrayOfString_m3550800559
qbh:_MonoCustomAttrs_GetCustomAttributesInternal_m648304078
dN:__ZN7mecanim9animation19DestroyAnimationSetEPNS0_12AnimationSetERNS_6memory9AllocatorE
mKa:__ZN9Scripting11UnityEngine12Experimental9Rendering16CameraProperties9InitProxyEv
tEb:__ZN16MemoryFileSystem4OpenER13FileEntryData14FilePermission16FileAutoBehavior
XW:__ZNK18AnimatorController28HasMultiThreadedStateMachineEv
ndj:_CompareInfo_GetSortKey_m1915852346
sxf:_ft_var_load_avar
wAa:__ZN13RuntimeStaticI13RendererSceneLb0EE13StaticDestroyEPv
rri:_DefaultComparer_Compare_m1297750557_gshared
qIi:_CipherSuiteCollection_get_Item_m3790183696
kTb:__Z18Transfer_BlittableI24GenerateTypeTreeTransferLb1E12PropertyNameEvRK29SerializationCommandArgumentsR31RuntimeSerializationCommandInfo
URl:_Toggle_OnEnable_m1421694809
DWc:__ZN5Light15InitializeClassEv
Orb:__ZN14SafeBinaryRead21TransferSTLStyleArrayI10vector_mapIPKN5Unity4TypeE7Hash128NSt3__24lessIS5_EENS7_9allocatorINS7_4pairIS5_S6_EEEEEEEvRT_17TransferMetaFlags
Cba:__ZN9AudioClip18GetQueuedAudioDataEPPvj
Pzf:__ZN20TextRenderingPrivate21TextMeshGeneratorImpl14GarbageCollectEv
cJc:__ZNK9Texture2D17CheckHasPixelDataEv
_Ub:__Z18Transfer_BlittableI19StreamedBinaryWriteILb0EELb0E9BoundsIntEvRK29SerializationCommandArgumentsR31RuntimeSerializationCommandInfo
wre:__ZNK5physx7NpCloth16getCollisionDataEPNS_22PxClothCollisionSphereEPjPNS_21PxClothCollisionPlaneES3_PNS_24PxClothCollisionTriangleE
Cmc:__Z18SetShadowsKeywordsR17ShaderPassContext9LightType10ShadowType16ShadowProjectionbb
w2f:_Graphic_GetPixelAdjustedRect_m3729397999
nom:__ZN14dense_hash_mapI10KeyWrapperINSt3__24pairIPK12PropertyInfoP11Il2CppClassEEEj17ReflectionMapHashIS8_ENS9_14EqualsComparerINS1_8equal_toIS8_EEEENS1_9allocatorINS2_IKS9_jEEEEEC2EjRKSB_RKSF_
PUc:__ZN17CollisionMeshDataC2Ev
$eg:_ConfigHandler_CheckPath_m3079311646
ROe:__ZN5physx2Sq11PruningPool11preallocateEj
qdg:_Marshal_Copy_m1222846562
EIc:__ZL24FindBelongingStructParamRPKcRNSt3__26vectorIN9ShaderLab20SerializedSubProgram14ConstantBufferENS2_9allocatorIS6_EEEE
_Rm:__GLOBAL__sub_I_Error_cpp
yCa:__ZN6prcoreL17RemapGenericFloatI18TexFormatRGBAFloat17TexFormatRGBAHalfEEvPKNS_9InnerInfoE
pac:__ZN7ApiGLES20SetVertexArrayAttribEjj12VertexFormathjPKv
ALm:_GC_push_next_marked
awj:_Convert_ToSByte_m2653811524
mwb:__ZN18IDCollectorFunctor18GenerateInstanceIDEi17TransferMetaFlags
bel:_GameObject_GetComponent_TisRuntimeObject_m2049753423_gshared
g_l:_TextGenerationSettings_Equals_m3618607189_AdjustorThunk
I4h:_NameObjectCollectionBase_BaseAdd_m3437748750
ghe:__ZN5physx2Sc17ParticleSystemSim15onRbShapeChangeERKNS0_19ParticlePacketShapeERKNS0_8ShapeSimE
Jfk:_Type_internal_from_handle_m3156085815
zam:__ZN15dense_hashtableINSt3__24pairIK10KeyWrapperIN6il2cpp5utils13dynamic_arrayIPK10Il2CppTypeLj4EEEEPFvvEEESA_NS3_8metadata19Il2CppSignatureHashEN14dense_hash_mapISA_SD_SG_NSA_14EqualsComparerINSF_22Il2CppSignatureCompareEEENS0_9allocatorISE_EEE9SelectKeyESK_SM_E12maybe_shrinkEv
pC:__ZN13ConstraintJob23ConstraintComponentDataC2ERK18PositionConstraint
jZf:_CanvasUpdateRegistry_SortLayoutList_m471948466
b4e:__ZN5physx27updateIslandsSecondPassMainEjRNS_2Cm10BitMapBaseINS_6shdfnd9AllocatorEEEPKjjRNS_11NodeManagerERNS_11EdgeManagerERNS_13IslandManagerERNS_23ArticulationRootManagerERNS_33ProcessSleepingIslandsComputeDataERNS_30IslandManagerUpdateWorkBuffersEPNS0_13EventProfilerE
ssk:_ReadOnlyCollection_1_System_Collections_Generic_ICollectionU3CTU3E_Add_m69722965_gshared
WQ:__ZN8Animator8TransferI19StreamedBinaryWriteILb0EEEEvRT_
nva:__ZNSt3__27__sort4IRNS_6__lessI14ObjectLoadDataS2_EEPS2_EEjT0_S6_S6_S6_T_
oIa:__ZN9Scripting11UnityEngine9Rendering18GraphicsDeviceType9InitProxyEv
U$c:__Z22PlayableValidityChecksRK9HPlayableb
tRg:__ZL57AnimationCurve_t3046754366_CustomAttributesCacheGeneratorP21CustomAttributesCache
jtb:__ZN15ResourceManagerD2Ev
sob:__Z22SkinVerticesGenericCPUILi2ELb1ELb1EEvPKhiiiiPhiPKvS4_
aOc:__Z41Register_UnityEngine_Camera_GetAllCamerasv
qrh:_InvokableCall__ctor_m2158562079
TFl:_Assertion__ctor_m2128950829
pMf:__ZN28PerformanceReportingSettings8TransferI14SafeBinaryReadEEvRT_
Fxb:__ZN15CacheWriterBase18GetAddressOfMemoryEv
cid:__Z18Transfer_BlittableI8JSONReadLb1E5RectTIiEEvRK29SerializationCommandArgumentsR31RuntimeSerializationCommandInfo
rme:__ZN5physx10NpMaterial17resolveReferencesERNS_24PxDeserializationContextE
Wum:__ZN6il2cpp2vm22EmbeddedResourceRecordC2ERKS1_
T5b:__ZL20DrawVBOChunkWithPassP6ShaderPN9ShaderLab4PassER17ShaderPassContextR10DynamicVBORK21DynamicVBOChunkHandle
jul:_Collection_1__ctor_m825528237_gshared
yim:__ZN6il2cpp2gc19AppendOnlyGCHashMapINSt3__24pairIPK9FieldInfoP11Il2CppClassEEP21Il2CppReflectionField17ReflectionMapHashIS9_ENS2_8equal_toIS9_EEE11TryGetValueERKS9_PSB_
Fbb:__ZN9Texture2D13AwakeFromLoadE17AwakeFromLoadMode
Y3a:__ZN4core8hash_mapIPK17RenderSurfaceBaseP13RenderTexture19PointerHashFunctionIS3_ENSt3__28equal_toIS3_EEE6insertERKS3_RKS5_
BHj:_SetPropertyUtility_SetStruct_TisColorBlock_t2139031574_m1748367426_gshared
_wh:_PlayerConnection_get_instance_m1750121257
CBm:__ZN6il2cpp2vm3RCW14QueryInterfaceILb0EEEP14Il2CppIUnknownP15Il2CppComObjectRK10Il2CppGuid
Sbl:_Dictionary_2_Do_CopyTo_TisRuntimeObject_TisRuntimeObject_m2341992100_gshared
mCl:_X509Store_get_Certificates_m56224934
LWh:_LayoutRebuilder__cctor_m2273545693
aCa:__ZN6prcoreL17RemapGenericFloatI15TexFormatRFloat18TexFormatARGBFloatEEvPKNS_9InnerInfoE
Wbk:_ExecutionContext_Capture_m681135907
lHi:_CipherSuite__ctor_m2440635082
lOi:_RSAPKCS1KeyExchangeFormatter_SetRSAKey_m1477802943
yld:__ZN12LightsModule20ResetUsedLightsCacheEv
vle:__ZN5physx7NpActor15removeConnectorERNS_7PxActorENS_15NpConnectorType4EnumEPNS_6PxBaseEPKc
iXe:__ZN5physx19ActorAABBUpdateTask11runInternalEv
YSc:__ZN13ProduceHelperI9TransformLb0EE7ProduceE10MemLabelId18ObjectCreationMode
pdg:_Marshal_copy_from_unmanaged_m2834266824
SEd:__Z19UpdateWholeSheetTplIL27ParticleSystemCurveEvalMode1EEvfRK11MinMaxCurveS3_RK23ParticleSystemParticlesPf
Eqc:__ZN20ReflectionProbeCacheC2ER13BatchRendererR15RenderLoopStats
UAh:_Rect_set_xMax_m1720695099_AdjustorThunk
DQk:__Z59RuntimeInvoker_Int32_t2950945753_DateTimeOffset_t3229287507PFvvEPK10MethodInfoPvPS4_
GAb:__ZNK12HandlerChain6ExistsERK13FileEntryData
Tgb:__ZN15SerializeTraitsI13dynamic_arrayI26EnlightenSystemInformationLj0EEE19ResizeSTLStyleArrayERS2_i
n4e:__ZN5physx10PxsContext28runModifiableContactManagersEv
O1c:__ZNSt3__26vectorIj13stl_allocatorIjL18MemLabelIdentifier1ELi16EEE6assignIPKjEENS_9enable_ifIXaasr21__is_forward_iteratorIT_EE5valuesr16is_constructibleIjNS_15iterator_traitsIS9_E9referenceEEE5valueEvE4typeES9_S9_
gqb:__ZN12InputManager23VirtualRedirectTransferER24GenerateTypeTreeTransfer
jzb:__ZN9Transform23VirtualRedirectTransferER24GenerateTypeTreeTransfer
G0e:__ZN5physx21PxsBodyTransformVault7addBodyERKNS_11PxsBodyCoreE
rcd:__ZN12GUIClipState10BeginOnGUIER10InputEvent
Fod:__ZN18ColorBySpeedModule8TransferI17RemapPPtrTransferEEvRT_
gSk:__Z87RuntimeInvoker_RuntimeObject_Byte_t1134296376_RuntimeObject_RuntimeObject_RuntimeObjectPFvvEPK10MethodInfoPvPS4_
WIi:_HandshakeMessage_Process_m810828609
Pvf:_UNITY_tt_size_ready_bytecode
Fkf:__ZN13TextRendering4FontD2Ev
Jnf:_UNITY_FT_Stream_Open
GAk:__ZN28GenericInterfaceFuncInvoker1Ib20UIVertex_t4057497605E6InvokeEPK10MethodInfoP12Il2CppObjectS0_
Ond:__ZN10SizeModule8TransferI24GenerateTypeTreeTransferEEvRT_
nUb:__Z29Transfer_Blittable_ArrayFieldI24GenerateTypeTreeTransfer9BoundsIntEvRT_R9ArrayInfoRK23StaticTransferFieldInfo
ODb:__ZN10MemoryFile4ReadEyyPvPy
Byd:__Z9StartConeILN11ShapeModule14MultiModeValueE3EEvRS0_R23ParticleSystemParticlesRK19ParticleSystemStateRK27ParticleSystemEmissionStateRKN4math8float3x3ERKNSB_7affineXEjbj
NZa:__ZN8keywords18KeywordSetToStringERK16ShaderKeywordSetRN4core12basic_stringIcNS3_20StringStorageDefaultIcEEEE
Tkh:_GenericTypeParameterBuilder_GetGenericArguments_m2988765390
Q7b:__ZN13GfxDeviceGLES26UpdateViewProjectionMatrixEv
_Mk:__Z77RuntimeInvoker_Void_t1185182177_Int64_t3736567304_ResourceInfoU26_t1611441338PFvvEPK10MethodInfoPvPS4_
Nwc:__Z24LookRotationToQuaternionRK8Vector3fS1_P11Quaternionf
F7j:_List_1_CheckCollection_m1717250693_gshared
LId:__GLOBAL__sub_I_artifacts_WebGL_codegenerator_0_cpp_4204
M1k:__Z53RuntimeInvoker_Int32_t2950945753_Keyframe_t4206410242PFvvEPK10MethodInfoPvPS4_
UWc:__ZZL23RegisterLightPropertiesR22GenericPropertyBindingEN22Wrapper_LightIntensity13SetFloatValueEPvf
k2:__ZN4FMOD3DSP12setParameterEif
n3b:__ZN13MemoryManager16StaticInitializeEv
Qdj:_CultureInfo_Equals_m1360976324
eH:__ZN21AnimationClipPlayable16ProcessHumanPassEPK35AnimationPlayableEvaluationConstantPK32AnimationPlayableEvaluationInputP33AnimationPlayableEvaluationOutput
GNg:__ZL69PersistentCall_t3407714124_CustomAttributesCacheGenerator_m_CallStateP21CustomAttributesCache
M4:__ZN4FMOD22FakeModChannelCallbackEPv
wKa:__ZN9Scripting11UnityEngine12Experimental10PlayerLoop14PostLateUpdate9InitProxyEv
Sf:_emscripten_glValidateProgram
GXa:__ZN4Mesh10CreateMeshEv
UTe:__ZN5physx36solveContactPreBlock_WriteBackStaticEPKNS_23PxcSolverConstraintDescEjRNS_16PxcSolverContextEPNS_25PxcThresholdStreamElementEjPi
Qbk:_NativeEventCalls_ResetEvent_internal_m885886540
$1c:__ZN17CollisionMeshData21GetSharedNxConvexMeshER4Mesh
Vyj:_DateTime_CompareTo_m3889078633
wpf:_cf2_stack_clear
XXm:dynCall_viiiiiiiiiiiiiiiiiiiiiiiiiiiiiiiiii
ydh:_NumberFormatter_set_CurrentCulture_m1358228087
sxm:__ZN6il2cpp6icalls8mscorlib6System4Type27get_IsGenericTypeDefinitionEP20Il2CppReflectionType
Cwc:__ZN7Texture13SetAnisoLevelEi
Rga:__ZNSt3__26__treeINS_12__value_typeIN4core12basic_stringIcNS2_20StringStorageDefaultIcEEEEjEENS_19__map_value_compareIS6_S7_NS_4lessIS6_EELb1EEE13stl_allocatorIS7_L18MemLabelIdentifier88ELi16EEE7destroyEPNS_11__tree_nodeIS7_PvEE
cKb:__ZN19EndOfFrameCallbacks7EnqueueEP18EndOfFrameCallbackb
Yth:_Input_set_compositionCursorPos_m1909373301
shb:__ZN15SerializeTraitsI13dynamic_arrayI31EnlightenSystemAtlasInformationLj0EEE8TransferI19StreamedBinaryWriteILb0EEEEvRS2_RT_
NHd:__ZN27PerformanceReportingManager23VirtualRedirectTransferER24GenerateTypeTreeTransfer
qnf:_raccess_guess_vfat
POk:__Z78RuntimeInvoker_IntPtr_t_SByte_t1669577662_RuntimeObject_BooleanU26_t4125257963PFvvEPK10MethodInfoPvPS4_
AWd:__ZL28GeomMTDCallback_SphereSphereRN5physx6PxVec3ERfRKNS_10PxGeometryERKNS_11PxTransformES5_S8_
xBj:_Decimal_decimalSetExponent_m3707787243
Sod:__ZN13InitialModule8TransferI18StreamedBinaryReadILb0EEEEvRT_
DLf:__ZN28UnityConnectScriptingClasses35RemoteSettingsBeforeFetchFromServerEP21ScriptingExceptionPtr
rGe:__ZN5physx7NpScene26setSimulationEventCallbackEPNS_25PxSimulationEventCallbackEh
aym:__ZN14dense_hash_mapI10KeyWrapperIP14Il2CppIUnknownEjN6il2cpp5utils11PointerHashIS1_EENS3_14EqualsComparerINSt3__28equal_toIS2_EEEENS9_9allocatorINS9_4pairIKS3_jEEEEE13set_empty_keyERSF_
dKb:__ZN15dense_hashtableINSt3__24pairIK9TextureIDiEES2_14GfxGenericHashIS2_EN14GfxDoubleCacheIS2_iS6_NS0_8equal_toIS2_EEN31GfxDoubleCacheConcurrencyPolicy11LocklessGetE42GfxDoubleCacheDefaultEmptyDeletedGeneratorIS2_EE9SelectKeyES9_13stl_allocatorIS4_L18MemLabelIdentifier24ELi16EEE12resize_deltaEjj
sVa:__Z21DestroyShadowMapCacheP14ShadowMapCache
e1c:__Z21CountTrianglesInStripItEjPKT_j
odl:_Array_InternalArray__get_Item_TisLabelFixup_t858502054_m3276643490_gshared
Exc:__Z20RequiredComponentsOf17ScriptingClassPtr
Ywm:__ZN6il2cpp2vm13LivenessState5ResetEv
W2d:__ZN5physx6shdfnd4sortIPvNS0_4LessIS2_EENS0_19ReflectionAllocatorINS_2Sc16ActorElementPairEEEEEvPT_jRKT0_RKT1_j
ked:__ZN9JSONWrite8TransferI11KeyframeTplIfEEEvRT_PKc17TransferMetaFlags
lwc:__ZN22RenderingCommandBuffer23CleanupTemporaryRTArrayER13dynamic_arrayINSt3__24pairIN9ShaderLab16FastPropertyNameEP13RenderTextureEELj0EE
Tqj:_SortedList_GetImpl_m3689246167
pbf:__ZN5physx2Gu15EdgeListBuilder18ComputeActiveEdgesEjPKjPKtPKNS_6PxVec3Ef
uJb:__ZN24BuiltinShaderParamValuesC2Ev
Aed:__ZL41CreateJSONTransferFunctionScriptingTraitsv
fDc:__ZN6Shader23VirtualRedirectTransferER14SafeBinaryRead
LEe:__ZN5physx17PxsContactManagerC2EPNS_10PxsContextEj
AHh:_WaitForSecondsRealtime_get_keepWaiting_m846832224
B1b:__Z23GetLateBehaviourManagerv
NLk:__Z33RuntimeInvoker_Single_t1397266774PFvvEPK10MethodInfoPvPS4_
SKd:__ZN5physx6shdfnd5ArrayIPNS_7PxShapeENS0_15InlineAllocatorILj64ENS0_19ReflectionAllocatorIS3_EEEEE6resizeEjRKS3_
Lta:__ZN10MemoryPool10DeallocateEPv
ZVk:__Z80RuntimeInvoker_Void_t1185182177_ScriptableRenderContext_t274343796_RuntimeObjectPFvvEPK10MethodInfoPvPS4_
Tfd:__ZL17Transfer_GUIStyleI9JSONWriteLb1EEvRK29SerializationCommandArgumentsR31RuntimeSerializationCommandInfo
pEf:__Z57Register_UnityEngine_CanvasRenderer_set_hasPopInstructionv
BMa:__ZN9Scripting5Unity11Collections8LowLevel6Unsafe43NativeSetClassTypeToNullOnScheduleAttribute12CleanupProxyEv
eSe:__ZN5physx2Gu22gjkRelativePenetrationINS0_9TriangleVENS0_10ShrunkBoxVEEEjRKT_RKT0_RKNS_6shdfnd3aos15PsMatTransformVERKNSB_6FloatVERNSB_5Vec3VESJ_SJ_RSF_PhSL_Rh
BYm:dynCall_vif
Eub:__ZN18LoadSceneOperation22CompleteLoadFirstSceneEv
cwj:_Convert_ToSByte_m4075629912
EYm:dynCall_vii
gTj:_KeyPairPersistence_FromXml_m746585742
EXi:_Decoder__ctor_m4046021500
N_b:__Z18Transfer_BlittableI18StreamedBinaryReadILb0EELb0EdEvRK29SerializationCommandArgumentsR31RuntimeSerializationCommandInfo
aEk:_UnityEvent_1_Invoke_m2734859485_gshared
mYf:_ColorBlock_get_fadeDuration_m121071467
Jfm:__ZN6il2cpp6icalls8mscorlib6System8MonoType18GetFields_internalEP20Il2CppReflectionTypeiS5_
YMa:__ZN5Unity9Component16CheckConsistencyEv
G9f:_MonoMethod_get_ContainsGenericParameters_m3860345224
$5i:_Char_System_IConvertible_ToInt64_m1630543716_AdjustorThunk
fXa:__ZN19ShaderPropertySheet37CreateTextureAuxPropertyUninitializedEN9ShaderLab16FastPropertyNameES1_PKc
CVb:__ZL26Transfer_SimpleNativeClassI19StreamedBinaryWriteILb0EE10RectOffsetLb1EEvRK29SerializationCommandArgumentsR31RuntimeSerializationCommandInfo
dYe:__ZN5physx20PxcContactCapsuleBoxERKNS_2Gu13GeometryUnionES3_RKNS_11PxTransformES6_RKfRNS_10PxcNpCacheERNS0_13ContactBufferE
C6m:b128
hjm:__ZN15dense_hashtableINSt3__24pairIK10KeyWrapperIPK10Il2CppTypeEjEES6_N6il2cpp8metadata14Il2CppTypeHashEN14dense_hash_mapIS6_jSB_NS6_14EqualsComparerINSA_26Il2CppTypeEqualityComparerEEENS0_9allocatorIS8_EEE9SelectKeyESF_SH_E3endEv
j9b:__ZN13GfxDeviceGLES17SetGpuProgramNameEP10GpuProgramPKc
Ria:__ZNK11UnityEngine15CloudWebService25WebRequestDownloadHandler11GetProgressEv
kci:_CategoryUtils_CategoryFromName_m1352081402
QLj:_Array_InternalArray__ICollection_Add_TisMonoResource_t4103430009_m2699164149_gshared
Xcm:__ZN6il2cpp2vm13MetadataCache28GetMethodDefinitionFromIndexEi
NGm:__ZN6il2cpp2os20FileErrnoToErrorCodeEi
n7a:__ZN14SafeBinaryRead19TransferSTLStyleMapINSt3__23mapI39DeprecatedFastPropertyNameSerialization10ColorRGBAfNS1_4lessIS3_EENS1_9allocatorINS1_4pairIKS3_S4_EEEEEEEEvRT_17TransferMetaFlags
duj:_Decimal_ThrowAtPos_m1170269346
Bh:_atexit
s1h:_Selectable_set_image_m3625164794
aoi:_InternalEnumerator_1_get_Current_m1232221964_gshared
_md:__ZN25IParticleSystemProperties8PropertyIiNS_5ClampILi0ELi2EEEE8TransferI14SafeBinaryReadEEvRT_PKc
Svk:_ReadOnlyCollection_1_System_Collections_Generic_IListU3CTU3E_Insert_m1818924748_gshared
pmm:__ZN6il2cpp2vmL31GetObjectForMissingDefaultValueEj
e$d:__ZN5physx3Cct17CapsuleController6resizeEf
HXf:_AspectRatioFitter__ctor_m2468506840
E9b:__ZN13GfxDeviceGLES22UpdateComputeResourcesERK22ComputeShaderResources
G7d:__ZN5physx6shdfnd8PoolBaseINS_2Cm5BlockIhLj384EEENS0_19ReflectionAllocatorIS4_EEE12allocateSlabEv
bRe:__Z13sweepAABBAABBRKN5physx6PxVec3ES2_S2_S2_S2_S2_
uuj:_Decimal_op_Implicit_m3873897383
BJf:__ZN11UnityEngine15PlatformWrapper30GetVRPlayAreaBoundaryDimensionEv
eal:_Array_Sort_TisBoolean_t97287965_TisBoolean_t97287965_m2753381653_gshared
xBl:_X509Certificate_get_Hash_m410033711
GFc:__ZN9ShaderLab14SerializedPassC2ERKS0_
Jed:__Z35Transfer_Blittable_FixedBufferFieldI9JSONWritehEvRK29SerializationCommandArgumentsR31RuntimeSerializationCommandInfo
lne:__ZN5physx9NpPhysics20createParticleSystemEjb
l:STACKTOP
wrf:_cff_get_name_index
Pbf:__ZN5physx17ConvexHullBuilder14CreateEdgeListEv
nEa:__ZN6prcoreL12RemapGenericI13TexFormatRG8817TexFormatARGB8888EEvPKNS_9InnerInfoE
Ova:__ZN17TransformInternal27UpdateDeepChildCountUpwardsER18TransformHierarchyii
CTi:_Single_System_IConvertible_ToBoolean_m1716619219_AdjustorThunk
qRf:__ZN9Scripting11UnityEngine12Experimental2XR12BoundedPlane9InitProxyEv
VTf:_ExecuteEvents_Execute_m3613826831
PRe:__ZN5physxL24PxcSweepCapsuleTrianglesERKNS_11PxsCCDShapeES2_RKNS_11PxTransformES5_S5_S5_fRNS_6PxVec3ES7_RNS_10PxcNpCacheERNS_18PxcNpThreadContextERKNS_2Cm23FastVertex2ShapeScalingERNS_2Gu9TriangleVEf
o$f:_Image_set_type_m2038193736
A:tempBigIntD
Zvc:__ZNK25CameraStackRenderingState25CalculateCameraTargetTypeEv
z:tempBigIntI
iU:__ZN14SafeBinaryRead21TransferSTLStyleArrayI13dynamic_arrayI11KeyframeTplI8Vector3fELj0EEEEvRT_17TransferMetaFlags
y:tempBigIntR
x:tempBigIntS
w:tempBigIntP
$n:FUNCTION_TABLE_viffi
Wmf:_open_face_PS_from_sfnt_stream
rva:__ZN6Object18RegisterInstanceIDEPS_
RSb:__Z18Transfer_BlittableI24GenerateTypeTreeTransferLb1EsEvRK29SerializationCommandArgumentsR31RuntimeSerializationCommandInfo
TCm:__ZN15dense_hashtableINSt3__24pairIK10KeyWrapperIP12Il2CppObjectEN6il2cpp2gc9CachedCCWEEES5_NS7_5utils11PointerHashIS3_EEN14dense_hash_mapIS5_S9_SD_NS5_14EqualsComparerINS0_8equal_toIS4_EEEENS0_9allocatorISA_EEE9SelectKeyESI_SK_E11set_deletedER30dense_hashtable_const_iteratorISA_S5_SD_SM_SI_SK_E
VFb:__ZNK9GfxDevice18GetWorldViewMatrixEv
d_k:__Z70RuntimeInvoker_Single_t1397266774_Single_t1397266774_Int32_t2950945753PFvvEPK10MethodInfoPvPS4_
WQi:_X509Certificate_GetPublicKey_m4184729161
DTe:__ZN5physx34solveContactCoulombPreBlock_StaticEPKNS_23PxcSolverConstraintDescEjRNS_16PxcSolverContextE
SYc:__ZZL31RegisterOtherRendererPropertiesR22GenericPropertyBindingEN28Wrapper_RendererSortingOrder13SetFloatValueEPvf
Iwj:_Convert_ToUInt16_m3902921832
cgh:_Assembly_GetTypes_m1724781913
wrg:__ZL54TypeBuilder_t1073948154_CustomAttributesCacheGeneratorP21CustomAttributesCache
Iak:_UTF7Encoding_GetByteCount_m3616172568
FHd:__ZN15ParticlesModule18SyncSimulationJobsEv
h_e:__ZN5physx2Gu18pcmContactPlaneBoxERKNS0_13GeometryUnionES3_RKNS_11PxTransformES6_RKfRNS0_5CacheERNS0_13ContactBufferE
n8j:_List_1_AddEnumerable_m376418521_gshared
lSk:__Z79RuntimeInvoker_Void_t1185182177_Byte_t1134296376_Byte_t1134296376_RuntimeObjectPFvvEPK10MethodInfoPvPS4_
cam:__ZNSt3__218__insertion_sort_3IRN6il2cpp5utils11collections13ArrayValueMapIPK10Il2CppType17Il2CppInteropData26InteropDataToTypeConverterNS1_8metadata14Il2CppTypeLessENSA_26Il2CppTypeEqualityComparerEE12SortComparerEPS8_EEvT0_SH_T_
Ige:__ZN5physx6shdfnd5ArrayIPNS_2Sq10ActorShapeENS0_19ReflectionAllocatorIS4_EEE15growAndPushBackERKS4_
ZFb:__ZNK9GfxDevice25GetDeviceProjectionMatrixEv
uNl:_AesTransform_Decrypt128_m3018534522
MFc:__ZNSt3__26__treeINS_12__value_typeI11ShaderTagIDS2_EENS_19__map_value_compareIS2_S3_NS_4lessIS2_EELb1EEENS_9allocatorIS3_EEE14__assign_multiINS_21__tree_const_iteratorIS3_PNS_11__tree_nodeIS3_PvEEiEEEEvT_SI_
ra:invoke_iidiii
AEd:__Z4SortRK10Matrix4x4fS1_R23ParticleSystemParticles22ParticleSystemSortModeR31ParticleSystemParticlesTempData
Eca:__ZN12AudioManager33GetCurrentAmbisonicDefinitionNameE31UnityAudioEffectDefinitionFlags
c4c:__ZN11UTF16StringC2EPKc10MemLabelId
BQd:__ZL13midPhaseQueryRKN5physx22PxTriangleMeshGeometryERKNS_11PxTransformERNS_2Gu3BoxERNS6_9ContainerE
tmj:_MonoIO_DeleteFile_m3839141322
cga:__ZN5physx14PxLightCpuTask15removeReferenceEv
Y6j:_List_1__ctor_m1728025230_gshared
GAf:__ZN9Scripting11UnityEngine6Canvas12CleanupProxyEv
ozd:__ZN23ParticleSystemParticles17SetUses3DRotationEv
cpa:__ZN13RuntimeStaticI13ModuleManagerLb0EE13StaticDestroyEPv
aFm:__ZN6il2cpp6icalls8mscorlib6System6String22RedirectToCreateStringEv
jrg:__ZL99ILGenerator_t1388622344_CustomAttributesCacheGenerator_ILGenerator_Mono_GetCurrentOffset_m993338688P21CustomAttributesCache
u3f:_GridLayoutGroup_SetLayoutVertical_m2106427802
Iud:__ZNK11NoiseModule14CalculateNoiseILi2ELb0ELb1EEEvR23ParticleSystemParticlesRK27ParticleSystemReadOnlyStatejjRKN4math7_float4E
n2e:__ZN5physx6shdfnd5ArrayINS_24PxsConstraintBatchHeaderENS0_19ReflectionAllocatorIS2_EEE8recreateEj
wu:__ZNSt3__26vectorI14HeightMeshData13stl_allocatorIS1_L18MemLabelIdentifier77ELi16EEE6assignINS_11__wrap_iterIPS1_EEEENS_9enable_ifIXaasr21__is_forward_iteratorIT_EE5valuesr16is_constructibleIS1_NS_15iterator_traitsISB_E9referenceEEE5valueEvE4typeESB_SB_
v4c:__ZN9Scripting20CreateUnityExceptionEPKcz
qXa:__ZN9ShaderLab6TexEnvC2ERKNS_25SerializedTexturePropertyE
DUh:_InputField_Append_m687033660
_Ra:__ZN9Transform32SetLocalScaleWithoutNotificationERKN4math7_float3Ey
m6a:__ZN19ShaderPropertySheet38CopyTextureWithAuxiliaryPropertiesFromERKN9ShaderLab16FastPropertyNameERKS_
Slf:__ZN20TextRenderingPrivate19NativeTextGeneratorD2Ev
Aem:__ZN6il2cpp2vm19SocketPollingThread14DequeueRequestEv
$gl:_List_1_CheckIndex_m2109147658_gshared
KEm:__ZL10RevealLinkPv
Nxj:_DateTime__ctor_m12900168_AdjustorThunk
c4d:__ZN5physx6shdfnd8PoolBaseINS_2Sc26ActorPairContactReportDataENS0_19ReflectionAllocatorIS3_EEE12allocateSlabEv
ts:__ZNK12NavMeshQuery16MoveAlongSurfaceEyRK8Vector3fS2_PK11QueryFilterPS0_PyPii
Cvd:__Z25UpdateOrbitalAndRadialTplIL27ParticleSystemCurveEvalMode4ELS0_4ELS0_1EEvRK11MinMaxCurveS3_S3_S3_S3_S3_S3_R23ParticleSystemParticlesjjRKN4math8float3x3ERKNS6_7affineXERKNS6_7_float4E
fj:___cxa_end_catch
qQi:_ToBase64Transform_TransformBlock_m2497349397
Knb:__ZN19SkinnedMeshRenderer23RendererBecameInvisibleEv
Z4h:_NameValueCollection_Add_m2418530856
Sjg:_ReturnMessage_get_MethodSignature_m399735125
iGe:__ZN5physx7NpScene12createClientEv
YCf:__Z43Register_UnityEngine_Canvas_set_scaleFactorv
WOj:_SortKeyBuffer_AppendLevel5_m3963841125
$Hl:_PositionAssertion_Compile_m2500980346
k8i:_ArrayListWrapper_ToArray_m3192696690
rnf:_raccess_guess_linux_cap
$ca:__Z36AudioSource_Get_Custom_PropIsPlayingP12Il2CppObject
nC:__ZN13ConstraintJob23ConstraintComponentDataC2ERK18RotationConstraint
A9c:__ZL48__ManagedRegistrationHelperFunction_StylePainterPv
x3i:_Attribute_GetCustomAttribute_m4034845276
X2a:__ZN5Light8TransferI24GenerateTypeTreeTransferEEvRT_
aYd:__ZN26ContactCapsuleMeshCallback10processHitERKN5physx12PxRaycastHitERKNS0_6PxVec3ES6_S6_RfPKj
Ppa:__Z33InitializeBuiltinShaderParamNamesv
igk:_Type_GetConstructor_m2219014380
bjf:__ZN13PhysicsModule24CapsuleColliderSetHeightER15CapsuleColliderf
eae:__ZN5physx6shdfnd5ArrayINS_19PxHeightFieldSampleENS0_19ReflectionAllocatorIS2_EEE6resizeEjRKS2_
RWe:__ZN5physx14PxsAABBManager25removeAggregateSinglePairEjPNS_9AggregateEPNS_2Cm10BitMapBaseINS_6shdfnd9AllocatorEEE
yNa:__ZNK16TypeTreeIterator4TypeEv
mZm:dynCall_vd
lhc:__ZN10FileSystem25MountDataFolderFileSystemERKN4core12basic_stringIcNS0_20StringStorageDefaultIcEEEES6_
zZi:_ArgumentOutOfRangeException__ctor_m282481429
yKl:_GUILayoutUtility_Internal_MoveWindow_m3463958180
Qj:_glGetUniformLocation
z8b:__ZN13GfxDeviceGLES32CreateColorRenderSurfacePlatformEP17RenderSurfaceBase19RenderTextureFormat
mkc:__ZN22RenderingCommandBuffer20ExecuteCommandBufferER17ShaderPassContextR15RenderNodeQueuejP13dynamic_arrayINSt3__24pairIN9ShaderLab16FastPropertyNameEP13RenderTextureEELj0EE16ComputeQueueTypeSA_
tba:__ZN12AudioManager24CreateFMODSoundFromMovieEP9AudioClip
KHi:_CipherSuite_createEncryptionCipher_m2533565116
iDe:__ZN5physx2Sc10NPhaseCore9visualizeERNS_2Cm12RenderOutputE
I9e:__ZN5physx2Gu12TriangleMesh15exportExtraDataERNS_22PxSerializationContextE
Wbm:__ZN6il2cpp2vm13MetadataCache24GetGenericInstanceMethodEPK10MethodInfoPK20Il2CppGenericContext
ZKm:_GC_hblk_fl_from_blocks
N8f:_MonoField_GetParentType_m2478933781
Hua:__Z24ConvertSeparatorsToUnityPc
Hlm:__ZN6il2cpp2gc19AppendOnlyGCHashMapINSt3__24pairIPK9EventInfoP11Il2CppClassEEP21Il2CppReflectionEvent17ReflectionMapHashIS9_ENS2_8equal_toIS9_EEE3AddERKS9_SB_
jsl:_Collection_1_System_Collections_ICollection_CopyTo_m46221116_gshared
hsm:__ZN6il2cpp2vm6Thread20FreeThreadStaticDataEP12Il2CppThread
_Jj:_Array_InternalArray__IndexOf_TisClientCertificateType_t1004704908_m3457772631_gshared
MFk:__Z28RuntimeInvoker_RuntimeObjectPFvvEPK10MethodInfoPvPS4_
Tqd:__ZN11ForceModule13AwakeFromLoadEP14ParticleSystemRK27ParticleSystemReadOnlyState
tyd:__ZN11ShapeModule20EmitterStoreMeshDataI10ColorRGBAfEEvRK27ParticleSystemReadOnlyStateRK19ParticleSystemStateR23ParticleSystemParticlesRKN4math8float3x3ERKNSA_7affineXEjb
b9d:__ZN5physx2Sc8BodyCore17setupSimStateDataEPNS_6shdfnd4PoolINS0_12SimStateDataENS2_19ReflectionAllocatorIS4_EEEEbb
wNc:__Z41Register_UnityEngine_RectOffset_set_rightv
KXf:_AspectRatioFitter_UpdateRect_m1081360677
Mpf:_cf2_glyphpath_finalize
zxg:__ZL56SecurityAction_t569814076_CustomAttributesCacheGeneratorP21CustomAttributesCache
