Vc:_glClearStencil
Ngk:_UInt16_System_IConvertible_ToChar_m2096055221_AdjustorThunk
oYh:_MaskableGraphic_OnCanvasHierarchyChanged_m1780820310
gHj:_Array_TrueForAll_TisRuntimeObject_m1084992726_gshared
iRd:__ZN5physx2Gu19gjkLocalPenetrationINS0_8CapsuleVENS0_17ShrunkConvexHullVEEEjRKT_RKT0_RKNS_6shdfnd3aos6FloatVERNSB_5Vec3VESG_SG_RSC_PhSI_Rhb
$he:__ZN5physx2Sc27ConstraintProjectionManager29removeFromPendingGroupUpdatesERNS0_13ConstraintSimE
hZg:__ZL95CanvasRenderer_t2598313366_CustomAttributesCacheGenerator_CanvasRenderer_SetMaterial_m824577244P21CustomAttributesCache
IDm:__ZN6il2cpp2vm5Array13GetByteLengthEP11Il2CppArray
j8k:_Array_InternalArray__set_Item_TisDateTime_t3738529785_m1331437427_gshared
C1k:__Z57RuntimeInvoker_Int32_t2950945753_ResourceInfo_t2872965302PFvvEPK10MethodInfoPvPS4_
xMl:_KeyBuilder_get_Rng_m3373220441
ycg:_CompilerGeneratedAttribute__ctor_m3151881902
dOf:__ZN15DownloadHandler7OnAbortEv
f6k:__Z37RuntimeInvoker_Enumerator_t1666852615PFvvEPK10MethodInfoPvPS4_
C5e:__ZN5physx15PxsCCDSweepTaskD0Ev
vTa:__Z30GetIntermediateRendererManagerv
jzk:_U3CCreateWhereIteratorU3Ec__Iterator1D_1_System_Collections_Generic_IEnumeratorU3CTSourceU3E_get_Current_m1909387290_gshared
jX:__ZN10StateRange8TransferI14SafeBinaryReadEEvRT_
$cb:__Z21SourceMipLevelForBlitiiii
AZa:__ZN31CanvasBatchIntermediateRenderer15AddAsRenderNodeER15RenderNodeQueueRK20DeprecatedSourceData
$dk:_TimeSpan_get_Hours_m550761902
fWg:__ZL72GUISkin_t1244372282_CustomAttributesCacheGenerator_m_verticalSliderThumbP21CustomAttributesCache
QHc:__ZN9ShaderLab9SubShader15FindNamedPassesERKN4core12basic_stringIcNS1_20StringStorageDefaultIcEEEER13dynamic_arrayIPNS_4PassELj0EE
_bi:_Capture_get_Index_m745081289
EOg:__ZL63PlayableOutputHandle_t4208053793_CustomAttributesCacheGeneratorP21CustomAttributesCache
zja:__ZN11UnityEngine15CloudWebService26CloudServiceEventWithParam12ToJsonStringER9JSONWrite
IYf:_CanvasScaler_get_defaultSpriteDPI_m871626936
NJf:__ZN11UnityEngine7Connect14AppUpdateEventD0Ev
wOc:__Z59Register_UnityEngine_PlayerConnectionInternal_DisconnectAllv
$mg:__ZL66RuntimeArray_CustomAttributesCacheGenerator_Array_Sort_m3287581440P21CustomAttributesCache
VPl:_AnalyticsEventTracker_SendEvent_m1365958832
$Le:__ZNK5physx2Sc5Scene24getContactModifyCallbackEv
jna:__ZdlPv
FC:__ZN11UnityEngine9Animation28GenericAnimationBindingCacheD2Ev
gPe:__ZN5physx2Sq10AABBPruner10addObjectsEPjPKNS_9PxBounds3EPKNS0_13PrunerPayloadEj
cDl:_X509Store_LoadCrl_m1881903843
Lal:_Array_Sort_TisUICharInfo_t75501106_TisUICharInfo_t75501106_m722747892_gshared
Hrm:_il2cpp_runtime_unhandled_exception_policy_set
E9i:_CaseInsensitiveComparer__ctor_m2101975011
Wzf:__ZN20TextRenderingPrivate21TextMeshGeneratorImpl24GetCursorIndexAtPositionERK5RectTIfERK8Vector2f
fKk:__Z67RuntimeInvoker_Byte_t1134296376_Int32_t2950945753_Int32_t2950945753PFvvEPK10MethodInfoPvPS4_
KIk:__Z53RuntimeInvoker_UInt32_t2560061978_Decimal_t2948259380PFvvEPK10MethodInfoPvPS4_
Zb:invoke_viiiifiiiiif
jZl:__ZL25UnresolvedVirtualCall_242P12Il2CppObjecti22OrderBlock_t1585977831PK10MethodInfo
dxc:__Z18RestoreRenderStateR20CameraRenderOldStateR17ShaderPassContext
sXb:__Z18Transfer_BlittableI18StreamedBinaryReadILb1EELb1E5RectTIfEEvRK29SerializationCommandArgumentsR31RuntimeSerializationCommandInfo
fTb:__Z18Transfer_BlittableI24GenerateTypeTreeTransferLb0E11ColorRGBA32EvRK29SerializationCommandArgumentsR31RuntimeSerializationCommandInfo
k0b:__Z25scripting_class_from_name17ScriptingImagePtrPKcS1_
y7k:_Array_InternalArray__Insert_TisSingle_t1397266774_m3161726127_gshared
pom:__ZN14dense_hash_mapI10KeyWrapperINSt3__24pairIPK12PropertyInfoP11Il2CppClassEEEj17ReflectionMapHashIS8_ENS9_14EqualsComparerINS1_8equal_toIS8_EEEENS1_9allocatorINS2_IKS9_jEEEEE15set_deleted_keyERSH_
c2b:__Z29scripting_class_enum_basetype17ScriptingClassPtr
y2d:__ZN5physx6shdfnd8PoolBaseINS_2Sc10NPhaseCore16ClothListElementENS0_19ReflectionAllocatorIS4_EEE17releaseEmptySlabsEv
lef:__Z20GetPhysicsModuleSpecv
mbd:__ZN6IDList10BeginOnGUIEv
xSa:__ZNK12BaseRenderer18GetRenderNodeCountEv
w0l:_AnimationLayerMixerPlayable_GetHandle_m3854437798_AdjustorThunk
ewm:__ZN6il2cpp2vm9Exception25RaiseOutOfMemoryExceptionERKNS_5utils10StringViewIDsEEP19Il2CppSequencePoint
RSl:__ZN30GenericInterfaceActionInvoker1IP24SingleU5BU5D_t1444911251E6InvokeEPK10MethodInfoP12Il2CppObjectS1_
e6e:__ZN5physx2Sc14ConstraintCore10breakApartEv
T4f:_PropertyBuilder_get_CanWrite_m2657562188
OGk:__Z143RuntimeInvoker_Boolean_t97287965_RuntimeObject_Int32_t2950945753_RuntimeObject_SByte_t1669577662_UInt64U26_t1265593412_ExceptionU26_t3600731591PFvvEPK10MethodInfoPvPS4_
vFa:__ZL43__ManagedRegistrationHelperFunction_TexturePv
Qqi:_InternalEnumerator_1_get_Current_m1477715453_gshared
A4j:_Enumerator__ctor_m2827156589_AdjustorThunk
n_:__ZN18StreamedBinaryReadILb0EE21TransferSTLStyleArrayI22OffsetPtrArrayTransferIN4math8ColliderEEEEvRT_17TransferMetaFlags
KIg:__ZL118TouchScreenKeyboard_t731888065_CustomAttributesCacheGenerator_TouchScreenKeyboard_Open_m3609399077____textPlaceholder6P21CustomAttributesCache
Pcf:__ZN5physx7Cooking20loadTriangleMeshDescERKNS_18PxTriangleMeshDescERNS_19TriangleMeshBuilderE
avl:_Collection_1_System_Collections_IList_Remove_m1476284619_gshared
UNj:_ContractionComparer__ctor_m3439667810
JKg:__ZL51AIUpdate_t2336814084_CustomAttributesCacheGeneratorP21CustomAttributesCache
FOi:_SHA1CryptoServiceProvider__ctor_m4195188793
iom:__ZN15dense_hashtableINSt3__24pairIK10KeyWrapperINS1_IPK9EventInfoP11Il2CppClassEEEjEES9_17ReflectionMapHashIS8_EN14dense_hash_mapIS9_jSD_NS9_14EqualsComparerINS0_8equal_toIS8_EEEENS0_9allocatorISB_EEE9SelectKeyESI_SK_E15set_deleted_keyERKSB_
JIa:__ZN9Scripting11UnityEngine9Profiling8Recorder12CleanupProxyEv
sCg:__ZL64MissingFieldException_t1989070983_CustomAttributesCacheGeneratorP21CustomAttributesCache
F1f:_Graphic_get_defaultGraphicMaterial_m3107284931
iSe:__ZNK5physx2Gu29EPASupportMapPairRelativeImplINS0_9TriangleVENS0_4BoxVEE6getDirEv
s$b:__ZN18StreamedBinaryReadILb0EE21TransferSTLStyleArrayI13dynamic_arrayI11ColorRGBA32Lj0EEEEvRT_17TransferMetaFlags
w0f:_Dropdown_Hide_m504034854
Veh:_NumberFormatter_NumberToString_m264078176
qJa:__ZN9Scripting11UnityEngine20ManagedStreamHelpers9InitProxyEv
BGh:_Vector2_get_up_m2647420593
Tbc:__ZN7ApiGLES17CopyBufferSubDataEjjlll
hNj:_Array_InternalArray__ICollection_CopyTo_TisUInt64_t4134040092_m691431926_gshared
Hul:__ZN23InterfaceActionInvoker2Ii22OrderBlock_t1585977831E6InvokeEjP11Il2CppClassP12Il2CppObjectiS0_
y6h:_IPAddress_ToString_m1181734207
w9j:_StringBuilder_Append_m1965104174
ndd:__ZN5Unity9rapidjson15GenericDocumentINS0_4UTF8IcEE13JSONAllocatorS4_E11ParseStreamILj1ES3_NS0_25GenericInsituStringStreamIS3_EEEERS5_RT1_
O6l:__ZNSt3__26vectorIPK10Il2CppTypeNS_9allocatorIS3_EEE7reserveEj
z_j:_EqualityComparer_1__cctor_m3766928733_gshared
_Ck:_UnityAction_1_Invoke_m610765085_gshared
Eea:__ZN11AudioModule26SetDefaultMicrophoneDriverEPv
Nue:__ZNK5physx15NpActorTemplateINS_15PxParticleFluidEE22getClientBehaviorFlagsEv
ICi:_Kernel_modInverse_m652700340
t9a:__ZNK14Texture2DArray26CanReuploadDataToGfxDeviceEv
$Yg:__ZL57CanvasRenderer_t2598313366_CustomAttributesCacheGeneratorP21CustomAttributesCache
VQa:__ZN17GlobalGameManager23VirtualRedirectTransferER17RemapPPtrTransfer
dvf:_sfnt_stream_close
_Yb:__ZN18StreamedBinaryReadILb1EE8TransferI13dynamic_arrayIsLj0EEEEvRT_PKc17TransferMetaFlags
ZWl:__ZL25UnresolvedVirtualCall_122P12Il2CppObject29CullingGroupEvent_t1722745023PK10MethodInfo
ucd:__ZN5IMGUI18RepaintModalWindowER8GUIState
Q3h:_HybridDictionary_get_IsSynchronized_m2987560362
NWj:_Dictionary_2__ctor_m3638779579_gshared
tWa:__ZNK15dense_hashtableINSt3__24pairIKN9ShaderLab7Program23ShaderKeywordSetAndHashEPKNS2_10SubProgramEEES4_NS3_24ShaderKeywordHashFunctorEN14dense_hash_mapIS4_S8_SA_NS0_8equal_toIS4_EE13stl_allocatorIS9_L18MemLabelIdentifier67ELi16EEE9SelectKeyESD_SG_E23find_position_with_hashERS5_j
edj:_CompareInfo_Finalize_m404687489
Vhb:__Z23SetSpriteMeshIndexCountP14SharedMeshDataj
Abk:_UTF8Decoder_GetChars_m1236346907
Qzh:_Quaternion_GetHashCode_m2636680144_AdjustorThunk
_Ug:__ZL99AudioSource_t3935305588_CustomAttributesCacheGenerator_AudioSource_t3935305588____clip_PropertyInfoP21CustomAttributesCache
tHm:__ZN6il2cpp8metadata13GenericMethod9GetMethodEPK19Il2CppGenericMethod
Iw:__ZNSt3__26vectorIN4core12basic_stringIcNS1_20StringStorageDefaultIcEEEENS_9allocatorIS5_EEE7reserveEj
ehh:_Default_SelectProperty_m1220817815
h8g:__ZL78U3CUpdateCountdownBarU3Ec__Iterator0_t783097042_CustomAttributesCacheGeneratorP21CustomAttributesCache
kCh:_Transform_TransformPoint_m226827784
z2l:_ListPool_1_Get_m738675669_gshared
S7b:__ZN13GfxDeviceGLES11SetViewportERK5RectTIiE
GFd:__Z19UpdateSingleRow2TplIL27ParticleSystemCurveEvalMode3ELS0_2EEvfRK11MinMaxCurveS3_RK23ParticleSystemParticlesPfbiii
_7c:__Z24Time_Get_Custom_PropTimev
M9d:__ZN5physx3Scb5Scene14addRigidStaticERNS0_11RigidStaticEb
ne:_emscripten_glDepthRange
Cxl:_SslStreamBase_BeginNegotiateHandshake_m4180435790
wkf:__ZN9Scripting11UnityEngine10UILineInfo12CleanupProxyEv
XWd:__ZN5physx2Gu24contactConvexHeightfieldERKNS0_13GeometryUnionES3_RKNS_11PxTransformES6_RKfRNS0_5CacheERNS0_13ContactBufferE
d7d:__ZN5physx6shdfnd5ArrayIPvNS0_19ReflectionAllocatorINS_2Cm5BlockIS2_Lj8EEEEEE15growAndPushBackERKS2_
wzc:__ZNSt3__26vectorINS_4pairIN4core12basic_stringIcNS2_20StringStorageDefaultIcEEEES6_EE13stl_allocatorIS7_L18MemLabelIdentifier38ELi16EEE12__move_rangeEPS7_SC_SC_
pEc:__Z14resize_trimmedINSt3__26vectorIN9ShaderLab20SerializedSubProgram12UAVParameterENS0_9allocatorIS4_EEEEEvRT_j
tdd:__ZN5Unity9rapidjson13GenericReaderINS0_4UTF8IcEES3_13JSONAllocatorE11ParseObjectILj1ENS0_25GenericInsituStringStreamIS3_EENS0_15GenericDocumentIS3_S4_S4_EEEEvRT0_RT1_
k1c:__Z10DestripifyPKjjRNSt3__26vectorIj13stl_allocatorIjL18MemLabelIdentifier1ELi16EEEE
WWf:_StandaloneInputModule_GetRawMoveVector_m2737091079
x3g:__ZL62Selectable_t3250028441_CustomAttributesCacheGenerator_m_ColorsP21CustomAttributesCache
Mtj:_Convert_ToDateTime_m2616935982
dac:__ZThn10632_N13GfxDeviceGLES22SetScissorRectPlatformERK5RectTIiE
kyl:_SslStreamBase_EndWrite_m4073224031
pva:__ZNSt3__218__insertion_sort_3IRNS_6__lessI14ObjectLoadDataS2_EEPS2_EEvT0_S6_T_
gVg:__ZL92Event_t2956885303_CustomAttributesCacheGenerator_Event_Internal_GetMousePosition_m1101229675P21CustomAttributesCache
Chl:_List_1_System_Collections_ICollection_get_SyncRoot_m1244917400_gshared
RFa:__ZL50__ManagedRegistrationHelperFunction_PostLateUpdatePv
Ccb:__ZN4crndL20crnd_default_reallocEPvjPjbS0_
y4k:__Z54RuntimeInvoker_CustomAttributeNamedArgument_t287865710PFvvEPK10MethodInfoPvPS4_
yPg:__ZL122SupportedRenderingFeatures_t353898663_CustomAttributesCacheGenerator_U3CrendererSupportsReflectionProbesU3Ek__BackingFieldP21CustomAttributesCache
kXe:__ZN5physx24PxsComputeAABBLocalSpaceERKNS_18PxcAABBDataDynamicERNS_9PxBounds3E
Gnm:__ZN15dense_hashtableINSt3__24pairIK10KeyWrapperIPK22Il2CppGenericParameterEPK24MonoGenericParameterInfoEES6_N6il2cpp5utils11PointerHashIS4_EEN14dense_hash_mapIS6_SA_SF_NS6_14EqualsComparerINS0_8equal_toIS5_EEEENS0_9allocatorISB_EEE9SelectKeyESK_SM_E13set_empty_keyERKSB_
bjb:__ZN18SpriteAtlasManager19AddRequestingSpriteE4PPtrI6SpriteE
j2c:__ZN16PackedQuatVector9PackQuatsEP11Quaternionfi
mAk:_Predicate_1_EndInvoke_m3987519925_gshared
C$c:__Z20IsValidRealtimeLightRK15SharedLightData9LightTypej
xWg:__ZL102GUIStyle_t3956901511_CustomAttributesCacheGenerator_GUIStyle_INTERNAL_CALL_GetRectOffsetPtr_m152975056P21CustomAttributesCache
j9:__ZNK4PPtrI9AudioClipEptEv
tah:_UnmanagedMemoryStream_Write_m930787521
iwc:__ZN23ScriptableRenderContextC2Ev
YU:__ZN7mecanim9animation18ClipMuscleConstant8TransferI24GenerateTypeTreeTransferEEvRT_
k3f:_GridLayoutGroup_get_spacing_m2409263614
OTa:__ZN4PPtrI13RenderTextureE8TransferI18StreamedBinaryReadILb0EEEEvRT_
z8j:_List_1_CheckIndex_m581273900_gshared
Uwf:_UNITY_FT_Stream_GetChar
vHh:_WaitForSeconds_t1699091251_marshal_pinvoke
P2l:_ObjectPool_1_get_countAll_m819305395_gshared
TXb:__Z18Transfer_BlittableI18StreamedBinaryReadILb1EELb1EdEvRK29SerializationCommandArgumentsR31RuntimeSerializationCommandInfo
Yjl:_List_1_ToArray_m190175978_gshared
vq:__ZN15NavMeshSettings17MainThreadCleanupEv
KPe:__ZN5physx6shdfnd8internal8HashBaseINS0_4PairIKNS_2Sq13PrunerPayloadEjEES5_NS0_4HashIS5_EENS1_11HashMapBaseIS5_jS9_NS0_9AllocatorEE6GetKeyESB_Lb1EE5eraseERS6_
j2b:__Z26BuildSerializationCacheFor17ScriptingClassPtrRb
$Sf:_EventSystem_get_firstSelectedGameObject_m1576206896
Pdc:__ZN7ApiGLES15BlitFramebufferEN2gl6HandleILNS0_10ObjectTypeE9EEENS0_15FramebufferReadES3_S3_iiiiiiiiNS0_15FramebufferTypeE
C7e:__ZN5physx13GuMeshFactory16createConvexMeshERNS_13PxInputStreamE
Ogf:__ZN5physx6shdfnd8internal8HashBaseINS0_4PairIKPKcjEES5_NS0_4HashIS5_EENS1_11HashMapBaseIS5_jS9_NS_7profile26WrapperReflectionAllocatorIjEEE6GetKeyESD_Lb1EE6createERS6_Rb
qSk:__Z112RuntimeInvoker_RuntimeObject_RuntimeObject_RuntimeObject_RuntimeObject_RuntimeObject_RuntimeObject_RuntimeObjectPFvvEPK10MethodInfoPvPS4_
dqi:_InternalEnumerator_1_System_Collections_IEnumerator_get_Current_m3553395619_AdjustorThunk
Cpg:__ZL70AssemblyVersionCompatibility_t766556580_CustomAttributesCacheGeneratorP21CustomAttributesCache
YNg:__ZL60ReadOnlyAttribute_t3518714744_CustomAttributesCacheGeneratorP21CustomAttributesCache
c2i:_Array_SetValue_m3998268557
kgg:_ServerContextTerminatorSink__ctor_m2519287841
FZf:_ColorBlock_set_highlightedColor_m2089444414_AdjustorThunk
t0k:__Z59RuntimeInvoker_Boolean_t97287965_X509ChainStatus_t133602714PFvvEPK10MethodInfoPvPS4_
SBh:_RectTransform_INTERNAL_set_anchoredPosition_m939517950
lXg:__ZL57ParticleSystem_t1800779281_CustomAttributesCacheGeneratorP21CustomAttributesCache
GKi:_Context_EndSwitchingSecurityParameters_m4148956166
dsf:_otv_PairPos_validate
wzg:__ZL63ThreadStateException_t3003788475_CustomAttributesCacheGeneratorP21CustomAttributesCache
ZI:__ZN7mecanim9animation14CopyHumanPosesEPKNS0_18AnimationNodeStateEPS1_RKNS_6bitsetILj83EEE
ogm:__ZN6il2cpp6icalls8mscorlib6SystemL8IsStaticEPK12PropertyInfo
o3b:__Z9InitInputv
Bnm:__ZN30dense_hashtable_const_iteratorINSt3__24pairIK10KeyWrapperIPK22Il2CppGenericParameterEPK24MonoGenericParameterInfoEES6_N6il2cpp5utils11PointerHashIS4_EEN14dense_hash_mapIS6_SA_SF_NS6_14EqualsComparerINS0_8equal_toIS5_EEEENS0_9allocatorISB_EEE9SelectKeyESK_SM_E30advance_past_empty_and_deletedEv
bSa:__ZN17TransformInternal36OnScaleChangedCalculateTransformTypeE15TransformAccess
A7e:__ZNK5physx13GuMeshFactory15getConvexMeshesEPPNS_12PxConvexMeshEjj
Njm:__ZN6il2cpp2gc19AppendOnlyGCHashMapINSt3__24pairIPK10MethodInfoP11Il2CppClassEEP22Il2CppReflectionMethod17ReflectionMapHashIS9_ENS2_8equal_toIS9_EEE3AddERKS9_SB_
UEb:__ZN16MemoryFileSystem6DeleteER13FileEntryDatab
$Mk:__Z81RuntimeInvoker_Void_t1185182177_RuntimeObject_Int64_t3736567304_Int32_t2950945753PFvvEPK10MethodInfoPvPS4_
wfl:_List_1_set_Item_m1979164443_gshared
vLj:_Array_InternalArray__ICollection_Add_TisLink_t3209266973_m77922316_gshared
K9a:__ZL21BlitScaleStbImageImplRK14ImageReferenceRS_NS_10ColorSpaceE
fme:__ZN5physx10NpMaterial17setStaticFrictionEf
sud:__Z9UpdateTplIL27ParticleSystemCurveEvalMode0EEvRK11MinMaxCurveS3_S3_R23ParticleSystemParticlesjjRKN4math8float3x3ERKNS6_7_float4E
bHe:__ZNK5physx7NpScene18getStaticStructureEv
kD:__ZL48__ManagedRegistrationHelperFunction_SkeletonBonePv
IZl:__ZL25UnresolvedVirtualCall_267P12Il2CppObjectiiPK10MethodInfo
zGe:__ZNK5physx7NpScene19getFilterShaderDataEv
gTh:_InputField_get_keyboardType_m1248105267
XOb:__Z29Transfer_Blittable_ArrayFieldI14SafeBinaryReadyEvRT_R9ArrayInfoRK23StaticTransferFieldInfo
q9:__ZN20SoundChannelInstance15setChannelGroupEPN4FMOD12ChannelGroupE
DDl:_Match__ctor_m2425511580
jTj:_KeyPairPersistence_Remove_m1876145547
Bqg:__ZL63FileNotFoundException_t225391025_CustomAttributesCacheGeneratorP21CustomAttributesCache
ihe:__ZN5physx2Sc19ShapeInstancePairLL26onPoseChangedWhileSleepingEv
Sqd:__ZN12LightsModule13AwakeFromLoadEP14ParticleSystemRK27ParticleSystemReadOnlyState
rRe:__ZN5physx22PxcSweepCapsuleCapsuleERKNS_11PxsCCDShapeES2_PKNS_12PxsRigidBodyES5_RKNS_11PxTransformES8_S8_S8_fRNS_6PxVec3ESA_RNS_10PxcNpCacheERNS_18PxcNpThreadContextEf
Ic:invoke_vifffii
G_b:__Z35Transfer_Blittable_FixedBufferFieldI18StreamedBinaryReadILb0EEaEvRK29SerializationCommandArgumentsR31RuntimeSerializationCommandInfo
n$d:__ZNK5physx3Cct17CapsuleController21getHalfHeightInternalEv
mDb:__ZNK25MultiBlocksMemoryFileData5CloneEv
t3i:_AsyncCallback_BeginInvoke_m2710486612
dNm:_GC_add_ext_descriptor
cim:__ZNK15dense_hashtableINSt3__24pairIK10KeyWrapperINS1_IPK14Il2CppAssemblyP11Il2CppClassEEEjEES9_17ReflectionMapHashIS8_EN14dense_hash_mapIS9_jSD_NS9_14EqualsComparerINS0_8equal_toIS8_EEEENS0_9allocatorISB_EEE9SelectKeyESI_SK_E23find_position_with_hashERSA_j
fOd:__ZN5physx21PxQueryFilterCallbackD2Ev
Icl:_LayoutGroup_SetProperty_TisSingle_t1397266774_m793506911_gshared
iOm:__ZN6il2cpp2os14WindowsRuntime22GetRestrictedErrorInfoEv
NOh:_CryptoConfig_CreateFromName_m1538277313
Ggi:_InternalEnumerator_1_get_Current_m3073360606_gshared
wCb:__ZN17ArchiveFileSystem11CreateAsDirER13FileEntryData
J4d:__ZL30GeomOverlapCallback_CapsuleBoxRKN5physx10PxGeometryERKNS_11PxTransformES2_S5_PNS_2Gu12TriggerCacheE
yXm:dynCall_iiiiiiiiiiii
pq:__ZN9Scripting11UnityEngine2AI18NavMeshBuildSource9InitProxyEv
rTh:_InputField_set_caretPositionInternal_m3823580651
MIf:__ZN18UnityConnectClient16IsServiceEnabledEv
kTg:__ZL62g_UnityEngine_AIModule_Assembly_CustomAttributesCacheGeneratorP21CustomAttributesCache
wLa:__ZN9Scripting11UnityEngine10ColorGamut9InitProxyEv
sFb:__ZN22VertexDeclarationCacheD0Ev
l1h:_Selectable_set_interactable_m3105888815
PZa:__ZL26KeywordSetToStringDontSortRKNSt3__26vectorIN4core12basic_stringIcNS1_20StringStorageDefaultIcEEEENS_9allocatorIS5_EEEERS5_
kCa:__ZN6prcoreL17RemapGenericFloatI16TexFormatRGFloat17TexFormatRGBAHalfEEvPKNS_9InnerInfoE
rba:__ZN12AudioManager22CreateFMODSoundFromWWWEP10IWWWStream15FMOD_SOUND_TYPE17FMOD_SOUND_FORMATjjbbP10SampleClip
YYc:__ZNK32RendererMaterialAnimationBinding15GenerateBindingERKN4core12basic_stringIcNS0_20StringStorageDefaultIcEEEEbRN11UnityEngine9Animation14GenericBindingE
bbg:_TargetException__ctor_m4172127019
Vxd:__Z25UpdateOrbitalAndRadialTplIL27ParticleSystemCurveEvalMode0ELS0_2ELS0_0EEvRK11MinMaxCurveS3_S3_S3_S3_S3_S3_R23ParticleSystemParticlesjjRKN4math8float3x3ERKNS6_7affineXERKNS6_7_float4E
Vil:_List_1_CheckCollection_m274117203_gshared
_Zg:__ZL70EventSystem_t1003666588_CustomAttributesCacheGenerator_m_FirstSelectedP21CustomAttributesCache
Cta:__ZN8Remapper23GetOrGenerateInstanceIDERK26SerializedObjectIdentifier
pU:__ZN17AnimationCurveTplI8Vector3fEC2ERKS1_
r_f:_ColorTween_get_startColor_m3792586410_AdjustorThunk
Fzb:__ZN17FileSystemHandler10AtomicMoveER13FileEntryDataS1_
HXg:__ZL106Physics_t2310948930_CustomAttributesCacheGenerator_Physics_Raycast_m3101461809____queryTriggerInteraction5P21CustomAttributesCache
v6g:__ZL105TrackableField_t1772682203_CustomAttributesCacheGenerator_TrackableField__ctor_m3758796351____validTypes0P21CustomAttributesCache
WKh:_BinaryFormatter_get_SurrogateSelector_m2111882017
fZi:_X509CertificateCollection__ctor_m3365535796
FJb:__ZN11TextureData17GetImageReferenceEii
nfh:_CustomInfo__ctor_m426096741
rTf:_EventSystem_ToString_m3779610692
lib:__ZN6Sprite8TransferI24GenerateTypeTreeTransferEEvRT_
cIh:_SoapTypeAttribute_get_IsInteropXmlType_m629667929
cQc:__Z48Register_UnityEngine_Transform_SetAsFirstSiblingv
vli:_InternalEnumerator_1_System_Collections_IEnumerator_get_Current_m694606607_gshared
qib:__ZN7SubMesh8TransferI24GenerateTypeTreeTransferEEvRT_
zee:__ZNK5physx19NpArticulationJoint28getTwistLimitContactDistanceEv
OHl:_Literal_IsComplex_m4067122560
m4l:_NativeTypeAttribute__ctor_m133676646
ZVd:__ZN5physx3Cct10Controller6setPosERKNS_14PxExtendedVec3E
Sgc:__ZN19GfxThreadableDevice20SetShadersThreadableEPP10GpuProgramPPK20GpuProgramParametersPKPKh
$lk:_Collection_1_System_Collections_IList_Contains_m296643274_gshared
CXd:__ZN5physx2GuL14testFaceNormalERKNS0_13PolygonalDataES3_PNS0_12SupportLocalES5_RKNS_6shdfnd3aos15PsMatTransformVESA_RKNS7_6FloatVERSB_RjRNS7_5Vec3VENS0_13FeatureStatusERSI_
Flj:_DirectoryInfo__ctor_m126519516
t7f:_MethodBase_GetMethodFromIntPtr_m3014201362
Psk:__ZN21InterfaceFuncInvoker1I19Color32_t2600501292iE6InvokeEjP11Il2CppClassP12Il2CppObjecti
poi:_InternalEnumerator_1_get_Current_m2315302778_AdjustorThunk
SGl:_Reference_get_CapturingGroup_m3861468528
LV:__ZN7mecanim5human9HumanGoal8TransferI18StreamedBinaryReadILb0EEEEvRT_
GJk:__Z40RuntimeInvoker_TypeAttributes_t113483779PFvvEPK10MethodInfoPvPS4_
HPc:__ZN9Transform23SetSiblingIndexInternalEib
Gjl:_List_1_Clear_m1143167521_gshared
ugd:__ZN9JSONWrite8TransferI13dynamic_arrayIaLj0EEEEvRT_PKc17TransferMetaFlags
P4d:__ZL32GeomOverlapCallback_ConvexConvexRKN5physx10PxGeometryERKNS_11PxTransformES2_S5_PNS_2Gu12TriggerCacheE
$nk:_Collection_1_SetItem_m794903769_gshared
jrj:_Enumerator_MoveNext_m635366482
Y_i:_X509Extension_Equals_m1222951829
nH:__ZN7mecanim5human12HumanPoseSubERNS0_9HumanPoseERKS1_S4_
b6k:__Z37RuntimeInvoker_Enumerator_t1789501480PFvvEPK10MethodInfoPvPS4_
aBm:__ZN6il2cpp8metadata15GenericMetadata15GetGenericClassEiPK17Il2CppGenericInst
N6i:_Char_GetTypeCode_m2433327340_AdjustorThunk
wNb:__Z18Transfer_BlittableI14SafeBinaryReadLb0E10Matrix4x4fEvRK29SerializationCommandArgumentsR31RuntimeSerializationCommandInfo
A1b:__Z24GetFixedBehaviourManagerv
Mlg:__ZL69IntPtr_t_CustomAttributesCacheGenerator_IntPtr_op_Equality_m408849716P21CustomAttributesCache
kfm:__ZN6il2cpp2vm10ThreadPool4WaitEP17Il2CppAsyncResultPPv
r_i:_PKCS12_Encrypt_m2617413749
OCl:_X509Crl_VerifySignature_m1377612461
ISm:_vfprintf
Wcd:__ZN10GUIManager12AddGUIScriptER8ListNodeI13MonoBehaviourE
eHa:__ZL53__ManagedRegistrationHelperFunction_StackTraceUtilityPv
zrj:_Stack_Clear_m2010200235
z8a:__ZL13SortTexByNameRKNSt3__24pairIN9ShaderLab16FastPropertyNameEN18UnityPropertySheet11UnityTexEnvEEES7_
Pof:_cf2_getVStore
hVf:_PointerEventData_set_pointerPressRaycast_m1363193059
gmc:__ZN20DynamicPropertySheetD0Ev
Cdg:_SafeHandle_Dispose_m4229010569
Azc:__ZN14SafeBinaryRead17RegisterConverterEPKcS1_PFbPvRS_E
mHg:__ZL77RuntimePlatform_t4159857903_CustomAttributesCacheGenerator_OSXDashboardPlayerP21CustomAttributesCache
Vla:__ZN35RegisterRuntimeInitializeAndCleanup8RegisterEPFvPvES2_iS0_
cAe:__ZNK5physx19NpRigidBodyTemplateINS_14PxRigidDynamicEE17getRigidBodyFlagsEv
fkh:_FieldBuilder_SetValue_m828035213
fT:__ZN7mecanim6memory16ChainedAllocator7ReserveEj
fMg:__ZL81RectOffset_t1369453676_CustomAttributesCacheGenerator_RectOffset_Init_m2028508611P21CustomAttributesCache
zuk:_ReadOnlyCollection_1_System_Collections_IList_get_IsFixedSize_m733459177_gshared
Wyk:__ZN28GenericInterfaceFuncInvoker0IfE6InvokeEPK10MethodInfoP12Il2CppObject
k2a:__ZN20SphericalHarmonicsL215AddAmbientLightERK10ColorRGBAf
hmg:__ZL72Enum_t4135868527_CustomAttributesCacheGenerator_Enum_ToObject_m121962870P21CustomAttributesCache
kOl:_EnemyMovement_Defeated_m3753560739
xqk:__ZN23InterfaceActionInvoker2IP24ObjectU5BU5D_t2843939325iE6InvokeEjP11Il2CppClassP12Il2CppObjectS1_i
vRe:__ZN5physx25PxcSweepConvexHeightfieldERKNS_11PxsCCDShapeES2_PKNS_12PxsRigidBodyES5_RKNS_11PxTransformES8_S8_S8_fRNS_6PxVec3ESA_RNS_10PxcNpCacheERNS_18PxcNpThreadContextEf
m8c:__Z21Object_CUSTOM_DestroyP12Il2CppObjectf
dIg:__ZL99SetupCoroutine_t2062820429_CustomAttributesCacheGenerator_SetupCoroutine_InvokeMoveNext_m3199342729P21CustomAttributesCache
Ric:__ZN8Material26ResetAllCachedMaterialDataEP6Shader
UQk:__Z63RuntimeInvoker_Void_t1185182177_RuntimeObject_Int16_t2552820387PFvvEPK10MethodInfoPvPS4_
exf:_UNITY_TT_Get_MM_Var
iMh:_ObjectManager_AddFixup_m2154325362
msi:_Comparer_1__cctor_m3761458313_gshared
Fzj:_DateTimeOffset_CompareTo_m1350732322_AdjustorThunk
aa:invoke_diddi
RBf:__ZNK2UI6Canvas13GetRenderModeEv
Crh:_PersistentCall__ctor_m1217622171
jJj:_Array_compare_TisCustomAttributeTypedArgument_t2723150157_m1384644047_gshared
pUm:_unlink
GX:__Z32TransferEnumWithNameForceIntSizeI14SafeBinaryRead28TransitionInterruptionSourceEvRT_RT0_PKc17TransferMetaFlags
HMb:__Z18Transfer_BlittableI14SafeBinaryReadLb0EiEvRK29SerializationCommandArgumentsR31RuntimeSerializationCommandInfo
Ycm:__ZN6il2cpp2vm13MetadataCache30GetPropertyDefinitionFromIndexEi
FMl:_SymmetricTransform_Transform_m1683494363
gze:__ZN5physx14NpRigidDynamic7releaseEv
PLf:__ZN22BaseUnityConnectClient17InitializeSessionERKN4core12basic_stringIcNS0_20StringStorageDefaultIcEEEES6_N19CloudServiceHandler13InitModeFlagsE
Qog:__ZL56KeyCollection_t4251528776_CustomAttributesCacheGeneratorP21CustomAttributesCache
hXk:__Z74RuntimeInvoker_RuntimeObject_Int32_t2950945753_RuntimeObject_RuntimeObjectPFvvEPK10MethodInfoPvPS4_
KNe:__ZN5physx6shdfnd8PoolBaseINS_21PxsBodyTransformVault13PxsBody2WorldENS0_19ReflectionAllocatorIS3_EEE15disposeElementsEv
Jol:_List_1_get_Item_m200663048_gshared
Wjg:_ReturnMessage_get_Exception_m3375728265
qY:__ZN15SerializeTraitsI9OffsetPtrIN7mecanim9animation23BlendDirectDataConstantEEE8TransferI24GenerateTypeTreeTransferEEvRS4_RT_
R1m:_emscripten_glDeleteBuffers__wrapper
Ax:__ZNK14NavMeshManager23GetNavMeshBuildSettingsEi
b5c:__ZN13MonoBehaviour34StopCoroutineFromEnumeratorManagedE18ScriptingObjectPtr
fIg:__ZL57DebugLogHandler_t826086171_CustomAttributesCacheGeneratorP21CustomAttributesCache
phl:_List_1__ctor_m1345008423_gshared
fvf:_gray_raster_reset
tD:__ZN9Scripting11UnityEngine9HumanBone12CleanupProxyEv
DTd:__ZN5physx2Gu30computeCapsule_TriangleMeshMTDERKNS_22PxTriangleMeshGeometryERKNS_11PxTransformERNS0_8CapsuleVEffbRNS_10PxSweepHitE
XHd:__ZN11UnityEngine9Analytics18SceneLoadTimeEvent12SetSceneLoadERKN4core12basic_stringIcNS2_20StringStorageDefaultIcEEEEiyyyy
$sb:__ZN30RuntimeInitializeOnLoadManager8TransferI18StreamedBinaryReadILb0EEEEvRT_
ttj:_DateTimeOffset__ctor_m2084804982
Atf:_UNITY_tt_face_load_pclt
tMb:__ZN9profiling17ScriptingProfiler31UpdateRegisteredScriptingEventsEv
mMc:__ZL34GetComponentsImplementationRecurseILb1ELi0ELi2EEbR10GameObjectbRK17CompareParametersRK39GetComponentsImplementation_ReturnValue
h8k:_Array_InternalArray__set_Item_TisSlot_t3975888750_m3701794315_gshared
AVa:__ZN4PPtrI5FlareE8TransferI14SafeBinaryReadEEvRT_
Iuh:_Material_GetTexture_m3545614349
XEe:__ZThn8_N5physx2Sc19ShapeInstancePairLL10onActivateEj
tjb:__ZN13ScreenManager22SetResolutionImmediateEii14FullscreenModei
LHk:__Z64RuntimeInvoker_RuntimeObject_Int32_t2950945753_Int16_t2552820387PFvvEPK10MethodInfoPvPS4_
Xpd:__ZN16CustomDataModule8TransferI19StreamedBinaryWriteILb0EEEEvRT_
IRj:_ASN1_get_Length_m1923878580
q$j:_EqualityComparer_1__cctor_m4244842342_gshared
Blc:__ZNK6Camera18WorldToScreenPointERK8Vector3fPb
CXe:__ZN5physx2Cm12DelegateTaskINS_10PxsContextEXadL_ZNS2_28mergeCMDiscreteUpdateResultsEPNS_10PxBaseTaskEEEE11runInternalEv
mDh:_SendMouseEvents_DoSendMouseEvents_m2140870850
AGf:__ZN14UnityAnalyticsD0Ev
kcf:__ZN5physx19TriangleMeshBuilder10importMeshERKNS_18PxTriangleMeshDescERKNS_15PxCookingParamsEb
DEl:_PatternCompiler_EmitJump_m3915926156
Rv:__ZN14NavMeshManager11RestoreTileEii
HH:__ZN7mecanim9animation19AdjustPoseForMotionERKNS0_14AvatarConstantERKNS0_14SkeletonTQSMapERKN4math4trsXERNS_10ValueArrayERNS_8skeleton13SkeletonPoseTIS8_EESG_
CMh:_SerializationEntry_get_Name_m1530029541_AdjustorThunk
g9f:_MonoMethod_GetBaseDefinition_m2844667474
oek:__Z33il2cpp_codegen_check_add_overflowxx
Gra:__ZNSt3__227__insertion_sort_incompleteIRPFbRKN18AwakeFromLoadQueue4ItemES4_EPS2_EEbT0_S9_T_
$Wk:__Z71RuntimeInvoker_Boolean_t97287965_AnimatorControllerPlayable_t1015767841PFvvEPK10MethodInfoPvPS4_
uHg:__ZL73RuntimePlatform_t4159857903_CustomAttributesCacheGenerator_MetroPlayerARMP21CustomAttributesCache
Ykj:_InvalidOperationException__ctor_m1685032583
Yam:__ZN14dense_hash_mapI10KeyWrapperIN6il2cpp5utils13dynamic_arrayIPK10Il2CppTypeLj4EEEEPFvvENS1_8metadata19Il2CppSignatureHashENS8_14EqualsComparerINSB_22Il2CppSignatureCompareEEENSt3__29allocatorINSG_4pairIKS8_SA_EEEEE15set_deleted_keyERSJ_
Wek:_TimeSpan_op_Subtraction_m3592306516
o1j:_EqualityComparer_1_System_Collections_IEqualityComparer_GetHashCode_m1517903420_gshared
VAb:__ZNK20LocalFileSystemPosix6ParentERK13FileEntryDataRN4core12basic_stringIcNS3_20StringStorageDefaultIcEEEE
hse:__ZN5physx6shdfnd5ArrayINS_18PxClothFabricPhaseENS0_19ReflectionAllocatorIS2_EEE8recreateEj
Ugb:__ZN26EnlightenSystemInformation8TransferI14SafeBinaryReadEEvRT_
kqd:__ZN13InitialModule5ResetEv
Ptb:__ZN24GenerateTypeTreeTransfer8TransferINSt3__26vectorIN15ResourceManager10DependencyE13stl_allocatorIS4_L18MemLabelIdentifier52ELi16EEEEEEvRT_PKc17TransferMetaFlags
NCg:__ZL59StringComparison_t3657712135_CustomAttributesCacheGeneratorP21CustomAttributesCache
P$l:_CanvasRenderer_SplitUIVertexStreams_m2753637362
Inb:__ZN19SkinnedMeshRenderer10DeactivateE19DeactivateOperation
hZk:__Z119RuntimeInvoker_Void_t1185182177_RuntimeObject_Single_t1397266774_Single_t1397266774_SByte_t1669577662_Int32_t2950945753PFvvEPK10MethodInfoPvPS4_
VUa:__ZN27PerObjectLightCullingOutputD2Ev
KHe:__ZN5physx2Sq17SceneQueryManager11shiftOriginERKNS_6PxVec3E
spb:__ZN12MeshRendererD0Ev
Cca:__ZN12AudioManager35GetCurrentSpatializerDefinitionNameEv
gWj:_Dictionary_2_System_Collections_IEnumerable_GetEnumerator_m3057868448_gshared
tRd:__ZN5physx2Gu16sweepBoxTriangleERKNS_10PxTriangleERKNS_9PxBounds3ERKNS_6PxVec3ES9_RS7_SA_Rf
IEh:_TouchScreenKeyboard_get_active_m4267591905
tHa:__ZN9Scripting11UnityEngine14WaitForSeconds9InitProxyEv
Zmm:__ZNK15dense_hashtableINSt3__24pairIK10KeyWrapperIPK14Il2CppAssemblyEPK22Il2CppMonoAssemblyNameEES6_N6il2cpp5utils11PointerHashIS4_EEN14dense_hash_mapIS6_SA_SF_NS6_14EqualsComparerINS0_8equal_toIS5_EEEENS0_9allocatorISB_EEE9SelectKeyESK_SM_E8min_sizeEjj
_h:_utime
Wcf:__ZN5physx10writeChunkEaaaaRNS_14PxOutputStreamE
WGl:_BalancingGroup_Compile_m2575117193
pfm:__ZN6il2cpp6icalls8mscorlib6System8MonoType18IsGenericParameterEPK10Il2CppType
zpm:__ZNSt3__26vectorIN6il2cpp2vm17TypeNameParseInfoENS_9allocatorIS3_EEE8allocateEj
yD:__ZN9Scripting11UnityEngine22AnimatorTransitionInfo9InitProxyEv
K8:__ZN18AudioMixerSnapshot23VirtualRedirectTransferER19StreamedBinaryWriteILb0EE
yDl:_Mark_get_Index_m3048692661_AdjustorThunk
kzl:_TlsServerSettings_get_CertificateRequest_m842655670
yn:FUNCTION_TABLE_viiiiif
Ori:_DefaultComparer_Compare_m3931992727_gshared
eo:FUNCTION_TABLE_viiiiii
Hqi:_InternalEnumerator_1_System_Collections_IEnumerator_get_Current_m1847780851_AdjustorThunk
v8:__ZN5audio5mixer14EffectConstant8TransferI18StreamedBinaryReadILb0EEEEvRT_
vLl:_GUILayoutUtility_get_spaceStyle_m3392862907
cTi:_SecurityException_ToString_m3228070608
utj:_DateTimeOffset__ctor_m74032857
Fch:_MonoType_IsPrimitiveImpl_m2401722705
$ie:__ZN5physx2Sc9RigidCore13onShapeChangeERNS0_9ShapeCoreENS_7PxFlagsINS0_21ShapeChangeNotifyFlag4EnumEjEENS4_INS_11PxShapeFlag4EnumEhEE
l$i:_SmallXmlParser_Error_m3899025466
EQ:__ZN7mecanim9animation22DestroyAvatarWorkspaceEPNS0_15AvatarWorkspaceERNS_6memory9AllocatorE
sr:__ZN12NavMeshAgent12AddToManagerEv
Qfk:_Type_type_is_assignable_from_m76737532
V9c:__ZN9Scripting11UnityEngine14GUILayoutGroup12CleanupProxyEv
nYh:_MaskableGraphic_ParentMaskStateChanged_m1092090553
Gwe:__ZN5physx6shdfnd5ArrayIPvNS0_15InlineAllocatorILj256ENS0_19ReflectionAllocatorINS_2Sc19ParticlePacketShapeEEEEEE15growAndPushBackERKS2_
$Te:__ZN5physx17solveContactBlockEPKNS_23PxcSolverConstraintDescEjRNS_16PxcSolverContextE
ddf:__ZN5physx6shdfnd10FoundationD2Ev
U8a:__ZN14PlayableOutput17SetSourcePlayableEP8Playable
Tsb:__ZNSt3__26vectorIN4core12basic_stringIcNS1_20StringStorageDefaultIcEEEE13stl_allocatorIS5_L18MemLabelIdentifier13ELi16EEE8__appendEj
C5d:__ZN5physx9NpFactory21releaseConnectorArrayEPNS_16NpConnectorArrayE
o8:__ZN10AudioMixer8TransferI17RemapPPtrTransferEEvRT_
fQ:__ZN7mecanim9animation29MotionOutputGetDeltaTransformEPKNS0_12MotionOutputE
TQa:__ZN17GlobalGameManager23VirtualRedirectTransferER19StreamedBinaryWriteILb0EE
BYl:__ZL25UnresolvedVirtualCall_206P12Il2CppObject26DateTimeOffset_t3229287507S1_PK10MethodInfo
WHd:__ZN27PerformanceReportingManager21OnSceneTimingCallbackERK15SceneLoadTimingRKN4core12basic_stringIcNS3_20StringStorageDefaultIcEEEE
Nzl:_ValidationResult_get_ErrorCode_m1533688152
F5h:_FtpWebRequest__cctor_m699542155
kPc:__Z43Transform_CUSTOM_INTERNAL_get_localRotationP12Il2CppObjectP11Quaternionf
gOe:__ZN5physx2Sc10NPhaseCoreD2Ev
N6d:__ZN5physx2Sc7BodySim18onConstraintDetachEv
ANm:__ZN6il2cpp6icalls8mscorlib6System10Reflection4Emit13ModuleBuilder13RegisterTokenEP29Il2CppReflectionModuleBuilderP12Il2CppObjecti
yPk:__Z50RuntimeInvoker_Int64_t3736567304_SByte_t1669577662PFvvEPK10MethodInfoPvPS4_
Mhm:__ZN6il2cpp2os4File9SetLengthEPNS0_10FileHandleExPi
IWc:__ZZL23RegisterLightPropertiesR22GenericPropertyBindingEN20Wrapper_LightColorr013SetFloatValueEPvf
YPg:__ZL63SpriteBone_t303320096_CustomAttributesCacheGenerator_m_ParentIdP21CustomAttributesCache
Ryi:_Transform_1_EndInvoke_m2716226219_gshared
Di:_emscripten_glGetTexParameteriv
rFa:__ZL49__ManagedRegistrationHelperFunction_ComputeBufferPv
FGe:__ZN5physx7NpScene8simulateEfPNS_10PxBaseTaskEPvjb
s1m:_glGenTextures__wrapper
IMd:__ZN5physx2Gu13GeometryUnion3setERKNS_10PxGeometryE
gak:_UnicodeEncoding_GetHashCode_m354003420
MEc:__ZN9ShaderLab20SerializedSubProgram14ConstantBufferaSERKS1_
Uxd:__Z25UpdateOrbitalAndRadialTplIL27ParticleSystemCurveEvalMode0ELS0_1ELS0_4EEvRK11MinMaxCurveS3_S3_S3_S3_S3_S3_R23ParticleSystemParticlesjjRKN4math8float3x3ERKNS6_7affineXERKNS6_7_float4E
qTg:__ZL74SharedBetweenAnimatorsAttribute_t2857104338_CustomAttributesCacheGeneratorP21CustomAttributesCache
sEj:_Enum_Equals_m3617313991
zmg:__ZL69RuntimeArray_CustomAttributesCacheGenerator_Array_SetValue_m394135409P21CustomAttributesCache
G$k:__Z74RuntimeInvoker_Boolean_t97287965_LineTypeU26_t2430394419_Int32_t2950945753PFvvEPK10MethodInfoPvPS4_
R5a:__ZN8PlayableD0Ev
Xg:emscriptenWebGLGetBufferBinding
t3:__ZN12AudioManager8TransferI19StreamedBinaryWriteILb0EEEEvRT_
w$l:_CanvasGroup_IsRaycastLocationValid_m2128397950
O1h:_Slider_UpdateCachedReferences_m3259451627
NEg:__ZL63X509ChainStatusFlags_t1026973125_CustomAttributesCacheGeneratorP21CustomAttributesCache
nPk:__Z50RuntimeInvoker_Double_t594665363_Double_t594665363PFvvEPK10MethodInfoPvPS4_
WNk:__Z60RuntimeInvoker_Void_t1185182177_StreamingContext_t3711869237PFvvEPK10MethodInfoPvPS4_
V5g:__ZL62Shadow_t773074319_CustomAttributesCacheGenerator_m_EffectColorP21CustomAttributesCache
$tm:__ZN15dense_hashtableINSt3__24pairIK10KeyWrapperINS1_IP11Il2CppClassjEEES4_EES6_N6il2cpp8metadata14ArrayClassHashEN14dense_hash_mapIS6_S4_SB_NS6_14EqualsComparerINSA_17ArrayClassCompareEEENS0_9allocatorIS8_EEE9SelectKeyESF_SH_E6insertERKS8_
T0f:_U3CShowU3Ec__AnonStorey1_U3CU3Em__0_m2340880019
SLf:__ZN22BaseUnityConnectClient38PrepareConfigRequestOnMainThreadStaticEPS_
$0h:_Selectable_OnSetProperty_m1693943217
v8j:_List_1_GetIndex_m2300811709_gshared
XYc:__ZNK32RendererMaterialAnimationBinding12GetPPtrValueERKN11UnityEngine9Animation10BoundCurveE
RZb:__Z18Transfer_BlittableI18StreamedBinaryReadILb0EELb0E8Vector2fEvRK29SerializationCommandArgumentsR31RuntimeSerializationCommandInfo
Pfe:__ZN5physx18NpArticulationLink10clearForceENS_11PxForceMode4EnumE
wTd:__ZN5physx2Gu30distanceSegmentTriangleSquaredERKNS_6PxVec3ES3_S3_S3_S3_PfS4_S4_
aFf:__ZN2UI11CanvasGroup12CleanupClassEv
Hzl:_TlsStream_Flush_m3793197834
dfl:_List_1_GetIndex_m2832472557_gshared
Hzb:__ZN22LocalFileSystemHandler9MakeLocalER13FileEntryDatab
WIm:__ZN6il2cpp2vm8Profiler10AllocationEP12Il2CppObjectP11Il2CppClass
uIl:_Uri_IsHexEncoding_m3290929897
q1g:__ZL61Graphic_t1660335611_CustomAttributesCacheGenerator_m_MaterialP21CustomAttributesCache
BBa:__Z13FormatOrderedPKcz
Lgm:__ZN6il2cpp2vm8basepathEPKc
Joi:_InternalEnumerator_1_get_Current_m1506120701_AdjustorThunk
jqe:__ZNK5physx15NpActorTemplateINS_7PxClothEE12getAggregateEv
X9h:_X509Chain_GetAuthorityKeyIdentifier_m614536199
Tkf:__ZN14SafeBinaryRead21TransferSTLStyleArrayI10vector_mapINSt3__24pairIttEEfN20TextRenderingPrivate8FontImpl14KerningCompareENS2_9allocatorINS3_IS4_fEEEEEEEvRT_17TransferMetaFlags
tJi:_TlsServerFinished__ctor_m1445633918
ffh:_NumberFormatter_FastIntegerToString_m390846811
sXh:__ZN21InterfaceFuncInvoker0IfE6InvokeEjP11Il2CppClassP12Il2CppObject
bnb:__ZN14CompressedMesh10GetQualityE15MeshCompression
Zsc:__ZN25DeferredRenderLoopScratchD0Ev
PJ:__ZN27AnimationLayerMixerPlayable14SetInputWeightEif
QUk:__Z83RuntimeInvoker_Void_t1185182177_RuntimeObject_Single_t1397266774_Single_t1397266774PFvvEPK10MethodInfoPvPS4_
MUf:_PhysicsRaycaster_Raycast_m776323695
aGh:_UnityException__ctor_m1456865679
jH:__ZN7mecanim9animation17EvaluateHumanPoseERKNS0_18ClipMuscleConstantERKNS0_15ClipMuscleInputEPKfRKNS0_12MotionOutputERNS_5human9HumanPoseE
AQe:__ZNK5physx2Cm12DelegateTaskINS_13PxsCCDContextEXadL_ZNS2_14postCCDAdvanceEPNS_10PxBaseTaskEEEE7getNameEv
T_g:__ZL92PointerEventData_t3807901092_CustomAttributesCacheGenerator_U3CscrollDeltaU3Ek__BackingFieldP21CustomAttributesCache
XDc:__ZN15dense_hashtableINSt3__24pairIKiN4core17string_with_labelILi1EEEEEi18SInt32HashFunctionN14dense_hash_mapIiS5_S7_NS0_8equal_toIiEE13stl_allocatorIS6_L18MemLabelIdentifier1ELi16EEE9SelectKeyESA_SD_E9copy_fromERKSG_j
Dhh:_CustomAttributeNamedArgument_GetHashCode_m2317130892
ktb:__ZN15ResourceManagerD0Ev
o$j:_EqualityComparer_1_get_Default_m990790318_gshared
BZh:_GetRayIntersectionAllCallback__ctor_m391992746
GWa:__ZN22CreateGpuProgramOutputD2Ev
n0d:__ZNK5physx3Cct15ObstacleContext14getNbObstaclesEv
$2l:_ControllerColliderHit_t240592346_marshal_pinvoke_cleanup
bVb:__Z18Transfer_BlittableI19StreamedBinaryWriteILb0EELb1EsEvRK29SerializationCommandArgumentsR31RuntimeSerializationCommandInfo
ZFd:__Z17UpdateSprites2TplIL27ParticleSystemCurveEvalMode2ELS0_3EEvfRK11MinMaxCurveS3_RK23ParticleSystemParticlesPf
Owg:__ZL52HMACSHA512_t923916539_CustomAttributesCacheGeneratorP21CustomAttributesCache
X9e:__ZN5physx6shdfnd8PoolBaseINS_11NpAggregateENS0_19ReflectionAllocatorIS2_EEE12allocateSlabEv
Rye:__ZN5physx16NpParticleSystem23setParticleReadDataFlagENS_22PxParticleReadDataFlag4EnumEb
RX:__ZN7mecanim9animation23BlendDirectDataConstant8TransferI14SafeBinaryReadEEvRT_
hxd:__Z25UpdateOrbitalAndRadialTplIL27ParticleSystemCurveEvalMode3ELS0_4ELS0_0EEvRK11MinMaxCurveS3_S3_S3_S3_S3_S3_R23ParticleSystemParticlesjjRKN4math8float3x3ERKNS6_7affineXERKNS6_7_float4E
fCh:__ZN23InterfaceActionInvoker1IP25RectTransform_t3704657025E6InvokeEjP11Il2CppClassP12Il2CppObjectS1_
HOi:_SHA1CryptoServiceProvider_Finalize_m1793183797
zmh:_AnimationCurve_get_keys_m1672862131
X2j:_HashSet_1_System_Collections_Generic_ICollectionU3CTU3E_CopyTo_m408073502_gshared
Axe:__ZN5physx7NpScene26removeFromParticleBaseListERNS_14PxParticleBaseE
oxe:__ZN5physx23NpParticleFluidReadData18getDataAccessFlagsEv
Wzb:__ZN12HandlerChain4OpenER13FileEntryData14FilePermission16FileAutoBehavior
hMj:_Array_InternalArray__ICollection_Add_TisPlayerLoopSystem_t105772105_m1930641144_gshared
j3k:__Z72RuntimeInvoker_Void_t1185182177_Int32_t2950945753_RaycastHit_t1056001966PFvvEPK10MethodInfoPvPS4_
eBg:__ZL79Convert_t2465617642_CustomAttributesCacheGenerator_Convert_ToUInt16_m1147931813P21CustomAttributesCache
Rjm:__ZN15dense_hashtableINSt3__24pairIK10KeyWrapperINS1_IPK10MethodInfoP11Il2CppClassEEEjEES9_17ReflectionMapHashIS8_EN14dense_hash_mapIS9_jSD_NS9_14EqualsComparerINS0_8equal_toIS8_EEEENS0_9allocatorISB_EEE9SelectKeyESI_SK_E6insertERKSB_
Q1:__ZL55__ManagedRegistrationHelperFunction_AudioPlayableOutputPv
gId:__ZN27PerformanceReportingManager29OnSceneLoadedAfterAwakeStaticEPS_iR18AwakeFromLoadQueueN19RuntimeSceneManager11LoadingModeE
a2i:_Array_SetValue_m394135409
Kua:__ZN14FileCacherReadD2Ev
ewb:__ZN13RendererScene23UpdatePreviousFrameDataEii
Iwh:_MonoBehaviour_StopCoroutine_m615723318
WLc:__Z50Register_UnityEngine_CullingGroup_FinalizerFailurev
rel:_Mesh_GetAllocArrayFromChannel_TisVector2_t2156229523_m1057679375_gshared
fnd:__Z32TransferEnumWithNameForceIntSizeI14SafeBinaryReadN8UVModule4ModeEEvRT_RT0_PKc17TransferMetaFlags
Twb:__ZN27UnloadUnusedAssetsOperationD0Ev
GK:__ZN26AnimatorControllerPlayable6MemoryD2Ev
U5k:__Z56RuntimeInvoker_Int32_t2950945753_SpriteState_t1362986479PFvvEPK10MethodInfoPvPS4_
OIc:__ZN12ShaderErrors11ShaderErrorC2EOS0_
rVm:__ZNKSt3__221__basic_string_commonILb1EE20__throw_out_of_rangeEv
_Qe:__ZN5physx10PxsCCDPair12updateShapesEv
qKk:__Z78RuntimeInvoker_Boolean_t97287965_RuntimeObject_RuntimeObject_Int32_t2950945753PFvvEPK10MethodInfoPvPS4_
pem:_UpdatedEventHandler_Invoke_m1320302085
lWi:_String_Format_m630303134
zOk:__Z154RuntimeInvoker_Int32_t2950945753_RuntimeObject_Int32_t2950945753_Int32_t2950945753_SByte_t1669577662_Int32_t2950945753_SByte_t1669577662_SByte_t1669577662PFvvEPK10MethodInfoPvPS4_
Rym:__ZNK15dense_hashtableINSt3__24pairIK10KeyWrapperIP14Il2CppIUnknownEjEES5_N6il2cpp5utils11PointerHashIS3_EEN14dense_hash_mapIS5_jSB_NS5_14EqualsComparerINS0_8equal_toIS4_EEEENS0_9allocatorIS7_EEE9SelectKeyESG_SI_E12test_deletedERK24dense_hashtable_iteratorIS7_S5_SB_SK_SG_SI_E
eba:__ZN9AudioClip23VirtualRedirectTransferER18StreamedBinaryReadILb0EE
CR:__ZN26AnimatorOverrideController23VirtualRedirectTransferER24GenerateTypeTreeTransfer
iol:_List_1_AddEnumerable_m2724989594_gshared
jpl:_List_1_Contains_m2043463915_gshared
pte:__ZN5physx2Sc9ClothCore22removeCollisionCapsuleEj
$Xk:__Z82RuntimeInvoker_Vector2_t2156229523_Vector2_t2156229523_RuntimeObject_RuntimeObjectPFvvEPK10MethodInfoPvPS4_
P6c:__Z70Register_UnityEngine_Playables_PlayableHandle_GetPlayableType_Injectedv
N5b:__ZNK4PPtrI23ShaderVariantCollectionEcvPS0_Ev
V7d:__ZN5physx16PxsIslandManager25setArticulationLinkHandleEjPvRKNS_20PxsIslandManagerHookIjLj4294967295EEE
ck:_glCopyTexSubImage2D
dZc:__ZNK24RendererAnimationBinding13GetFloatValueERKN11UnityEngine9Animation10BoundCurveE
Atd:__ZNK21RotationBySpeedModule6UpdateERK27ParticleSystemReadOnlyStateRK19ParticleSystemStateR23ParticleSystemParticlesRKN4math7_float4Ejj
Via:__ZNK15DownloadHandler14HasPendingDataEv
Y4m:_glActiveTexture__wrapper
fGh:_UnitySynchronizationContext_ExecuteTasks_m1310741010
Rwl:_RIPEMD160Managed_CompressFinal_m497690796
V2b:__ZN18ScreenManagerWebGL13SetShowCursorEb
Zhi:_InternalEnumerator_1_MoveNext_m1773160976_gshared
Tgc:__ZN13DrawImmediateC2ER9GfxDevice
fZa:__ZN18VertexChannelsInfoC2ERA12_K11ChannelInfo
ACf:__ZN2UI13CanvasManager14GetRenderOrderEPKNS_6CanvasE
Khe:__ZN5physx6shdfnd5ArrayIPNS_3Scb5ShapeENS0_15InlineAllocatorILj16ENS0_19ReflectionAllocatorIS4_EEEEE15growAndPushBackERKS4_
sNb:__Z18Transfer_BlittableI14SafeBinaryReadLb0E5RectTIfEEvRK29SerializationCommandArgumentsR31RuntimeSerializationCommandInfo
jfh:_NumberFormatter_NumberToString_m2562899600
Swe:__ZNK5physx2Sc18ParticleSystemCore15getParticleMassEv
XPi:_SymmetricAlgorithm_get_FeedbackSize_m3666584308
lsf:_otv_u_C_x_Ox
MJd:__ZL44__ManagedRegistrationHelperFunction_ColliderPv
xmg:__ZL70RuntimeArray_CustomAttributesCacheGenerator_Array_GetValue_m1062368071P21CustomAttributesCache
g2m:_emscripten_glGenVertexArrays__wrapper
hkk:_Version_Clone_m1749041863
Kxi:_ShimEnumerator_get_Key_m4155849607_gshared
kab:__ZN6prcoreL21CreateRemapAnyBlitterE13TextureFormatS0_
gGi:_RSAManaged_ExportParameters_m1754454264
c3c:__ZN17AnimationCurveTplIfE16StripInvalidKeysEv
D4i:_Boolean_Equals_m535526264_AdjustorThunk
v5k:__Z71RuntimeInvoker_KeyValuePair_2_t71524366_Int32_t2950945753_RuntimeObjectPFvvEPK10MethodInfoPvPS4_
BNf:__ZN13dynamic_arrayIiLj0EE6insertEPiPKiS3_
Nml:_List_1_TrimExcess_m3801445587_gshared
KCf:__ZNK2UI6Canvas17GetSortingLayerIDEv
Awj:_Convert_ToUInt16_m3116648921
o4c:__ZL12HashLen0to16PKcj
xrm:_il2cpp_method_has_attribute
ngb:__ZN8Renderer24SetupNewRendererForSceneEv
Kfk:_Type_internal_from_name_m1721940673
Qrm:_il2cpp_type_get_class_or_element_class
jbl:_Array_swap_TisCustomAttributeTypedArgument_t2723150157_TisCustomAttributeTypedArgument_t2723150157_m365781156_gshared
MJh:_RemotingServices_GetMethodBaseFromName_m3194612939
Yhd:__Z35Transfer_Blittable_FixedBufferFieldI8JSONReadtEvRK29SerializationCommandArgumentsR31RuntimeSerializationCommandInfo
tVa:__ZN4PPtrI7TextureE8TransferI14SafeBinaryReadEEvRT_
w0e:__ZN5physx2Sc8ClothSim16addCollisionMeshEPKNS0_8ShapeSimE
$$c:__ZN14PlayableOutput6HandleEv
zhb:__ZNK6Sprite22GetTypeVirtualInternalEv
IKa:__ZN9Scripting11UnityEngine12Experimental9Playables22MaterialEffectPlayable9InitProxyEv
GLf:__ZNSt3__26__treeINS_12__value_typeIN4core12basic_stringIcNS2_20StringStorageDefaultIcEEEEN11UnityEngine7Connect19RemoteSettingsValueEEENS_19__map_value_compareIS6_SA_NS_4lessIS6_EELb1EEE13stl_allocatorISA_L18MemLabelIdentifier6ELi16EEE16__construct_nodeIJNS_4pairIS6_S9_EEEEENS_10unique_ptrINS_11__tree_nodeISA_PvEENS_22__tree_node_destructorISF_ISP_LSG_6ELi16EEEEEEDpOT_
Zn:FUNCTION_TABLE_iiiiiiiiiiiiii
i4l:_NativePropertyAttribute__ctor_m2033094153
y5e:__ZN5physx6shdfnd5ArrayIPKNS_10PxsCCDBodyENS0_19ReflectionAllocatorIS4_EEE8recreateEj
Ehe:__ZN5physx6shdfnd4sortINS_2Cm19PreallocatingRegionENS0_4LessIS3_EENS0_19ReflectionAllocatorIS3_EEEEvPT_jRKT0_RKT1_j
RNf:__ZN19UnityConnectService18OnPlayerQuitStaticEPS_
gck:_SynchronizationLockException__ctor_m3407855920
s0a:__ZN11Tetrahedron8TransferI24GenerateTypeTreeTransferEEvRT_
oXl:__ZL25UnresolvedVirtualCall_139P12Il2CppObject17Color_t2555686324PK10MethodInfo
ctf:_UNITY_tt_get_cmap_info
CNi:_SslClientStream_RaiseServerCertificateValidation_m3477149273
gUb:__Z29Transfer_Blittable_ArrayFieldI24GenerateTypeTreeTransfer5RectTIiEEvRT_R9ArrayInfoRK23StaticTransferFieldInfo
E$a:__ZN16ReflectionProbes8ScheduleEN18ReflectionProbeJob7JobTypeEP15ReflectionProbei
r2:__ZN15AudioMixerGroup23VirtualRedirectTransferER18StreamedBinaryReadILb0EE
Apl:_List_1_ToArray_m4056539300_gshared
Npg:__ZL51Calendar_t1661121569_CustomAttributesCacheGeneratorP21CustomAttributesCache
Sva:__ZN16MessageForwarder13HandleMessageEPviR11MessageData
vBb:__Z18IsDirectoryCreatedRKN4core12basic_stringIcNS_20StringStorageDefaultIcEEEE
hRi:_String_FormatHelper_m3913915042
_ze:__ZN5physx19NpRigidBodyTemplateINS_14PxRigidDynamicEE20setRigidDynamicFlagsENS_7PxFlagsINS_15PxRigidBodyFlag4EnumEhEE
IAf:__ZN2UI13CanvasManagerD2Ev
VGd:__ZZN14ParticleSystem15InitializeClassEvEN52PreLateUpdateParticleSystemBeginUpdateAllRegistrator7ForwardEv
K7l:__ZN15dense_hashtableINSt3__24pairIK10KeyWrapperIPKcEP11Il2CppClassEES5_N6il2cpp5utils11StringUtils12StringHasherIS4_EEN14dense_hash_mapIS5_S8_SE_NS5_14EqualsComparerINSB_13VmStringUtils21CaseSensitiveComparerEEENS0_9allocatorIS9_EEE9SelectKeyESJ_SL_E15set_deleted_keyERKS9_
amk:__ZN21InterfaceFuncInvoker1Ib20UIVertex_t4057497605E6InvokeEjP11Il2CppClassP12Il2CppObjectS0_
ppk:_ReadOnlyCollection_1_Contains_m1700717617_gshared
Z$i:_AttrListImpl_get_Names_m977594476
Bhh:_CustomAttributeData_GetHashCode_m3727773664
jnf:_UNITY_FT_GlyphLoader_Done
cBa:__ZNSt3__23mapIiN11TypeManager18TypeCallbackStructENS_4lessIiEENS_9allocatorINS_4pairIKiS2_EEEEEixERS7_
AWg:__ZL89GUIStyle_t3956901511_CustomAttributesCacheGenerator_GUIStyle_get_stretchWidth_m3556443132P21CustomAttributesCache
Jye:__ZN5physx22NpParticleBaseTemplateINS_16PxParticleSystemENS_16NpParticleSystemEE20setMaxMotionDistanceEf
RLb:__ZNK17InstancingBatcher15RenderInstancesERK19ShaderPropertySheetRKNS_22RenderInstancesConfigsERK11MeshBuffersRK16DrawBuffersRange16VertexInputMasks
xCj:_StackTrace_get_FrameCount_m344690939
yua:__ZN13dynamic_arrayIcLj0EE6insertEPcPKcS3_
mnj:_FileStream_BeginRead_m2419864669
zjf:__GLOBAL__sub_I_artifacts_WebGL_codegenerator_0_cpp_5442
IUe:__ZN5physx18ComputeSortedListsEPNS_2Cm10BitMapBaseINS_6shdfnd9AllocatorEEEjjPKjPPNS_8SapBox1DES7_PjSB_jRKNS_2Gu4AxesESB_RjSB_SG_RbSH_
JTf:_EventTrigger_OnInitializePotentialDrag_m2172162368
QY:__ZN7mecanim9animation19Blend2dDataConstant8TransferI18StreamedBinaryReadILb0EEEEvRT_
P_b:__Z35Transfer_Blittable_FixedBufferFieldI18StreamedBinaryReadILb0EEdEvRK29SerializationCommandArgumentsR31RuntimeSerializationCommandInfo
eUh:_Selectable_OnPointerDown_m1086067264
hyf:_psh_globals_new
l0f:_Dropdown_SetupTemplate_m628218778
Gbk:_Thread_GetCompressedStack_m2923422412
VGi:__ZN28GenericInterfaceFuncInvoker2IbP26X509Certificate_t713131622P22Int32U5BU5D_t385246372E6InvokeEPK10MethodInfoP12Il2CppObjectS1_S3_
vvh:_Matrix4x4_MultiplyPoint3x4_m4145063176
k8h:_X509BasicConstraintsExtension_ToString_m1809935297
BFb:__ZN9GfxDevice20SetMaxBufferedFramesEi
yFk:_TweenRunner_1_StartTween_m1055628540_gshared
w9k:_Array_qsort_TisUIVertex_t4057497605_TisUIVertex_t4057497605_m678708019_gshared
xrk:_ReadOnlyCollection_1_System_Collections_IList_Remove_m4129318771_gshared
ucl:_GameObject_GetComponents_TisRuntimeObject_m1246177135_gshared
y6:__ZN24AudioScriptBufferManagerD2Ev
QXm:dynCall_vdd
Yah:_MethodAccessException__ctor_m3542088436
VAc:__Z23ConvertIntegerToTypePtrIsEbPvR14SafeBinaryRead
YD:__ZN9Scripting11UnityEngine10Animations26AnimatorControllerPlayable9InitProxyEv
Tce:__ZNK5physx14NpArticulation17releaseDriveCacheERNS_24PxArticulationDriveCacheE
N7i:_ArrayListWrapper_get_Capacity_m51087796
LVh:_LayoutElement_get_minHeight_m4160507569
u2:__ZN15AudioMixerGroup23VirtualRedirectTransferER14SafeBinaryRead
$Lf:__ZN11UnityEngine7Connect13ConfigHandler13ConfigChangedERKN4core12basic_stringIcNS2_20StringStorageDefaultIcEEEEb
K_j:_EqualityComparer_1_System_Collections_IEqualityComparer_GetHashCode_m2230215241_gshared
x4g:__ZL60ContentSizeFitter_t3850442145_CustomAttributesCacheGeneratorP21CustomAttributesCache
ebj:_Hashtable_Contains_m2145146412
yGg:__ZL64UnmarshalledAttribute_t1517743549_CustomAttributesCacheGeneratorP21CustomAttributesCache
uEa:__ZN6prcoreL29inner_stretch_rgb565_bilinearEPKNS_9InnerInfoE
Yti:_Enumerator__ctor_m1195706188_AdjustorThunk
Sse:__ZNK5physx2Sc9ClothCore25getSelfCollisionStiffnessEv
Prd:__Z13UpdateSizeTplIL27ParticleSystemCurveEvalMode3EEvRK11MinMaxCurveR23ParticleSystemParticlesbjj
Xy:__ZN15NavMeshObstacle11UpdateStateEv
zsh:_MaterialEffectPlayable_Equals_m3750885802
rYa:__Z26TransformVerticesInnerLoopILb0ELb0ELb1EEvPhRK10Matrix4x4fRK10Matrix3x3fjPKhiS8_ii25GfxTransformVerticesFlagsj
eQm:__ZN6il2cpp2os9FastMutex4LockEv
iJh:_RemotingConfiguration_IsRemotelyActivatedClientType_m4117048589
hij:_Int32_FindCurrency_m3541026887
$di:_Interval_CompareTo_m3282557545
nRm:__ZN6il2cpp8metadata19Il2CppSignatureHash4HashERKNS_5utils13dynamic_arrayIPK10Il2CppTypeLj4EEE
k3m:_pthread_cond_wait__wrapper
esc:__ZNK14RenderSettings19GetFlatAmbientColorEv
LXa:__ZN8DrawUtil24DrawMeshRawFromNodeQueueERK15RenderNodeQueuej16VertexInputMasksi
bsb:__ZN18StreamedBinaryReadILb0EE21TransferSTLStyleArrayI10vector_mapIPKN5Unity4TypeE7Hash128NSt3__24lessIS6_EENS8_9allocatorINS8_4pairIS6_S7_EEEEEEEvRT_17TransferMetaFlags
ML:__ZNK27StateMachineBehaviourPlayer15IsSenderEnabledEv
skm:__ZN6il2cpp2gc19AppendOnlyGCHashMapINSt3__24pairIPK11Il2CppImageP11Il2CppClassEEP22Il2CppReflectionModule17ReflectionMapHashIS9_ENS2_8equal_toIS9_EEE11TryGetValueERKS9_PSB_
_3g:__ZL58Text_t1901882714_CustomAttributesCacheGenerator_m_FontDataP21CustomAttributesCache
Bkh:_GenericTypeParameterBuilder_IsPrimitiveImpl_m1952010459
ark:_ReadOnlyCollection_1_CopyTo_m3474153465_gshared
Awl:_RijndaelManagedTransform_TransformBlock_m1610137419
YPc:__Z40Register_UnityEngine_Transform_SetParentv
Qxg:__ZL94WindowsIdentity_t2948242406_CustomAttributesCacheGenerator_WindowsIdentity_Dispose_m3466258450P21CustomAttributesCache
B9a:__ZN14Texture2DArray17UploadToGfxDeviceEv
OJl:_Event_set_displayIndex_m1342258734
p5:__Z14FMODMemoryFreePvjPKc
ySg:__ZL100RectTransform_t3704657025_CustomAttributesCacheGenerator_RectTransform_INTERNAL_get_rect_m3130887130P21CustomAttributesCache
b6j:_Enumerator__ctor_m2029608698_gshared
BKa:__ZN9Scripting11UnityEngine12Experimental10PlayerLoop11FixedUpdate12CleanupProxyEv
Khj:_Int16_System_IConvertible_ToType_m3672347013
vrh:_NetFxCoreExtensions_GetMethodInfo_m444570327
Bfk:_Type_get_IsSystemType_m624798880
Yvh:_Mesh_SetNormals_m2521889643
dr:__ZN12NavMeshAgent10SmartResetEv
avf:_tt_cmap0_validate
vng:__ZL107ArrayReadOnlyList_1_t221793636_CustomAttributesCacheGenerator_ArrayReadOnlyList_1_GetEnumerator_m2012327150P21CustomAttributesCache
upf:_cf2_glyphpath_moveTo
BKe:__ZN5physx3Scb4Body9syncStateEv
V5c:__Z51Register_UnityEngine_Texture_get_texelSize_Injectedv
VDh:_StackTraceUtility_SetProjectFolder_m830524047
bhe:__ZN5physx12PxsRigidBody23updatePoseDependenciesVERNS_10PxsContextE
kI:__ZN7mecanim23TransformValueArrayLoopEiiiRKN4math4trsXES3_RNS_10ValueArrayEf
MJi:_ClientSessionInfo_Finalize_m2165787049
vcd:__ZN5IMGUI14GUIWindowStateD2Ev
JIi:_ClientContext_Clear_m1774063253
R1c:__ZN4Mesh17SetIndicesComplexEPKvjj16GfxPrimitiveTypeij
ZEd:__Z20UpdateWholeSheet2TplIL27ParticleSystemCurveEvalMode1ELS0_0EEvfRK11MinMaxCurveS3_RK23ParticleSystemParticlesPf
Ryj:_DateTime_AddSeconds_m332574389_AdjustorThunk
dYg:__ZL81Physics_t2310948930_CustomAttributesCacheGenerator_Physics_RaycastAll_m2266459302P21CustomAttributesCache
e5i:_Byte_System_IConvertible_ToSByte_m1869482168
O0f:_U3CDelayedDestroyDropdownListU3Ec__Iterator0_MoveNext_m213723240
U4b:__Z21PlayerStartFirstSceneb
kP:__ZN7mecanim5human10RetargetToEPKNS0_5HumanEPKNS0_9HumanPoseES6_RKN4math4trsXEPS4_PNS_8skeleton13SkeletonPoseTIS8_EESF_
dI:__ZN7mecanim9animation8SeekClipERKNS0_12StreamedClipERNS0_18StreamedClipMemoryEf
gth:_GameObject_Internal_AddComponentWithType_m3797731663
Nm:_emscripten_glIsTexture
DU:__ZN24CompressedAnimationCurveaSERKS_
sl:_emscripten_glHint
ZMl:_Check_SourceAndPredicate_m2332465641
nmg:__ZL70RuntimeArray_CustomAttributesCacheGenerator_Array_get_Length_m21610649P21CustomAttributesCache
Swf:_ft_var_readpackeddeltas
OOg:__ZL80Logger_t274032455_CustomAttributesCacheGenerator_U3ClogEnabledU3Ek__BackingFieldP21CustomAttributesCache
jYj:_Dictionary_2_Clear_m1938428402_gshared
oXb:__Z35Transfer_Blittable_FixedBufferFieldI18StreamedBinaryReadILb1EEtEvRK29SerializationCommandArgumentsR31RuntimeSerializationCommandInfo
Vhk:_UInt32_System_IConvertible_ToInt64_m2261037378
Qm:_SDL_UpperBlit
g5e:__ZN5physx2Cm12DelegateTaskINS_2Sc5SceneEXadL_ZNS3_13ccdBroadPhaseEPNS_10PxBaseTaskEEEED0Ev
b7j:_List_1_System_Collections_IList_Add_m49923158_gshared
z$a:__Z35GetTextureDecodeValuesWithIntensity16TextureUsageMode17TextureColorSpace10ColorSpacef
HFl:_Parser_ParseRepetitionBounds_m1246581246
eGj:_Array_InternalArray__ICollection_Remove_TisChar_t3634460470_m4143749387_gshared
fhc:__ZN15dense_hashtableINSt3__24pairIK9TextureIDiEES2_14GfxGenericHashIS2_EN14GfxDoubleCacheIS2_iS6_NS0_8equal_toIS2_EEN31GfxDoubleCacheConcurrencyPolicy11LocklessGetE42GfxDoubleCacheDefaultEmptyDeletedGeneratorIS2_EE9SelectKeyES9_13stl_allocatorIS4_L18MemLabelIdentifier24ELi16EEE14squash_deletedEv
PRc:__Z13RegisterClassI14Texture2DArrayEvPKc
qlm:__ZN15dense_hashtableINSt3__24pairIK10KeyWrapperINS1_IPK12PropertyInfoP11Il2CppClassEEEjEES9_17ReflectionMapHashIS8_EN14dense_hash_mapIS9_jSD_NS9_14EqualsComparerINS0_8equal_toIS8_EEEENS0_9allocatorISB_EEE9SelectKeyESI_SK_ED2Ev
DWe:__ZN5physx14PxsAABBManager21processAggregatePairsEPKNS_19AggregateSortedDataE
eXb:__Z18Transfer_BlittableI18StreamedBinaryReadILb1EELb0E9BoundsIntEvRK29SerializationCommandArgumentsR31RuntimeSerializationCommandInfo
Ycj:_GregorianCalendar__ctor_m979779718
bNi:_SslClientStream__ctor_m2402546929
J1b:__ZN14SafeBinaryRead20OverrideRootTypeNameEPKc
s4h:_DictionaryNodeEnumerator_get_Entry_m2309234501
P4l:__ZNK10KeyWrapperIPK22Il2CppGenericParameterE14EqualsComparerINSt3__28equal_toIS2_EEEclERKS3_SA_
Oua:__ZN14FileCacherRead16UnlockCacheBlockEj
o5j:_Enumerator_Dispose_m951715887_AdjustorThunk
iji:_InternalEnumerator_1_System_Collections_IEnumerator_Reset_m521819017_AdjustorThunk
bS:__ZN26AnimatorOverrideController8TransferI24GenerateTypeTreeTransferEEvRT_
Vmj:_IsolatedStorageException__ctor_m1022659452
Zje:__ZNK5physx12NpBatchQuery23getFilterShaderDataSizeEv
Yoa:__ZN10InstancingL21OnGraphicsCapsChangedEv
PQb:__Z18Transfer_BlittableI17RemapPPtrTransferLb1E8Vector3fEvRK29SerializationCommandArgumentsR31RuntimeSerializationCommandInfo
jtg:__ZL61ClassInterfaceType_t4029497327_CustomAttributesCacheGeneratorP21CustomAttributesCache
RMg:__ZL101SystemInfo_t3561985952_CustomAttributesCacheGenerator_SystemInfo_GetOperatingSystemFamily_m1440411909P21CustomAttributesCache
Jdk:_WaitHandle_get_Handle_m3260446580
j6j:_Enumerator_VerifyState_m1745883925_AdjustorThunk
fd:_emscripten_glUniform1f
Eqj:_SortedList__ctor_m1261191695
Dsm:__ZN6il2cpp2vm6Thread28GetThreadStaticDataForThreadEiP12Il2CppThread
knd:__ZN14SafeBinaryRead21TransferSTLStyleArrayI13dynamic_arrayIN8UVModule10SpriteDataELj0EEEEvRT_17TransferMetaFlags
Yhf:__ZN5physx7profile11EventBufferINS_24PxDefaultContextProviderENS_6shdfnd6MutexTINS0_26WrapperReflectionAllocatorIhEEEENS0_14ScopedLockImplIS7_EENS_24PxProfileNullEventFilterEE10doAddEventINS0_17RelativeStopEventEEEvhtRKT_
zIk:__Z75RuntimeInvoker_Int32_t2950945753_DecimalU26_t3714369516_Int64U26_t200113976PFvvEPK10MethodInfoPvPS4_
Wnf:__Z20ParseImageParametersR11UTF16StringRiRN20TextRenderingPrivate16TextFormatChangeE
m4g:__ZL55CanvasScaler_t2767979955_CustomAttributesCacheGeneratorP21CustomAttributesCache
jnk:_Collection_1_RemoveItem_m2942561924_gshared
kd:_emscripten_glUniform1i
DSb:__Z18Transfer_BlittableI24GenerateTypeTreeTransferLb1EN4math12int3_storageEEvRK29SerializationCommandArgumentsR31RuntimeSerializationCommandInfo
sP:__ZN12_GLOBAL__N_119PreProcessAnimationER35AnimationPlayableEvaluationConstantR17AnimationPlayable
h4e:__ZN5physx2Sc19ShapeInstancePairLL23postIslandGenSecondPassEv
gLd:__ZN14PhysicsManager23VirtualRedirectTransferER19StreamedBinaryWriteILb0EE
gkm:__ZN15dense_hashtableINSt3__24pairIK10KeyWrapperINS1_IPK10MethodInfoP11Il2CppClassEEEjEES9_17ReflectionMapHashIS8_EN14dense_hash_mapIS9_jSD_NS9_14EqualsComparerINS0_8equal_toIS8_EEEENS0_9allocatorISB_EEE9SelectKeyESI_SK_E12expand_arrayEjN21dense_hash_map_traits17integral_constantIbLb0EEE
oha:__ZN11UnityEngine15CloudWebService16SessionContainer20RestoreSessionHeaderERKN4core12basic_stringIcNS2_20StringStorageDefaultIcEEEES8_RNS0_13SessionHeaderE
pif:__ZN5physx26PxPhysicsInsertionCallbackD2Ev
jOf:__ZN22UnityWebRequestManager13BackendRetainEv
a1c:__ZN8Material28ApplyMaterialPropertyDrawersEv
RPe:__ZN5physx2Sq16BucketPrunerCore12updateObjectERKNS_9PxBounds3ERKNS0_13PrunerPayloadE
u3e:__ZN5physx18PxsDynamicsContext23atomIntegrationParallelEfPKPNS_11PxsBodyCoreEPKPNS_12PxsRigidBodyEjPKNS_2Cm13SpatialVectorEPNS_13PxcSolverBodyEPNS_17PxcSolverBodyDataEPSA_RjSI_RNS_10PxBaseTaskE
Uui:_Enumerator_Dispose_m1360775770_AdjustorThunk
u5l:__ZN24dense_hashtable_iteratorINSt3__24pairIK10KeyWrapperIPK22Il2CppGenericParameterEP11Il2CppClassEES6_N6il2cpp5utils11PointerHashIS4_EEN14dense_hash_mapIS6_S9_SE_NS6_14EqualsComparerINS0_8equal_toIS5_EEEENS0_9allocatorISA_EEE9SelectKeyESJ_SL_E30advance_past_empty_and_deletedEv
TE:__ZN11UnityEngine9Animation27CreateAvatarBindingConstantER9TransformPKN7mecanim9animation14AvatarConstantERNS3_6memory9AllocatorE
p5h:_MonoTODOAttribute__ctor_m1298576268
VXh:_MaskableGraphic_get_onCullStateChanged_m3331479633
EMk:__Z151RuntimeInvoker_RuntimeObject_Int32_t2950945753_RuntimeObject_ObjectU5BU5DU26_t712384779_RuntimeObject_RuntimeObject_RuntimeObject_ObjectU26_t2146539884PFvvEPK10MethodInfoPvPS4_
MGf:__ZN8JSONRead19TransferSTLStyleMapINSt3__23mapIN4core12basic_stringIcNS3_20StringStorageDefaultIcEEEEN11UnityEngine9Analytics16LimitEventConfigENS1_4lessIS7_EE13stl_allocatorINS1_4pairIKS7_SA_EEL18MemLabelIdentifier6ELi16EEEEEEvRT_17TransferMetaFlags
m5c:__ZN9BlobWriteC2ER13dynamic_arrayIhLj16EE24TransferInstructionFlags19BuildTargetPlatform
WYf:_CanvasUpdateRegistry__ctor_m2005397069
aRg:__ZL77Input_t1431474628_CustomAttributesCacheGenerator_Input_GetAxisRaw_m2316819917P21CustomAttributesCache
Vv:__ZN12NavMeshAgent14OnNavMeshAddedEv
Wsa:__ZN14MessageHandler3GetEv
k8f:_MonoMethodInfo_GetCallingConvention_m3156036493
$fi:_InternalEnumerator_1__ctor_m1359891754_AdjustorThunk
Rsh:_SupportedRenderingFeatures_FallbackMixedLightingModeByRef_m3859171964
zd:_emscripten_glAttachShader
_rl:_Collection_1_get_Count_m3411178618_gshared
Yma:__Z40DebugStringToFilePostprocessedStacktraceRK21DebugStringToFileData
N4f:_Image__cctor_m1927508576
rck:_SendOrPostCallback_EndInvoke_m2485163446
dGc:__ZNSt3__26vectorIN4core12basic_stringIcNS1_20StringStorageDefaultIcEEEENS_9allocatorIS5_EEE6assignIPS5_EENS_9enable_ifIXaasr21__is_forward_iteratorIT_EE5valuesr16is_constructibleIS5_NS_15iterator_traitsISC_E9referenceEEE5valueEvE4typeESC_SC_
ZZd:__ZN5physx2Gu19GetRaycastFuncTableEv
Bfb:__ZThn32_N8Renderer15AddAsRenderNodeER15RenderNodeQueueRK20DeprecatedSourceData
Cdc:__ZN13dynamic_arrayIN18GlslGpuProgramGLES9GLProgramELj0EE6insertEPS1_jRKS1_
Lqi:_InternalEnumerator_1_get_Current_m3331252162_AdjustorThunk
hlg:__ZL76String_t_CustomAttributesCacheGenerator_String_Concat_m1809518182____values0P21CustomAttributesCache
$Mb:__Z18Transfer_BlittableI14SafeBinaryReadLb0E11QuaternionfEvRK29SerializationCommandArgumentsR31RuntimeSerializationCommandInfo
$3e:__ZN5physx17EdgeChangeManager23cleanupBrokenEdgeEventsEPKNS_4EdgeE
x_b:__Z18Transfer_BlittableI18StreamedBinaryReadILb0EELb1E12PropertyNameEvRK29SerializationCommandArgumentsR31RuntimeSerializationCommandInfo
Gma:_tlsf_walk_heap
tMk:__Z49RuntimeInvoker_Void_t1185182177_OpCode_t123070264PFvvEPK10MethodInfoPvPS4_
R2d:__ZN5physx2Sc35ParticleElementRbElementInteraction7destroyEbj
oum:__ZNK15dense_hashtableINSt3__24pairIK10KeyWrapperIP11Il2CppClassES4_EES5_N6il2cpp8metadata16SZArrayClassHashEN14dense_hash_mapIS5_S4_SA_NS5_14EqualsComparerINS9_19SZArrayClassCompareEEENS0_9allocatorIS7_EEE9SelectKeyESE_SG_E10test_emptyERK24dense_hashtable_iteratorIS7_S5_SA_SI_SE_SG_E
xVc:__ZNK25BlendshapePropertyBinding38SerializedPropertyPathToCurveAttributeER6ObjectPKc
TUk:__Z69RuntimeInvoker_Void_t1185182177_Int32_t2950945753_HitInfo_t3229609740PFvvEPK10MethodInfoPvPS4_
yTg:__ZL59AnimatorClipInfo_t3156717155_CustomAttributesCacheGeneratorP21CustomAttributesCache
Zwj:_Convert_ToUInt32_m3592050311
tb:invoke_vif
jcl:_Component_GetComponents_TisRuntimeObject_m2416546752_gshared
ub:invoke_vid
bni:_InternalEnumerator_1__ctor_m2202456613_AdjustorThunk
JVm:__ZNSt3__212basic_stringIcNS_11char_traitsIcEENS_9allocatorIcEEE6insertEjPKc
Bs:__ZN12CrowdManager21UpdateAgentParametersEyPK16CrowdAgentParams
wb:invoke_vii
dlc:__ZNK12ImageFilters8DoRenderER17ShaderPassContextP13RenderTextureS3_RKNSt3__26vectorI11ImageFilterNS4_9allocatorIS6_EEEE
UIe:__ZN5physx13NpVolumeCacheD2Ev
GPa:__ZN12TLSAllocatorI14StackAllocatorE16ThreadInitializeEP13BaseAllocator
TNk:__Z82RuntimeInvoker_Boolean_t97287965_SByte_t1669577662_RuntimeObject_SByte_t1669577662PFvvEPK10MethodInfoPvPS4_
MFb:__ZN9GfxDevice32UpdateStereoViewProjectionMatrixE21MonoOrStereoscopicEye
W0e:__ZThn8_N5physx2Sc35ParticleElementRbElementInteraction12onDeactivateEj
Gja:__Z29GetCloudWebServicesModuleSpecv
FDf:__Z41CanvasRenderer_CUSTOM_DisableRectClippingP12Il2CppObject
ich:_MonoType_GetConstructorImpl_m441167626
NSe:__ZN5physx16PxsThreadContextC2EPNS_10PxsContextE
tFa:__ZL45__ManagedRegistrationHelperFunction_CoroutinePv
WKf:__ZNSt3__26__treeINS_12__value_typeIN4core12basic_stringIcNS2_20StringStorageDefaultIcEEEE14CallbackArray3IRKS6_R8JSONReadbEEENS_19__map_value_compareIS6_SD_NS_4lessIS6_EELb1EEE13stl_allocatorISD_L18MemLabelIdentifier6ELi16EEE4findIS6_EENS_15__tree_iteratorISD_PNS_11__tree_nodeISD_PvEEiEERKT_
ztl:_Collection_1_IsFixedSize_m3709118201_gshared
ZDb:__ZN25SingleBlockMemoryFileDataD0Ev
f1:__ZNSt3__26vectorI14ConstantStringNS_9allocatorIS1_EEE6assignINS_11__wrap_iterIPS1_EEEENS_9enable_ifIXaasr21__is_forward_iteratorIT_EE5valuesr16is_constructibleIS1_NS_15iterator_traitsISA_E9referenceEEE5valueEvE4typeESA_SA_
Qwk:_ReadOnlyCollection_1_CopyTo_m586367390_gshared
_Vd:__ZN5physx3Cct10Controller4moveERNS0_11SweptVolumeERKNS_6PxVec3EffRKNS_19PxControllerFiltersEPKNS_17PxObstacleContextEb
jha:__ZN11UnityEngine15CloudWebService16SessionContainer21ConvertFromFolderTimeERKN4core12basic_stringIcNS2_20StringStorageDefaultIcEEEEPjPt
bvb:__Z15UnloadGameScenev
LOb:__ZNSt3__26vectorI8GUIStyle13stl_allocatorIS1_L18MemLabelIdentifier1ELi16EEE7reserveEj
Frk:_ReadOnlyCollection_1_Contains_m3869904379_gshared
wzk:_Nullable_1_Equals_m2119234996_gshared
mvm:__ZN6il2cpp6icalls8mscorlib6System9Threading6Thread27GetSerializedCurrentCultureEP12Il2CppThread
eJj:__ZN21InterfaceFuncInvoker2IibbE6InvokeEjP11Il2CppClassP12Il2CppObjectbb
hKi:_Context_set_ReadSequenceNumber_m2154909392
vwl:_RijndaelTransform_SubByte_m3037693507
tTc:__Z31CalculateHierarchyTransformType23TransformAccessReadOnly
CFl:_ExpressionCollection_Add_m41125344
R4:__ZN4FMOD8ChannelI11setPositionEjj
Qth:_Input_INTERNAL_CALL_GetTouch_m3481893561
tze:__ZN5physx15NpActorTemplateINS_14PxRigidDynamicEE17setDominanceGroupEh
gLm:_GC_set_fl_marks
B9d:__ZN5physx6shdfnd8PoolBaseINS_2Sc12SimStateDataENS0_19ReflectionAllocatorIS3_EEE17releaseEmptySlabsEv
O3f:_Image__ctor_m2551076292
PFb:__ZN9GfxDevice17SetStereoViewportE15StereoscopicEyeRK5RectTIiE
UAa:__ZN17BaseObjectManager13StaticDestroyEPv
zla:__GLOBAL__sub_I_Runtime_Graphics_Mesh_1_cpp
A$l:_CanvasRenderer_INTERNAL_CALL_GetColor_m597074473
Ocg:_ClassInterfaceAttribute__ctor_m637338123
Yak:_UTF7Decoder_GetChars_m3413809261
ZPd:__ZN5physx2Gu22closestPtPointTriangleEPNS_6shdfnd3aos5Vec3VES4_S4_Rj
$ra:__ZN12CachedReader8InitReadER15CacheReaderBasejj
pmg:__ZL70RuntimeArray_CustomAttributesCacheGenerator_Array_get_Rank_m3448755881P21CustomAttributesCache
wje:__ZN5physx2Cm8PtrTableC2Ev
foj:_FileSystemInfo_get_FullName_m3468398407
gFh:_Vector3_get_forward_m3100859705
U2:__ZN4FMOD6Reverb13setPropertiesEPK22FMOD_REVERB_PROPERTIES
eve:__ZNK5physx22NpParticleBaseTemplateINS_15PxParticleFluidENS_15NpParticleFluidEE14getRestitutionEv
Rmc:__ZN9DepthPass13PrepareSubsetEjRK10RenderNodeifRK17ShaderReplaceData
XVe:__ZN5physx16PxsBroadPhaseMBP6updateEjjRKNS_23PxcBroadPhaseUpdateDataEPNS_10PxBaseTaskE
kne:__ZN5physx9NpPhysics18createRigidDynamicERKNS_11PxTransformE
p4d:__ZN5physx6shdfnd5ArrayIPvNS0_19ReflectionAllocatorINS_2Sc18TriggerInteractionEEEE15growAndPushBackERKS2_
VEc:__ZN9ShaderLab20SerializedSubProgram16TextureParameter8TransferI14SafeBinaryReadEEvRT_
HHk:__Z82RuntimeInvoker_Int32_t2950945753_RuntimeObject_Int32_t2950945753_Int32_t2950945753PFvvEPK10MethodInfoPvPS4_
NDi:_ASN1__ctor_m3517592395
PC:__ZL63__ManagedRegistrationHelperFunction_AnimationLayerMixerPlayablePv
d2c:__Z35SetMeshComponentFromArrayFromScriptR4Mesh30InternalScriptingShaderChannel34InternalScriptingVertexChannelTypei17ScriptingArrayPtri
j$a:__ZN4PPtrI6ShaderE8TransferI19StreamedBinaryWriteILb0EEEEvRT_
LLj:_Array_InternalArray__ICollection_Add_TisCustomAttributeNamedArgument_t287865710_m4157175270_gshared
ASd:__ZN5physx2Gu17intersectRayAABB2ERKNS_6shdfnd3aos5Vec3VES5_S5_S5_RKNS2_6FloatVERS6_S9_
yw:__ZN4core20StringStorageDefaultIcE6assignEPKcj
_ik:_UInt64_System_IConvertible_ToUInt64_m2135047981_AdjustorThunk
Crl:_Collection_1_System_Collections_IEnumerable_GetEnumerator_m1376351129_gshared
ooe:__ZNK5physx7NpShape17getSphereGeometryERNS_16PxSphereGeometryE
$Ci:_BigInteger_ModPow_m3776562770
FZd:__ZL18intersectAnyVsMeshILi1EEbPKN5physx2Gu6SphereEPKNS1_7CapsuleEPKNS1_3BoxERKNS1_13RTreeMidphaseERKNS0_11PxTransformERKNS0_11PxMeshScaleEP14LimitedResults
DCm:__ZN15dense_hashtableINSt3__24pairIK10KeyWrapperIP12Il2CppObjectEN6il2cpp2gc9CachedCCWEEES5_NS7_5utils11PointerHashIS3_EEN14dense_hash_mapIS5_S9_SD_NS5_14EqualsComparerINS0_8equal_toIS4_EEEENS0_9allocatorISA_EEE9SelectKeyESI_SK_E3endEv
XKf:__ZNSt3__26__treeINS_12__value_typeIN4core12basic_stringIcNS2_20StringStorageDefaultIcEEEE14CallbackArray3IRKS6_R8JSONReadbEEENS_19__map_value_compareIS6_SD_NS_4lessIS6_EELb1EEE13stl_allocatorISD_L18MemLabelIdentifier6ELi16EEE25__emplace_unique_key_argsIS6_JNS_4pairIS6_SC_EEEEENSN_INS_15__tree_iteratorISD_PNS_11__tree_nodeISD_PvEEiEEbEERKT_DpOT0_
$qh:_ArgumentCache_get_unityObjectArgumentAssemblyTypeName_m3450114170
jXc:__ZN15SharedLightDataC2E10MemLabelId
o7i:_ArrayList_IndexOf_m305368842
bpl:_List_1_Add_m2996644200_gshared
J7d:__ZN5physx6shdfnd5ArrayIPvNS0_15InlineAllocatorILj256ENS0_19ReflectionAllocatorINS_2Cm5BlockIhLj128EEEEEEEE15growAndPushBackERKS2_
Rwc:__ZN6Camera6SetFarEf
IKh:_FormatterConverter_ToBoolean_m1680758923
eEa:__ZN6prcoreL12RemapGenericI17TexFormatABGR888817TexFormatARGB8888EEvPKNS_9InnerInfoE
dQa:__ZN11GameManager17MainThreadCleanupEv
wrj:_Stack_get_Count_m2258661097
dwd:__Z25UpdateOrbitalAndRadialTplIL27ParticleSystemCurveEvalMode1ELS0_4ELS0_2EEvRK11MinMaxCurveS3_S3_S3_S3_S3_S3_R23ParticleSystemParticlesjjRKN4math8float3x3ERKNS6_7affineXERKNS6_7_float4E
mDf:__Z50Register_UnityEngine_UISystemProfilerApi_EndSamplev
dVj:_Dictionary_2_System_Collections_ICollection_get_SyncRoot_m2020472285_gshared
opi:_InternalEnumerator_1_System_Collections_IEnumerator_Reset_m1775752715_AdjustorThunk
SGg:__ZL91Application_t1852185770_CustomAttributesCacheGenerator_Application_get_isPlaying_m100394690P21CustomAttributesCache
bfg:_ConfigHandler_OnProcessingInstruction_m4212209262
$qd:__ZN14ParticleSystem10ResetSeedsEv
JLh:_SerializationCallbacks_GetSerializationCallbacks_m2939476649
Rqe:__ZNK5physx7NpCloth24getParticleAccelerationsEPNS_6PxVec4E
NKb:__ZNSt3__26vectorIN20GpuProgramParameters19AtomicCounterBufferENS_9allocatorIS2_EEE21__push_back_slow_pathIRKS2_EEvOT_
Evf:_UNITY_tt_slot_init
zic:__ZZ23InitPlayerLoopCallbacksvEN41PostLateUpdateUpdateResolutionRegistrator7ForwardEv
Ywi:_KeyCollection_GetEnumerator_m1168803204_gshared
m0b:__Z25scripting_array_class_get17ScriptingClassPtrj
gye:__ZN5physx22NpParticleBaseTemplateINS_16PxParticleSystemENS_16NpParticleSystemEE20lockParticleReadDataEv
Raa:__ZNK10SampleClip22GetTypeVirtualInternalEv
HGb:__ZN9GfxDevice20DestroyRenderSurfaceER12ObjectHandleI17RenderSurface_TagP17RenderSurfaceBaseE
trj:_Stack__ctor_m2602729586
UGk:__Z77RuntimeInvoker_Byte_t1134296376_RuntimeObject_Int32_t2950945753_RuntimeObjectPFvvEPK10MethodInfoPvPS4_
jAg:__ZL81Convert_t2465617642_CustomAttributesCacheGenerator_Convert_ToDateTime_m1031474510P21CustomAttributesCache
Kij:_Int32_System_IConvertible_ToInt32_m265310525_AdjustorThunk
V2i:_Array_slow_swapper_m4116724811
Jvc:__ZN12_GLOBAL__N_15qAsinEff
Eqh:_Display__ctor_m3105658851
Cbj:_HashValues_get_IsSynchronized_m3461082747
zii:_InternalEnumerator_1_System_Collections_IEnumerator_get_Current_m2629988057_AdjustorThunk
HPa:__ZN12TLSAllocatorI14StackAllocatorE13ThreadCleanupEv
wkb:__ZN14SafeBinaryRead21TransferSTLStyleArrayI13dynamic_arrayI8Vector4fLj0EEEEvRT_17TransferMetaFlags
$4:__Z18GetAudioManagerPtrv
Tjk:_ValueType_InternalEquals_m1384040357
mJi:_Context_get_HandshakeMessages_m3655705111
NIm:__ZThn4_N6il2cpp2vm13ComObjectBase16MarshalInterfaceEP13Il2CppIStreamRK10Il2CppGuidPvjS7_j
Kuj:_Convert_ToDouble_m996590115
fCc:__Z27FindActiveTransformWithPathPKc
Ttk:_ReadOnlyCollection_1_System_Collections_IList_Remove_m4169110229_gshared
zhk:_UInt16_ToString_m3020002356
GEe:__ZN5physx16PxsIslandManager14setEdgeRigidCMERKNS_20PxsIslandManagerHookIjLj4294967295EEEPNS_17PxsContactManagerE
XWh:_LayoutRebuilder_LayoutComplete_m68578143
C4l:_RequiredByNativeCodeAttribute__ctor_m119855101
uSa:__ZN12BaseRendererD0Ev
MAc:__Z29StdTemplateConversionFunctionIbyEbPvR14SafeBinaryRead
rwl:_RijndaelManaged_GenerateKey_m1736287430
Ece:__ZN5physx14NpArticulation25setStabilizationThresholdEf
hLl:_GUIStyle_get_fixedWidth_m2576616348
F_g:__ZL90PointerEventData_t3807901092_CustomAttributesCacheGenerator_U3ClastPressU3Ek__BackingFieldP21CustomAttributesCache
Uqj:_SortedList_Find_m3363512987
u8e:__ZN5physx2Gu11HeightField7releaseEv
Yoc:__ZNK6Camera7GetNearEv
mkh:_GenericTypeParameterBuilder_GetConstructorImpl_m863833310
Ty:__Z23CalcCapsuleWorldExtentsP8Vector3fRKS_S2_S2_S2_
jwi:_Enumerator_get_Current_m3687673883_AdjustorThunk
bCf:__ZN2UI13CanvasManager8SortListEv
jdc:__ZN7ApiGLES11UnmapBufferEjN2gl12BufferTargetE
cJm:__ZN6il2cpp5utilsL24Utf32CharToSurrogatePairEjRA2_Ds
pcb:__Z25GetNextAllowedTextureSizeib13TextureFormat
Bdc:__ZNK16UniformCacheGLES6SubmitEjRK13dynamic_arrayIN20GpuProgramParameters14ValueParameterELj0EERKS0_IiLj0EE
pka:__ZN19CloudServiceHandler6RetainEv
hRm:__ZN6il2cpp2os9Semaphore4WaitEb
lqk:_ReadOnlyCollection_1_System_Collections_IList_IndexOf_m198887188_gshared
bwb:__ZN26LightProbeProxyVolumeUtilsL28ComputeGlobalAABBOnHierarchyER9TransformR10MinMaxAABB
iZk:__Z71RuntimeInvoker_Vector2_t2156229523_Vector2_t2156229523_Rect_t2360479859PFvvEPK10MethodInfoPvPS4_
uad:__Z36Event_CUSTOM_Internal_SetNativeEventPv
mak:_UTF32Encoding_GetBytes_m3180303867
kpl:_List_1_CopyTo_m4034402519_gshared
x0e:__ZN5physx2Sc8ClothSim23addCollisionHeightfieldEPKNS0_8ShapeSimE
Yrk:_ReadOnlyCollection_1_System_Collections_IList_Clear_m2007013334_gshared
fxb:__Z34scripting_liveness_calculation_endPv
I5i:_Char_GetDataTablePointers_m754571594
gFm:__ZN6il2cpp2os6ThreadC2Ev
$ei:_U3CGetEnumeratorU3Ec__Iterator0_System_Collections_Generic_IEnumeratorU3CTU3E_get_Current_m1566629109_gshared
JXc:__ZN28ReflectionProbeAnchorManager7CleanupEv
Xkl:_List_1_set_Capacity_m725662605_gshared
Tzj:_DateTimeOffset_get_UtcDateTime_m1021718282_AdjustorThunk
DEa:__ZN16memory_pool_implILi64EE15AutoPoolWrapper12UninitializeEPv
It:__ZN7NavMesh25SetOffMeshConnectionFlagsEyj
yH:__ZN21AnimationClipPlayable22ProcessAnimationNoClipEPK35AnimationPlayableEvaluationConstantPK32AnimationPlayableEvaluationInputP33AnimationPlayableEvaluationOutput
P3h:_HybridDictionary_get_Count_m1166314536
Czl:_TlsStream_Write_m1412844442
Ahd:__Z18Transfer_BlittableI8JSONReadLb0E8Vector3fEvRK29SerializationCommandArgumentsR31RuntimeSerializationCommandInfo
gU:__ZN13AnimationClip12Vector3Curve8TransferI14SafeBinaryReadEEvRT_
nvh:_Matrix4x4__ctor_m53065545_AdjustorThunk
esm:__ZN6il2cpp2vm6Thread6DetachEP12Il2CppThread
dAl:_GeneralNames_get_DNSNames_m3788548987
Wel:_List_1_AddCollection_m2026039026_gshared
wyf:_Render_Single_Pass
ige:__ZNK5physx18NpArticulationLink13isSubordinateEv
mVc:__ZZN19SkinnedMeshRenderer15InitializeClassEvEN29FunctorImpl_892kDidDeleteMesh4CallEPviR11MessageData
xMh:_SerializationEntry_t648286436_marshal_pinvoke
MFa:__ZL56__ManagedRegistrationHelperFunction_TextureMixerPlayablePv
fF:__ZN7mecanim8skeleton30SkeletonBuildReverseIndexArrayEPiPKiPKNS0_8SkeletonES6_
Gxd:__Z22UpdateOrbitalOffsetTplIL27ParticleSystemCurveEvalMode0ELS0_0EEvRK11MinMaxCurveS3_S3_S3_S3_S3_S3_R23ParticleSystemParticlesjjRKN4math8float3x3ERKNS6_7affineXERKNS6_7_float4E
Rad:__Z19GetGUIBlendMaterialv
zW:__ZN11KeyframeTplI11QuaternionfE8TransferI19StreamedBinaryWriteILb0EEEEvRT_
SZj:_DefaultComparer_GetHashCode_m177499767_gshared
Nah:_Math_Round_m3018379666
QOk:__Z41RuntimeInvoker_Boolean_t97287965_IntPtr_tPFvvEPK10MethodInfoPvPS4_
XFm:__ZN6il2cpp2os10ThreadImpl5SleepEjb
tyi:__ZN28GenericInterfaceFuncInvoker1IbbE6InvokeEPK10MethodInfoP12Il2CppObjectb
d6c:__Z53Register_UnityEngine_Quaternion_LookRotation_Injectedv
jVe:__ZN5physx14SapPairManager12shrinkMemoryEv
y_:__ZN19StreamedBinaryWriteILb0EE21TransferSTLStyleArrayI22OffsetPtrArrayTransferIN7mecanim5human6HandleEEEEvRT_17TransferMetaFlags
MLf:__ZN22BaseUnityConnectClient12IsNewSessionEv
PVg:__ZL82LayoutCache_t78309876_CustomAttributesCacheGenerator_LayoutCache__ctor_m3885940174P21CustomAttributesCache
rag:__ZN28GenericInterfaceFuncInvoker0IP12Il2CppObjectE6InvokeEPK10MethodInfoS1_
Fcf:__ZN5physx6shdfnd8internal7median3IjKNS_19SortBoundsPredicateEEEvPT_iiRT0_
nHj:_PlayableHandle_IsPlayableOfType_TisRuntimeObject_m503495943_AdjustorThunk
PW:__ZN18AnimatorController23VirtualRedirectTransferER24GenerateTypeTreeTransfer
I1m:_glBindSampler__wrapper
Hhc:__ZNSt3__26vectorIN20ArchiveStorageHeader12StorageBlockE13stl_allocatorIS2_L18MemLabelIdentifier55ELi16EEE8__appendEj
gg:_emscripten_set_mouseup_callback
GDc:__Z14resize_trimmedINSt3__26vectorIN9ShaderLab14SerializedPassENS0_9allocatorIS3_EEEEEvRT_j
fvh:_Mathf_Clamp_m3350697880
yIb:__ZN9GfxDevice27SetRandomWriteTargetTextureEi9TextureID
YWj:_Dictionary_2_System_Collections_Generic_ICollectionU3CSystem_Collections_Generic_KeyValuePairU3CTKeyU2CTValueU3EU3E_Contains_m3033743418_gshared
Mt:__ZN7NavMesh24ConnectOffMeshConnectionEjff
Mel:_List_1_System_Collections_IList_Remove_m3140917266_gshared
wXi:_Encoding_get_DecoderFallback_m1525880676
lvg:__ZL59ITrackingHandler_t1244553475_CustomAttributesCacheGeneratorP21CustomAttributesCache
Xni:_InternalEnumerator_1_get_Current_m2112392701_AdjustorThunk
WPh:_DSASignatureDeformatter__ctor_m2759753186
sHe:__ZN5physx7NpScene22removeBroadPhaseRegionEj
I4d:__ZL34GeomOverlapCallback_CapsuleCapsuleRKN5physx10PxGeometryERKNS_11PxTransformES2_S5_PNS_2Gu12TriggerCacheE
Zlk:_Collection_1_System_Collections_IEnumerable_GetEnumerator_m801406918_gshared
Y2b:__ZNK18ScreenManagerWebGL8GetWidthEv
AGe:__ZNK5physx7NpScene23getFilterShaderDataSizeEv
Tcm:__ZN6il2cpp2vm13MetadataCache33GetFieldDefaultValueDataFromIndexEi
jek:_TimeSpan_get_TotalHours_m306507525_AdjustorThunk
Oaa:__ZN10SampleClipD2Ev
RBk:_InvokableCall_1_remove_Delegate_m790146436_gshared
FAk:_Predicate_1_Invoke_m2389850270_gshared
gah:_UnmanagedMemoryStream_get_CanSeek_m2636857629
zwb:__Z13GetGISettingsv
Jul:_Collection_1_RemoveAt_m1813368096_gshared
$ja:__ZN11UnityEngine15CloudWebService20WebRequestRestClientC2Ev
drf:_cff_cmap_unicode_init
pFj:_Array_InternalArray__ICollection_Contains_TisRuntimeObject_m4067783231_gshared
$Ea:__ZL60__ManagedRegistrationHelperFunction_AssemblyIsEditorAssemblyPv
Rua:__ZN14FileCacherRead13GetFileLengthEv
dDk:_UnityAction_1_EndInvoke_m542551745_gshared
csl:_Collection_1_IsValidItem_m3080586124_gshared
m0f:_DropdownItem_set_text_m3702712387
wZf:_ClipperRegistry_Register_m2407166513
jUm:_readlink
Mlm:__ZN15dense_hashtableINSt3__24pairIK10KeyWrapperINS1_IPK9EventInfoP11Il2CppClassEEEjEES9_17ReflectionMapHashIS8_EN14dense_hash_mapIS9_jSD_NS9_14EqualsComparerINS0_8equal_toIS8_EEEENS0_9allocatorISB_EEE9SelectKeyESI_SK_E12resize_deltaEjj
f8f:_MonoCMethod_Invoke_m2700167622
Hbj:_KeyMarker__cctor_m2590194914
Dsd:__ZN14ParticleSystem38UpdateModulesPostSimulationIncrementalER24ParticleSystemUpdateDataR23ParticleSystemParticlesjRKf
tQm:__ZN6il2cpp2os13SemaphoreImplC2Eii
Ilb:__ZNK6Sprite9GetBoundsE8Vector2fbb
IUa:__ZNK19RenderEventsContext21CleanupCommandBuffersEv
H_l:_TextGenerator_PopulateWithErrors_m1222498386
HX:__ZN7mecanim12statemachine13StateConstant8TransferI14SafeBinaryReadEEvRT_
_sk:_ReadOnlyCollection_1_System_Collections_Generic_ICollectionU3CTU3E_Clear_m2102011098_gshared
Kac:__ZN11ContextGLES6CreateEi
fZd:__ZN5physx6shdfnd5ArrayINS_10PxTriangleENS0_19ReflectionAllocatorIS2_EEE15growAndPushBackERKS2_
p$l:_WillRenderCanvases_BeginInvoke_m1804779886
dVk:__Z52RuntimeInvoker_Boolean_t97287965_Vector3_t3722313464PFvvEPK10MethodInfoPvPS4_
hil:_List_1_set_Capacity_m3382070520_gshared
S_k:__Z68RuntimeInvoker_Boolean_t97287965_RuntimeObject_ObjectU26_t2146539884PFvvEPK10MethodInfoPvPS4_
vVh:_U3CMouseDragOutsideRectU3Ec__Iterator1_Dispose_m267465418
tBj:_Decimal_CompareTo_m3502307243_AdjustorThunk
m$b:__Z19TransferField_ArrayI18StreamedBinaryReadILb0EE27Converter_SimpleNativeClassI17AnimationCurveTplIfEEEvRK23StaticTransferFieldInfoR31RuntimeSerializationCommandInfoRT0_
$Pa:__ZN14StackAllocator16FrameMaintenanceEb
IYd:__ZL11SweepBoxBoxPKN5physx3Cct9SweepTestEPKNS0_11SweptVolumeEPKNS0_11TouchedGeomERKNS_14PxExtendedVec3ERKNS_6PxVec3ERNS0_12SweptContactE
Ueb:__Z18ReadStringFromFilePN4core17string_with_labelILi1EEERKNS_12basic_stringIcNS_20StringStorageDefaultIcEEEE
tgd:__ZN9JSONWrite8TransferI13dynamic_arrayIjLj0EEEEvRT_PKc17TransferMetaFlags
zva:__ZNK10GameObject20QueryComponentByTypeEPKN5Unity4TypeE
MAj:_Decimal_System_IConvertible_ToInt32_m1488426794_AdjustorThunk
obh:_MonoCustomAttrs_IsUserCattrProvider_m2878058089
Y1g:__ZL71InputField_t3762917431_CustomAttributesCacheGenerator_m_HideMobileInputP21CustomAttributesCache
_ab:__ZN11TextureData5ResetEv
_Mc:__Z53Register_UnityEngine_GameObject_get_activeInHierarchyv
tQi:_ToBase64Transform_InternalTransformFinalBlock_m360524956
e0i:_ActivationContext_Dispose_m2038725770
FQb:__Z35Transfer_Blittable_FixedBufferFieldI17RemapPPtrTransferiEvRK29SerializationCommandArgumentsR31RuntimeSerializationCommandInfo
Fqa:__ZL30InitializeCoreScriptingClassesv
e$a:__ZN15SerializeTraitsI12fixed_bitsetILi28EjEE8TransferI18StreamedBinaryReadILb0EEEEvRS1_RT_
dh:_glBlitFramebuffer
GCb:__ZN17ArchiveFileSystem5TouchER13FileEntryData
ePe:__ZN5physx2Sq10AABBPrunerC2Eb
dxi:_KeyCollection_System_Collections_Generic_IEnumerableU3CTKeyU3E_GetEnumerator_m818204647_gshared
AQb:__Z35Transfer_Blittable_SingleValueFieldI14SafeBinaryReadhEvRT_R17GeneralMonoObjectRK23StaticTransferFieldInfo
m4c:__ZN4core8hash_setINS_4pairIKy9PlaneDataLb0EEENS_9hash_pairIN32PlaneColliderCache_dense_hashmap17UInt64HashFunctorES2_S3_EENS_10equal_pairINSt3__28equal_toIyEES2_S3_EEE4growEv
xek:_TimeSpan_Duration_m2963553230
U_g:__ZL97PointerEventData_t3807901092_CustomAttributesCacheGenerator_U3CuseDragThresholdU3Ek__BackingFieldP21CustomAttributesCache
Vue:__ZN5physx22NpParticleBaseTemplateINS_15PxParticleFluidENS_15NpParticleFluidEE13setVelocitiesEjRKNS_16PxStrideIteratorIKjEERKNS4_IKNS_6PxVec3EEE
vNf:__ZN22BaseUnityConnectClientC2ERN11UnityEngine7Connect20BasePersistentValuesE
n4c:__ZN4core8hash_setINS_4pairIKy9PlaneDataLb0EEENS_9hash_pairIN32PlaneColliderCache_dense_hashmap17UInt64HashFunctorES2_S3_EENS_10equal_pairINSt3__28equal_toIyEES2_S3_EEE4growEi
jod:__ZN24GenerateTypeTreeTransfer8TransferI13dynamic_arrayIN8UVModule10SpriteDataELj0EEEEvRT_PKc17TransferMetaFlags
OMj:_Array_InternalArray__ICollection_CopyTo_TisInt64_t3736567304_m2845057751_gshared
gbb:__ZNK12CubemapArray22GetTypeVirtualInternalEv
Y9b:__ZN13GfxDeviceGLES25SetStereoConstantPlatformEijRK10Matrix4x4f
C0a:__ZN11Tetrahedron8TransferI18StreamedBinaryReadILb0EEEEvRT_
yo:FUNCTION_TABLE_vif
zo:FUNCTION_TABLE_vid
Ibl:_Dictionary_2_Do_CopyTo_TisInt32_t2950945753_TisRuntimeObject_m213146570_gshared
Bo:FUNCTION_TABLE_vii
qxb:__Z40scripting_liveness_calculation_from_root18ScriptingObjectPtrPv
V0g:__ZL67OptionDataList_t1438173104_CustomAttributesCacheGenerator_m_OptionsP21CustomAttributesCache
_zd:__ZN13InitialModuleD2Ev
zug:__ZL65IContributeDynamicSink_t2255997386_CustomAttributesCacheGeneratorP21CustomAttributesCache
eZf:_ClipperRegistry_get_instance_m1533748353
A5a:__ZN7Texture23VirtualRedirectTransferER24GenerateTypeTreeTransfer
omf:_UNITY_FT_Set_Transform
WYc:__ZNK32RendererMaterialAnimationBinding12SetPPtrValueERKN11UnityEngine9Animation10BoundCurveEi
pBm:__ZN6il2cpp8metadata15GenericMetadata20RegisterGenericClassEP18Il2CppGenericClass
l1m:_glDeleteFramebuffers__wrapper
$ql:_Collection_1_System_Collections_IList_get_IsFixedSize_m2620019318_gshared
CKk:__Z220RuntimeInvoker_Boolean_t97287965_RuntimeObject_Int32U26_t1369213839_Int32_t2950945753_Int32_t2950945753_Int32_t2950945753_RuntimeObject_SByte_t1669577662_Int32_t2950945753_ContractionU26_t961830454_ContextU26_t3937453398PFvvEPK10MethodInfoPvPS4_
rNc:__Z36Register_UnityEngine_RectOffset_Initv
TRj:_BitConverterLE_GetUIntBytes_m949779219
npf:_cff_blend_build_vector
o7h:_WebHeaderCollection_ToString_m1263025316
Vy:__ZNSt3__26vectorIi13stl_allocatorIiL18MemLabelIdentifier77ELi16EEE6insertENS_11__wrap_iterIPKiEERS6_
lmi:_InternalEnumerator_1_MoveNext_m1015797184_gshared
wze:__ZNK5physx15NpActorTemplateINS_14PxRigidDynamicEE14getOwnerClientEv
YMk:__Z91RuntimeInvoker_Void_t1185182177_RuntimeObject_RuntimeObject_RuntimeObject_Int32_t2950945753PFvvEPK10MethodInfoPvPS4_
nag:_GetterAdapter_Invoke_m3767885970
ijl:_List_1__ctor_m747758800_gshared
RCl:_X509Extension_get_Oid_m4107042796
qlh:_MethodBuilder_get_ReflectedType_m3038768129
ZWi:_String_CreateString_m2818852475
W4j:_Enumerator_get_Current_m335492761_AdjustorThunk
Wgb:__ZN28EnlightenRendererInformation8TransferI14SafeBinaryReadEEvRT_
Y$l:_CanvasRenderer_get_hasMoved_m2236392341
ake:__ZN5physx12NpBatchQuery13getUserMemoryEv
kxh:_MessageEvent__ctor_m1231650089
qzb:__ZNK15Lz4Decompressor16DecompressMemoryEPKvPjPvS2_
Ztf:_UNITY_tt_face_build_cmaps
Xah:_MemberAccessException__ctor_m3713703094
C7f:_MethodBase_get_ContainsGenericParameters_m2144492325
drg:__ZL117GenericTypeParameterBuilder_t1988827940_CustomAttributesCacheGenerator_GenericTypeParameterBuilder_Equals_m3260957994P21CustomAttributesCache
K8g:__ZL74LightningAttack_t2037095336_CustomAttributesCacheGenerator__strikeableMaskP21CustomAttributesCache
vJc:__ZN4core8hash_mapINS_12basic_stringIcNS_20StringStorageDefaultIcEEEE10vector_setI4PPtrI11SpriteAtlasENSt3__24lessIS8_EE13stl_allocatorIS8_L18MemLabelIdentifier81ELi16EEENS_4hashIS4_EENS9_8equal_toIS4_EEEixERKS4_
EVl:__ZL24UnresolvedVirtualCall_47P12Il2CppObject20DateTime_t3738529785PK10MethodInfo
l8a:__Z35UnityPropertySheet_MakeSortedColorsRKNSt3__23mapIN9ShaderLab16FastPropertyNameE10ColorRGBAfNS_4lessIS2_EENS_9allocatorINS_4pairIKS2_S3_EEEEEER10vector_mapIS2_S3_S5_NS6_INS7_IS2_S3_EEEEE
EDg:__ZL72PKCS12_t4101533061_CustomAttributesCacheGenerator_U3CU3Ef__switchU24map8P21CustomAttributesCache
utf:_UNITY_tt_face_load_os2
q_e:__ZN5physx2GuL34fullContactsGenerationSphereConvexERKNS0_8CapsuleVERKNS0_11ConvexHullVERKNS_6shdfnd3aos12PsTransformVESB_PNS0_17PersistentContactERjRNS0_13ContactBufferEbRNS0_25PersistentContactManifoldERNS8_5Vec3VERKNS8_6FloatVEb
uNj:_Array_InternalArray__ICollection_CopyTo_TisUICharInfo_t75501106_m4268526610_gshared
$ze:__ZN5physx19NpRigidBodyTemplateINS_14PxRigidDynamicEE16setRigidBodyFlagENS_15PxRigidBodyFlag4EnumEb
x7d:__ZN5physx6shdfnd8PoolBaseINS_2Sc19ConstraintGroupNodeENS0_19ReflectionAllocatorIS3_EEE17releaseEmptySlabsEv
VPb:__Z29Transfer_Blittable_ArrayFieldI14SafeBinaryRead8Vector4fEvRT_R9ArrayInfoRK23StaticTransferFieldInfo
RDm:__GLOBAL__sub_I_BoehmGC_cpp
yR:__ZNK26AnimatorOverrideController22GetTypeVirtualInternalEv
mff:__ZNSt3__27__sort4IRNS_6__lessI24InterpolationDepthHandleS2_EEPS2_EEjT0_S6_S6_S6_T_
lZi:_PKCS12_Compare_m2975811353
sbk:_UTF8Encoding_GetMaxCharCount_m3762459613
BIg:__ZL81Shader_t4151988712_CustomAttributesCacheGenerator_Shader_PropertyToID_m1030499873P21CustomAttributesCache
dih:_ModuleBuilder_RegisterToken_m4166846047
$Vd:__ZN5physx3Cct8SweptBoxD2Ev
qic:__ZZ23InitPlayerLoopCallbacksvEN51PostLateUpdateUpdateCustomRenderTexturesRegistrator7ForwardEv
MQe:__ZN5physx2Cm12DelegateTaskINS_13PxsCCDContextEXadL_ZNS2_12postCCDSweepEPNS_10PxBaseTaskEEEED0Ev
ydi:_InterpreterFactory_get_Gap_m2263656528
eZh:_RawImage_OnPopulateMesh_m1115858855
aMk:__Z74RuntimeInvoker_MonoFileType_t221779374_IntPtr_t_MonoIOErrorU26_t1548853198PFvvEPK10MethodInfoPvPS4_
udm:__ZN6il2cpp2vm13MetadataCache25GetStringLiteralFromIndexEi
F0i:_Hashtable_ToPrime_m33531354
XH:__ZN7mecanim9animation12EvaluateClipEPKNS0_4ClipEPKNS0_9ClipInputEPNS0_10ClipMemoryEPNS0_10ClipOutputE
Fmk:_Collection_1_IsSynchronized_m1117613618_gshared
XOf:__ZN20UnityWebRequestProtoI24UnityWebRequestTransport16AtomicRefCounter14RedirectHelper14ResponseHelper15DownloadHandler13UploadHandler18CertificateHandler12HeaderHelper14AsyncOperationE19Task_FinishRedirectEPv
Qwi:_KeyCollection_System_Collections_Generic_ICollectionU3CTKeyU3E_Remove_m2555909644_gshared
y0d:__ZN5physx3Cct9SweepTest15onObstacleAddedEjPKNS_17PxObstacleContextERKNS_6PxVec3ES7_f
h5d:__ZN5physx2Gu10SupportMapD2Ev
Egk:_TypeInitializationException__ctor_m3546444694
lPc:__ZNK9Transform16GetLocalRotationEv
Tvi:_Enumerator_System_Collections_IEnumerator_Reset_m4278714428_gshared
fhb:__ZN4PPtrI11LightProbesE8TransferI18StreamedBinaryReadILb0EEEEvRT_
bja:__ZN11UnityEngine15CloudWebService23WebRequestUploadHandler17ConsumeUploadDataEj
$em:__ZNSt3__214__split_bufferI6pollfdRNS_9allocatorIS1_EEEC2EjjS4_
Leg:_CrossAppDomainData_get_DomainID_m3516796532
CZk:__Z68RuntimeInvoker_Void_t1185182177_Single_t1397266774_SByte_t1669577662PFvvEPK10MethodInfoPvPS4_
qfe:__ZNK5physx15NpActorTemplateINS_18PxArticulationLinkEE22getClientBehaviorFlagsEv
voj:_MemoryStream_set_Position_m3169779190
Lvc:__ZN13RenderManager29SetCurrentCameraAndStackStateEP6CameraP25CameraStackRenderingState
KXg:__ZL77Physics_t2310948930_CustomAttributesCacheGenerator_Physics_Raycast_m630863594P21CustomAttributesCache
qUf:_ExecuteEvents_get_scrollHandler_m2659345019
AQa:__ZNSt3__26__treeINS_12__value_typeIjN4core12basic_stringIcNS2_20StringStorageDefaultIcEEEEEENS_19__map_value_compareIjS7_NS_4lessIjEELb1EEE13stl_allocatorIS7_L18MemLabelIdentifier7ELi16EEE7destroyEPNS_11__tree_nodeIS7_PvEE
hum:__ZN15dense_hashtableINSt3__24pairIK10KeyWrapperINS1_IP11Il2CppClassjEEES4_EES6_N6il2cpp8metadata14ArrayClassHashEN14dense_hash_mapIS6_S4_SB_NS6_14EqualsComparerINSA_17ArrayClassCompareEEENS0_9allocatorIS8_EEE9SelectKeyESF_SH_E12resize_deltaEjj
si:_JS_WebRequest_Release
$Mg:__ZL85Time_t2420636075_CustomAttributesCacheGenerator_Time_t2420636075____time_PropertyInfoP21CustomAttributesCache
rfe:__ZNK5physx15NpActorTemplateINS_18PxArticulationLinkEE12getAggregateEv
Lha:__ZN11UnityEngine15CloudWebService14DataErrorEventD0Ev
vxm:__ZN6il2cpp6icalls8mscorlib6System4Type20internal_from_handleEi
GFg:__ZL72RequiredByNativeCodeAttribute_t4130846357_CustomAttributesCacheGeneratorP21CustomAttributesCache
r4i:_Boolean_System_IConvertible_ToUInt16_m3465173538_AdjustorThunk
mqd:__ZN14EmissionModule5ResetEv
Gfg:_Context__ctor_m254302079
PQe:__ZN5physx13PxsCCDContext12postCCDSweepEPNS_10PxBaseTaskE
bT:__ZN15SerializeTraitsI13dynamic_arrayI4PPtrI6ObjectELj0EEE19ResizeSTLStyleArrayERS4_i
kUj:_KeyGeneratedEventHandler_EndInvoke_m3057317531
aeb:__ZN19ShaderPropertySheet16SetArrayPropertyEN9ShaderLab16FastPropertyNameENS_12PropertyTypeEPKvj
Y_h:_Selectable_FindSelectable_m2348614027
Tnc:__ZN22PerThreadPageAllocatorC2Ev
T_f:_FloatTween_get_duration_m1227071020
jCm:__ZN15dense_hashtableINSt3__24pairIK10KeyWrapperIP12Il2CppObjectEN6il2cpp2gc9CachedCCWEEES5_NS7_5utils11PointerHashIS3_EEN14dense_hash_mapIS5_S9_SD_NS5_14EqualsComparerINS0_8equal_toIS4_EEEENS0_9allocatorISA_EEE9SelectKeyESI_SK_E16reset_thresholdsEv
V0f:_DropdownItem_OnPointerEnter_m1492957598
ldf:__ZN5physx6shdfnd10Foundation19AlignCheckAllocator28deregisterAllocationListenerERNS_20PxAllocationListenerE
See:__ZN5physx2Sc21ArticulationJointCore12setChildPoseERKNS_11PxTransformE
Dag:_ParameterInfo_get_ParameterType_m4197803362
zLk:__Z91RuntimeInvoker_Void_t1185182177_Int32U26_t1369213839_Int32U26_t1369213839_Int32_t2950945753PFvvEPK10MethodInfoPvPS4_
KLa:__ZN9Scripting11UnityEngine9BoundsInt9InitProxyEv
t4l:_StaticAccessorAttribute_set_Type_m2333258271
kbd:__ZN8GUIState8EndOnGUIEv
bKf:__ZN11UnityEngine15PlatformWrapper16GetApplicationIdEv
Lvf:_UNITY_TT_Get_VMetrics
Xai:_X509Chain__cctor_m993507223
cTe:__ZN5physx33solveContactCoulombBlockWriteBackEPKNS_23PxcSolverConstraintDescEjRNS_16PxcSolverContextEPNS_25PxcThresholdStreamElementEjPi
E$j:_EqualityComparer_1__ctor_m2283513024_gshared
D8i:_SimpleEnumerator__cctor_m2844299657
vah:_LocalDataStoreSlot__ctor_m4104083971
B9k:_Array_qsort_TisVector3_t3722313464_m4117329442_gshared
kuk:_ReadOnlyCollection_1_System_Collections_Generic_IListU3CTU3E_RemoveAt_m3849058645_gshared
jTl:_AudioSource_ReadExtensionName_m725112169
dCl:_X509CertificateEnumerator_System_Collections_IEnumerator_Reset_m2039524926
R_e:__ZN5physx9PxTaskMgr17submitUnnamedTaskERNS_6PxTaskENS_10PxTaskType4EnumE
oRk:__Z128RuntimeInvoker_Void_t1185182177_RuntimeObject_BooleanU26_t4125257963_SByte_t1669577662_Int32U26_t1369213839_Int32U26_t1369213839PFvvEPK10MethodInfoPvPS4_
Z5a:__ZN7Texture21GetMasterTextureLimitEv
tAi:_Enumerator_Dispose_m3503748991_AdjustorThunk
pqb:__ZN13dynamic_arrayI9InputAxisLj0EE18resize_initializedEj12ResizePolicy
Dxc:__Z12CanAddScriptR10GameObject17ScriptingClassPtrPS1_S2_
Lom:__ZN6il2cpp2vm10Reflection12HasAttributeEP12Il2CppObjectP11Il2CppClass
VXk:__Z103RuntimeInvoker_Boolean_t97287965_RuntimeObject_Vector2_t2156229523_RuntimeObject_Vector3U26_t3464235976PFvvEPK10MethodInfoPvPS4_
oxk:_Comparison_1_BeginInvoke_m3263247262_gshared
zpa:__ZN9ShaderLabL25StaticInitializeShaderLabEPv
KUd:__ZN12MeshCollider23VirtualRedirectTransferER24GenerateTypeTreeTransfer
IOe:__ZNK5physx2Sq12BucketPruner5sweepERKNS0_9ShapeDataERKNS_6PxVec3ERfRNS0_14PrunerCallbackE
U:Math_max
wul:_Collection_1_System_Collections_IList_get_Item_m3426129749_gshared
H4g:__ZL64HorizontalLayoutGroup_t2586782146_CustomAttributesCacheGeneratorP21CustomAttributesCache
vWl:__ZL24UnresolvedVirtualCall_92P12Il2CppObjectPK10MethodInfo
Dqm:_il2cpp_class_get_methods
vDh:_HitInfo_SendMessage_m1343099429_AdjustorThunk
GSb:__Z18Transfer_BlittableI24GenerateTypeTreeTransferLb0EN4math12int2_storageEEvRK29SerializationCommandArgumentsR31RuntimeSerializationCommandInfo
wCj:_StackTrace_get_trace_m1194606084
hUi:_Single_CompareTo_m2785801815_AdjustorThunk
oFm:__ZN6il2cpp2os6Thread16GetCurrentThreadEv
tLf:__ZN11UnityEngine7Connect20RemoteConfigSettings10UnregisterEv
R7k:_Array_InternalArray__Insert_TisUILineInfo_t4195266810_m3191124053_gshared
kKc:__ZN10GameObject13ComponentPair15SetComponentPtrEPN5Unity9ComponentE
C$m:_glBlitFramebuffer__wrapper
Aif:__ZN5physx6shdfnd8internal8HashBaseINS0_4PairIKPKNS0_14NamedAllocatorEPKcEES6_NS0_4HashIS6_EENS1_11HashMapBaseIS6_S9_SC_NS0_20NonTrackingAllocatorEE6GetKeyESE_Lb1EE15reserveInternalEj
s0g:__ZL75U3COnFinishSubmitU3Ec__Iterator0_t3413438900_CustomAttributesCacheGeneratorP21CustomAttributesCache
GQa:__ZN10TagManager8TransferI19StreamedBinaryWriteILb0EEEEvRT_
Mwb:__ZN11PreloadData23VirtualRedirectTransferER18StreamedBinaryReadILb0EE
_ib:__ZN13sorted_vectorI4PPtrI11SpriteAtlasENSt3__24lessIS2_EE13stl_allocatorIS2_L18MemLabelIdentifier1ELi16EEE21sort_clear_duplicatesEv
bzg:__ZL58ManualResetEvent_t451242010_CustomAttributesCacheGeneratorP21CustomAttributesCache
f1g:__ZL60FontData_t746620069_CustomAttributesCacheGenerator_m_MinSizeP21CustomAttributesCache
fMa:__ZN9Scripting11UnityEngine24AssemblyIsEditorAssembly12CleanupProxyEv
Q5i:_Char_System_IConvertible_ToDateTime_m3564102661
Sim:__ZN15dense_hashtableINSt3__24pairIK10KeyWrapperINS1_IPK9FieldInfoP11Il2CppClassEEEjEES9_17ReflectionMapHashIS8_EN14dense_hash_mapIS9_jSD_NS9_14EqualsComparerINS0_8equal_toIS8_EEEENS0_9allocatorISB_EEE9SelectKeyESI_SK_E16reset_thresholdsEv
H1:__ZN13RuntimeStaticINSt3__26vectorI12WebCamDeviceNS0_9allocatorIS2_EEEELb0EE13StaticDestroyEPv
xhb:__ZN6Sprite17MainThreadCleanupEv
N$m:_glBlendFuncSeparate__wrapper
DRg:__ZL116PlayerConnectionInternal_t3892293164_CustomAttributesCacheGenerator_PlayerConnectionInternal_SendMessage_m2378413408P21CustomAttributesCache
n7:__ZN10AudioMixer14UpdateMuteSoloEv
Jta:__Z17GetMonoManagerPtrv
UVa:__ZN12BaseRenderer25FlattenSharedMaterialDataILb0EEEbRKS_R22PerThreadPageAllocatorR10RenderNode
Eme:__ZN5physx6shdfnd5ArrayINS_3Scb13MaterialEventENS0_19ReflectionAllocatorIS3_EEE15growAndPushBackERKS3_
yA:__ZN17CallbackArrayBaseIPFvP10UnitySceneS1_EPFvPKvS1_S1_EE8RegisterES3_S7_S5_
NWg:__ZL87GUIUtility_t1868551600_CustomAttributesCacheGenerator_U3CguiIsExitingU3Ek__BackingFieldP21CustomAttributesCache
rJg:__ZL101MonoBehaviour_t3962482529_CustomAttributesCacheGenerator_MonoBehaviour_StartCoroutine_Auto_m594129169P21CustomAttributesCache
tj:_JS_Eval_ClearTimeout
e5m:_glDepthFunc__wrapper
QCg:__ZL64ThreadStaticAttribute_t3840787420_CustomAttributesCacheGeneratorP21CustomAttributesCache
hLb:__ZN7ApiGLES16SetPatchVerticesEi
Z_:__ZZN26AnimatorOverrideController15InitializeClassEvEN30FunctorImpl_86kDidModifyMotion4CallEPviR11MessageData
qHl:_CharacterClass_Compile_m3296067317
m9d:__ZN5physx2Sc5Scene11onBodySleepEPNS0_7BodySimE
SEm:__ZN6il2cpp2gc16GarbageCollector16InvokeFinalizersEv
e1l:_OnOverrideControllerDirtyCallback_EndInvoke_m2432606376
d5i:_Byte_System_IConvertible_ToInt64_m285584218_AdjustorThunk
OAh:_Rect_get_size_m477575021_AdjustorThunk
j5l:__ZN6il2cpp2vm5Class20FromGenericParameterEPK22Il2CppGenericParameter
XJj:_Array_IndexOf_TisVector3_t3722313464_m4284163268_gshared
IWd:__ZL28GeomMTDCallback_PlaneCapsuleRN5physx6PxVec3ERfRKNS_10PxGeometryERKNS_11PxTransformES5_S8_
nAa:__ZN15GlobalCallbacksC2Ev
Hig:_MethodCall_System_Runtime_Remoting_Messaging_IInternalMessage_set_Uri_m1919576807
NLj:_Array_InternalArray__ICollection_Add_TisLabelData_t360167391_m1648183135_gshared
tti:_Comparer_1_System_Collections_IComparer_Compare_m2016223770_gshared
RYi:_Encoding_GetBytes_m3823106599
O5g:__ZL57BaseMeshEffect_t2440176439_CustomAttributesCacheGeneratorP21CustomAttributesCache
lQk:__Z74RuntimeInvoker_DateTime_t3738529785_DateTime_t3738529785_Int32_t2950945753PFvvEPK10MethodInfoPvPS4_
aof:_UNITY_FT_New_Memory_Face
eme:__ZNK5physx10NpMaterial18getDynamicFrictionEv
_ul:_Collection_1_System_Collections_IList_IndexOf_m3271188411_gshared
Ilf:__ZN20TextRenderingPrivate21TextMeshGeneratorImpl5FlushEv
goj:_MonoIO_GetFileStat_m678141354
Lrf:_UNITY_FT_Load_Sfnt_Table
gy:__ZNSt3__27__sort3IRPFbRK8Vector2fS3_EPS1_EEjT0_S8_S8_T_
OOc:__ZN15ApplicationInfo14GetSandboxTypeEv
$me:__ZN5physx9NpPhysics16createConvexMeshERNS_13PxInputStreamE
HQb:__Z18Transfer_BlittableI17RemapPPtrTransferLb1EhEvRK29SerializationCommandArgumentsR31RuntimeSerializationCommandInfo
iBj:_Decimal_IsZero_m4250358244_AdjustorThunk
fah:_UnmanagedMemoryStream_get_CanRead_m3770815400
rwc:__ZN16ReflectionProbes40UpdateRealtimeReflectionProbesTimeslicedEv
Nhb:__ZN14SafeBinaryRead21TransferSTLStyleArrayI13dynamic_arrayI8Vector2fLj0EEEEvRT_17TransferMetaFlags
TSl:__ZN23InterfaceActionInvoker1IP24SingleU5BU5D_t1444911251E6InvokeEjP11Il2CppClassP12Il2CppObjectS1_
$zm:__ZNSt3__26__treeINS_12__value_typeIP24Il2CppReflectionAssemblyPvEENS_19__map_value_compareIS3_S5_NS_4lessIS3_EELb1EEENS_9allocatorIS5_EEE16__insert_node_atEPNS_16__tree_node_baseIS4_EERSF_SF_
vsj:_Decimal_u64_m3374804932
z8d:__ZN5physx2Sq17SceneQueryManager8addShapeERKNS_7NpShapeERKNS_12PxRigidActorEbPNS_9PxBounds3E
Xgk:_UInt16_System_IConvertible_ToInt32_m1950778303_AdjustorThunk
psb:__ZNK30RuntimeInitializeOnLoadManager22GetTypeVirtualInternalEv
qam:__ZN15dense_hashtableINSt3__24pairIK10KeyWrapperIN6il2cpp5utils13dynamic_arrayIPK10Il2CppTypeLj4EEEEPFvvEEESA_NS3_8metadata19Il2CppSignatureHashEN14dense_hash_mapISA_SD_SG_NSA_14EqualsComparerINSF_22Il2CppSignatureCompareEEENS0_9allocatorISE_EEE9SelectKeyESK_SM_E12resize_deltaEjj
qYc:__ZN16ReflectionProbes15InitializeClassEv
kmg:__ZL71Enum_t4135868527_CustomAttributesCacheGenerator_Enum_Format_m2588135982P21CustomAttributesCache
Ibm:__ZNK15dense_hashtableINSt3__24pairIK10KeyWrapperIPK11Il2CppClassEPKcEES6_N6il2cpp5utils11PointerHashIS3_EEN14dense_hash_mapIS6_S9_SE_NS6_14EqualsComparerINS0_8equal_toIS5_EEEENS0_9allocatorISA_EEE9SelectKeyESJ_SL_E12test_deletedEj
Vrk:_ReadOnlyCollection_1_System_Collections_ICollection_CopyTo_m2527663815_gshared
Wym:__ZN6il2cpp2vm5Image9GetCorlibEv
ZGh:_Vector3_get_left_m2428419009
dDm:__ZN6il2cpp2vm11MethodStack17GetStackFramesRawEv
Esg:__ZL50Pointer_t2088917139_CustomAttributesCacheGeneratorP21CustomAttributesCache
gqe:__ZNK5physx15NpActorTemplateINS_7PxClothEE14getOwnerClientEv
Fvb:__ZN16LightmapSettings11UnshareDataEv
LSe:__ZNK5physx2Gu29EPASupportMapPairRelativeImplINS0_8CapsuleVES2_E9doSupportERKNS_6shdfnd3aos5Vec3VERS6_S9_S9_
dUf:_ExecuteEvents_Execute_m113814934
Iwa:__ZN13RuntimeStaticINSt3__23mapIN4core12basic_stringIcNS2_20StringStorageDefaultIcEEEES6_NS0_4lessIS6_EE13stl_allocatorINS0_4pairIKS6_S6_EEL18MemLabelIdentifier13ELi16EEEELb0EE13StaticDestroyEPv
ZGm:__ZN14dense_hash_mapI10KeyWrapperIPK19Il2CppGenericMethodEP10MethodInfoN6il2cpp8metadata23Il2CppGenericMethodHashENS4_14EqualsComparerINS8_26Il2CppGenericMethodCompareEEENSt3__29allocatorINSD_4pairIKS4_S6_EEEEE13set_empty_keyERSG_
Nph:_Coroutine_ReleaseCoroutine_m947702340
vcf:__ZN5physx10SubSortSAH5sort4EPjjRNS_6shdfnd5ArrayINS_11RTreeNodeNQENS2_19ReflectionAllocatorIS4_EEEERjjPS4_
Ati:_Enumerator_System_Collections_IEnumerator_get_Current_m2979767597_AdjustorThunk
NCk:__ZN30GenericInterfaceActionInvoker1I17Color_t2555686324E6InvokeEPK10MethodInfoP12Il2CppObjectS0_
sRh:_MD5CryptoServiceProvider_ProcessFinalBlock_m2241588515
g0h:_ScrollRect_GetBounds_m449872505
rk:_glIsVertexArray
uxd:__Z25UpdateOrbitalAndRadialTplIL27ParticleSystemCurveEvalMode3ELS0_2ELS0_1EEvRK11MinMaxCurveS3_S3_S3_S3_S3_S3_R23ParticleSystemParticlesjjRKN4math8float3x3ERKNS6_7affineXERKNS6_7_float4E
Zhj:_Int16_Parse_m2276856944
pmi:_InternalEnumerator_1__ctor_m3443175323_AdjustorThunk
EAf:__ZL42__ManagedRegistrationHelperFunction_CanvasPv
VNa:__ZN5Unity9Component8TransferI18StreamedBinaryReadILb0EEEEvRT_
hsg:__ZL131CustomAttributeData_t1084486650_CustomAttributesCacheGenerator_CustomAttributeData_t1084486650____ConstructorArguments_PropertyInfoP21CustomAttributesCache
ga:invoke_fff
_Tm:_mbsinit
t_m:b14
uif:__ZN5physx2Sc7PhysicsC2ERKNS_17PxTolerancesScaleERKNS_14PxvOffsetTableE
Q5c:__Z34RenderTexture_Get_Custom_PropWidthP12Il2CppObject
kff:__ZNSt3__26__sortIRNS_6__lessI24InterpolationDepthHandleS2_EEPS2_EEvT0_S6_T_
vBf:__ZN2UI6Canvas17MainThreadCleanupEv
ZDa:__ZN6prcoreL12RemapGenericI17TexFormatARGB155517TexFormatRGBA8888EEvPKNS_9InnerInfoE
c7l:__ZN13Il2CppHashMapIPK19Il2CppGenericMethodPK26Il2CppGenericMethodIndicesN6il2cpp8metadata23Il2CppGenericMethodHashENS7_26Il2CppGenericMethodCompareENSt3__29allocatorINSA_4pairIK10KeyWrapperIS2_ES5_EEEEEC2EjRKS8_RKS9_
h6f:_TypeBuilder_HasElementTypeImpl_m1871001960
mTi:_SecurityFrame__ctor_m2140076703_AdjustorThunk
$9k:_Array_Resize_TisVector2_t2156229523_m3382835435_gshared
g_j:_DefaultComparer_Equals_m2458578172_gshared
BLb:__ZN7ApiGLES13CreateProgramEv
f2a:__ZN11HaloManager7AddHaloEv
$ti:_Enumerator_VerifyState_m4003066746_gshared
Bcb:__ZN4crnd12crn_unpackerD2Ev
X1:__ZN9Scripting11UnityEngine12Experimental5Audio19AudioSampleProvider9InitProxyEv
Hk:_emscripten_glTexImage2D
nsi:_Comparer_1_System_Collections_IComparer_Compare_m2537217645_gshared
TXa:__ZN16MeshVertexFormat20GetVertexDeclarationER9GfxDevice16VertexInputMasksPKS_
uqa:__ZN18ScriptingArguments9AddStringEPKc
pMm:_setup_header
I6i:_Char_ToString_m3588025615
AHj:_SetPropertyUtility_SetStruct_TisAspectMode_t3417192999_m1565063249_gshared
Isl:_Collection_1_get_Count_m2853642267_gshared
gsk:_ReadOnlyCollection_1_System_Collections_IList_get_IsReadOnly_m375760151_gshared
KSe:__ZNK5physx2Gu29EPASupportMapPairRelativeImplINS0_8CapsuleVES2_E18doWarmStartSupportEiiRNS_6shdfnd3aos5Vec3VES7_S7_
qSj:_CryptoConvert_ToCapiKeyBlob_m3371450375
U9a:__ZL23stbir__resize_arbitraryPvPKviiiS_iiiffffPfiij14stbir_datatype12stbir_filterS4_10stbir_edgeS5_16stbir_colorspace
Yqd:__ZN23ParticleSystemParticles13array_reserveEj
_Sb:__Z18Transfer_BlittableI24GenerateTypeTreeTransferLb1E8Vector4fEvRK29SerializationCommandArgumentsR31RuntimeSerializationCommandInfo
x_m:b18
Sk:_pthread_detach
wem:__ZN6il2cpp2vm19SocketPollingThread7RunLoopEv
B1f:_FontUpdateTracker_UntrackText_m1981515690
qkl:_List_1_System_Collections_ICollection_get_SyncRoot_m1937857346_gshared
_5g:__ZL64AnalyticsEventTracker_t2285229262_CustomAttributesCacheGeneratorP21CustomAttributesCache
RNe:__ZN5physx11EdgeManager6resizeEj
e0c:__ZN15DirectorManager20ScheduleGraphDestroyERK14HPlayableGraph
b0b:__ZNSt3__213__stable_sortIRN10vector_mapI17ScriptingClassPtrPKN5Unity4TypeENS_4lessIS2_EENS_9allocatorINS_4pairIS2_S6_EEEEE13value_compareENS_11__wrap_iterIPSB_EEEEvT0_SJ_T_NS_15iterator_traitsISJ_E15difference_typeEPNSM_10value_typeEi
ZOj:_SimpleCollator_FillSurrogateSortKeyRaw_m725998232
ull:_List_1_AddEnumerable_m1284696147_gshared
F7g:__ZL65U3CStartU3Ec__Iterator0_t412322436_CustomAttributesCacheGeneratorP21CustomAttributesCache
Fz:__ZNK12NavMeshQuery18ClosestPointOnPolyEyRK8Vector3fPS0_
mMg:__ZL83RectOffset_t1369453676_CustomAttributesCacheGenerator_RectOffset_set_top_m713260669P21CustomAttributesCache
EGc:__ZN9ShaderLab25SerializedTextureProperty8TransferI24GenerateTypeTreeTransferEEvRT_
ybl:_Array_swap_TisVector2_t2156229523_TisVector2_t2156229523_m345092822_gshared
$rl:_Collection_1_get_Item_m1773274637_gshared
Dmm:__ZN6il2cpp2gc19AppendOnlyGCHashMapINSt3__24pairIPK14Il2CppAssemblyP11Il2CppClassEEP24Il2CppReflectionAssembly17ReflectionMapHashIS9_ENS2_8equal_toIS9_EEEC2Ev
buf:_tt_cmap14_char_next
MVb:__Z18Transfer_BlittableI19StreamedBinaryWriteILb0EELb0EdEvRK29SerializationCommandArgumentsR31RuntimeSerializationCommandInfo
KAe:__ZN5physx2Sc5Scene12removeStaticERNS0_10StaticCoreERNS_6shdfnd11InlineArrayIPKNS0_9ShapeCoreELj64ENS4_19ReflectionAllocatorIS8_EEEEb
pla:__GLOBAL__sub_I_Runtime_Camera_RenderLoops_2_cpp
it:__ZNSt3__26__treeINS_12__value_typeIiN15HeightMeshQuery10HeightDataEEENS_19__map_value_compareIiS4_NS_4lessIiEELb1EEE13stl_allocatorIS4_L18MemLabelIdentifier77ELi16EEE7destroyEPNS_11__tree_nodeIS4_PvEE
cPa:__ZN11NamedObject8TransferI18StreamedBinaryReadILb0EEEEvRT_
Tfc:__ZNK17GPUSkinPoseBuffer12GetBoneCountEv
rrh:_InvokableCall_remove_Delegate_m1376110510
dbj:_Hashtable_Clear_m3112193608
abk:_UTF8Encoding_InternalGetByteCount_m771565606
Bym:__ZNK15dense_hashtableINSt3__24pairIK10KeyWrapperIP14Il2CppIUnknownEjEES5_N6il2cpp5utils11PointerHashIS3_EEN14dense_hash_mapIS5_jSB_NS5_14EqualsComparerINS0_8equal_toIS4_EEEENS0_9allocatorIS7_EEE9SelectKeyESG_SI_E12test_deletedEj
yid:__Z18Transfer_BlittableI8JSONReadLb1EyEvRK29SerializationCommandArgumentsR31RuntimeSerializationCommandInfo
Dgl:_List_1_System_Collections_IList_Remove_m3654336679_gshared
_Qg:__ZL51GUILayer_t2783472903_CustomAttributesCacheGeneratorP21CustomAttributesCache
Sog:__ZL56IDictionary_2_t3177279192_CustomAttributesCacheGeneratorP21CustomAttributesCache
VXa:__ZN9GfxDevice20GetVertexDeclarationERK18VertexChannelsInfoNS_30VertexDeclarationMRUCacheIndexE
CIj:_Array_InternalArray__IEnumerable_GetEnumerator_TisUInt64_t4134040092_m1382862496_gshared
nl:_emscripten_glMatrixMode
rYh:_MaskableGraphic_UnityEngine_UI_IClippable_get_gameObject_m1739855597
zfj:_NumberFormatInfo_get_RawPercentGroupSizes_m97703232
FF:__ZN8Animator23VirtualRedirectTransferER18StreamedBinaryReadILb0EE
Mgj:_Guid__ctor_m3562600567_AdjustorThunk
Cka:__ZN19CloudServiceHandler19StopEventDispatcherEv
p8e:__ZN5physx13GuMeshFactory17createHeightFieldERNS_13PxInputStreamE
TDe:__ZN5physx2Sc10NPhaseCore25createShapeInstancePairLLERNS0_8ShapeSimES3_NS_7PxFlagsINS_10PxPairFlag4EnumEtEE
nNd:__ZN8Collider11PoseChangedEb
byj:_DateTime_System_IConvertible_ToInt16_m3239820399
dha:__ZN11UnityEngine15CloudWebService14DataDispatcher16PrepareDataBlockERNS0_16SessionContainerE
sgc:__ZN18GfxFramebufferGLES5ClearE13GfxClearFlagsRK10ColorRGBAffib
YEe:__ZThn8_N5physx2Sc19ShapeInstancePairLL12onDeactivateEj
hhl:_List_1_Sort_m2163953164_gshared
_Lh:_ObjectManager_DoFixups_m3038765937
yjk:_UIntPtr_ToString_m984583492_AdjustorThunk
C_b:__ZL26Transfer_SimpleNativeClassI18StreamedBinaryReadILb0EE10RectOffsetLb0EEvRK29SerializationCommandArgumentsR31RuntimeSerializationCommandInfo
mli:_InternalEnumerator_1_get_Current_m2316281569_gshared
Bmc:__ZL12DepthPassJobPN21GfxDeviceAsyncCommand10ArgScratchEPKNS_3ArgE
XEc:__ZNSt3__26vectorIN9ShaderLab20SerializedSubProgram16TextureParameterENS_9allocatorIS3_EEE6assignINS_11__wrap_iterIPS3_EEEENS_9enable_ifIXaasr21__is_forward_iteratorIT_EE5valuesr16is_constructibleIS3_NS_15iterator_traitsISC_E9referenceEEE5valueEvE4typeESC_SC_
Awh:_MonoBehaviour_IsInvoking_m3285132449
eAi:_Transform_1_EndInvoke_m1701794896_gshared
Pdd:__ZN5Unity9rapidjson6WriterI16TempBufferWriterNS0_4UTF8IcEES4_13JSONAllocatorE11WriteDoubleEd
HKd:__ZN9Rigidbody16ApplyConstraintsEv
Kck:_Thread_SetCachedCurrentUICulture_m1729523031
NJb:__ZN14GfxDeviceStats16CopyAllDrawStatsERKS_
hVh:_InputField_get_minHeight_m2822964544
gzi:__ZN23GenericVirtFuncInvoker1I27DictionaryEntry_t3123975638iE6InvokeEPK10MethodInfoP12Il2CppObjecti
IIi:_ClientContext_set_ClientHelloProtocol_m4189379912
wmd:__ZN11MinMaxCurve5ResetE23ParticleSystemCurveModef
un:FUNCTION_TABLE_iiiiiiiiiiii
Xqd:__ZNK14ParticleSystem27CalculateMaxActiveParticlesEv
Zkl:_List_1_get_Item_m1686506901_gshared
Rwi:_KeyCollection_System_Collections_Generic_IEnumerableU3CTKeyU3E_GetEnumerator_m1982109872_gshared
Awe:__ZN5physx2Sc17ParticleSystemSim8setFlagsEj
$Za:__ZN16GraphicsSettingsD0Ev
pna:__Z12FormatBufferPciPKcz
jLf:__ZNSt3__26__treeINS_12__value_typeIN4core12basic_stringIcNS2_20StringStorageDefaultIcEEEE14CallbackArray3IRKS6_R8JSONReadbEEENS_19__map_value_compareIS6_SD_NS_4lessIS6_EELb1EEE13stl_allocatorISD_L18MemLabelIdentifier6ELi16EEE7destroyEPNS_11__tree_nodeISD_PvEE
n:cttz_i8
bpf:_UNITY_FT_GlyphLoader_Add
obf:__ZN5physx2Gu15EdgeListBuilder18CreateEdgesToFacesEjPKjPKt
SYd:__ZN5physx11PxMeshQuery5sweepERKNS_6PxVec3EfRKNS_10PxGeometryERKNS_11PxTransformEjPKNS_10PxTriangleERNS_10PxSweepHitENS_7PxFlagsINS_9PxHitFlag4EnumEtEEPKjfb
rem:_RemoteSettings_RemoteSettingsUpdateCompleted_m2057218144
gOl:_EnemyHealth_OnEnable_m2772499255
rOf:__ZN9Scripting11UnityEngine10Networking29UnityWebRequestAsyncOperation9InitProxyEv
FTl:_AudioListener_INTERNAL_CALL_ReadExtensionPropertyName_m330480156
Gx:__ZN13dynamic_arrayI8Vector3fLj0EE9push_backERKS0_
etg:__ZL62ActivationArguments_t4219999170_CustomAttributesCacheGeneratorP21CustomAttributesCache
lTk:__Z53RuntimeInvoker_Interval_t1802865632_Int32_t2950945753PFvvEPK10MethodInfoPvPS4_
Dwj:_Convert_ToUInt16_m867476252
km:_emscripten_glViewport
UIm:__ZN6il2cpp6icalls8mscorlib6System15MonoCustomAttrs17IsDefinedInternalEP12Il2CppObjectP20Il2CppReflectionType
oQe:__ZN5physx6shdfnd5ArrayIPhNS0_19ReflectionAllocatorIS2_EEE8recreateEj
i5j:_Enumerator__ctor_m40451936_AdjustorThunk
aVk:__Z53RuntimeInvoker_Vector3_t3722313464_Single_t1397266774PFvvEPK10MethodInfoPvPS4_
sth:_Gradient_t3067099924_marshal_pinvoke_back
m1l:_SkeletonBone_t4134054672_marshal_pinvoke_back
Hug:__ZL115SynchronizationAttribute_t3946661254_CustomAttributesCacheGenerator_SynchronizationAttribute_IsContextOK_m324067792P21CustomAttributesCache
GLa:__ZN9Scripting11UnityEngine10CacheIndex9InitProxyEv
mhh:_CustomAttributeData_get_Constructor_m489601093
yqf:_cff_parse_font_bbox
wLd:__ZThn28_N14PhysicsManagerD0Ev
j$e:__ZN5physx2Sc27ConstraintProjectionManagerC2Ev
_Zd:__Z14raycast_sphereRKN5physx10PxGeometryERKNS_11PxTransformERKNS_6PxVec3ES8_fNS_7PxFlagsINS_9PxHitFlag4EnumEtEEjPNS_12PxRaycastHitEbPFbRSD_PvESG_
Fqb:__ZN14PlayerSettings23VirtualRedirectTransferER18StreamedBinaryReadILb0EE
ZJk:__Z85RuntimeInvoker_Void_t1185182177_Int32_t2950945753_Int32_t2950945753_Int32_t2950945753PFvvEPK10MethodInfoPvPS4_
NCj:_Double_System_IConvertible_ToDateTime_m2414543049_AdjustorThunk
AJf:__ZN11UnityEngine15PlatformWrapper16GetVRFieldOfViewEv
IB:__ZN13ProduceHelperI22NavMeshProjectSettingsLb0EE7ProduceE10MemLabelId18ObjectCreationMode
kDj:_Double_CompareTo_m3151899116
zRm:__ZN6il2cpp2os5Event5ResetEv
Ntf:_tt_name_ascii_from_other
M9g:_TextWriter_Write_m2252948084
eSl:_ToggleGroup__ctor_m3308114662
ZAm:__ZN6il2cpp8metadata15GenericMetadata17InflateParametersEPK13ParameterInfohPK20Il2CppGenericContextb
iOi:_RSAParameters_t1728406613_marshal_pinvoke_back
Pal:_Array_Sort_TisUILineInfo_t4195266810_m3737783007_gshared
zyh:_PlayableAsset_Internal_CreatePlayable_m2550417712
GCh:_RenderTexture_get_width_m2160921386
UI:__ZNK17AnimationPlayable27GetNextCompatibleDescendantEj
ZJi:_Context_get_LastHandshakeMsg_m2730646725
d4e:__ZNK5physx2Cm12DelegateTaskINS_2Sc5SceneEXadL_ZNS3_23postIslandGenSecondPassEPNS_10PxBaseTaskEEEE7getNameEv
bof:__ZN13dynamic_arrayIN4core17string_with_labelILi35EEELj0EE6insertEPS2_jRKS2_
dPa:__ZN4PPtrI6SpriteE8TransferI18StreamedBinaryReadILb0EEEEvRT_
HWg:__ZL64GUIUtility_t1868551600_CustomAttributesCacheGenerator_s_SkinModeP21CustomAttributesCache
Lzl:_TlsStream_Write_m188217214
iYb:__ZN4PPtrI9Texture2DE8TransferI18StreamedBinaryReadILb1EEEEvRT_
UTk:__Z50RuntimeInvoker_Ray_t3785851493_Vector3_t3722313464PFvvEPK10MethodInfoPvPS4_
cVl:__ZL24UnresolvedVirtualCall_19P12Il2CppObject25DSAParameters_t1885824122PK10MethodInfo
L3b:__Z25SetNeedToPerformRenderingb
Jod:__ZN12LightsModule8TransferI17RemapPPtrTransferEEvRT_
UVm:__ZN10__cxxabiv116__shim_type_infoD2Ev
AEh:_Touch_get_phase_m214549210
mGl:_Alternation__ctor_m1629257642
OGf:__ZN8JSONRead12TransferPairINSt3__24pairIN4core12basic_stringIcNS3_20StringStorageDefaultIcEEEEN11UnityEngine9Analytics16LimitEventConfigEEEEEvRT_17TransferMetaFlagsPKN5Unity9rapidjson12GenericValueINSG_4UTF8IcEE13JSONAllocatorEE
gRa:__ZN10GameObjectD2Ev
Pmc:__ZN14qsort_internal30FindAndMovePivotToLastPositionIP15RODataDepthPassi17ROSorterDepthPassEEvT_S4_T0_T1_
VBd:__ZN29InitialModulePropertyBindings13GetFloatValueERK14ParticleSystemi
Zah:_MethodAccessException__ctor_m3411913042
MRe:__ZN5physxL27PxcSweepAnyShapeHeightfieldERKNS_11PxsCCDShapeES2_PKNS_12PxsRigidBodyES5_RKNS_11PxTransformES8_fRNS_6PxVec3ESA_RNS_10PxcNpCacheERNS_18PxcNpThreadContextE
U0j:_EqualityComparer_1__ctor_m1767308726_gshared
aWj:_KeyValuePair_2_get_Key_m2106922848_gshared
pvc:__ZN12CullingGroup10SendEventsEPK17CullingGroupEventj
bfm:__ZNSt3__214__split_bufferI6pollfdRNS_9allocatorIS1_EEED2Ev
QZ:__ZN15SerializeTraitsIN7mecanim5human6HandleEE8TransferI14SafeBinaryReadEEvRS2_RT_
Dfj:_NumberFormatInfo_get_PerMilleSymbol_m1360140831
zGi:_EncryptedData_get_EncryptionAlgorithm_m905084934
lIj:_Array_InternalArray__IEnumerable_GetEnumerator_TisCustomAttributeTypedArgument_t2723150157_m1333528454_gshared
FVf:_PointerInputModule__ctor_m3728889932
Cfb:__ZThn32_NK8Renderer8GetLayerEv
V1c:__ZNK4Mesh17GetPrimitiveCountEv
LKj:_Array_InternalArray__IndexOf_TisUInt64_t4134040092_m1206929132_gshared
RMe:__ZN5physx3Scb5SceneD2Ev
H5j:_Enumerator_System_Collections_IEnumerator_Reset_m2915500989_gshared
Dqf:_cff_parse_vsindex
icg:_ResourceSet_System_Collections_IEnumerable_GetEnumerator_m2807499934
wzm:__ZN30dense_hashtable_const_iteratorINSt3__24pairIK10KeyWrapperINS1_IPKcS4_EEEiEES6_24NamespaceAndNamePairHashN14dense_hash_mapIS6_iS9_NS6_14EqualsComparerI26NamespaceAndNamePairEqualsEENS0_9allocatorIS8_EEE9SelectKeyESD_SF_E30advance_past_empty_and_deletedEv
iij:_Int32_ValidDigit_m1059003769
c4m:_emscripten_glTexParameterfv__wrapper
UBh:_RectTransform_INTERNAL_get_sizeDelta_m2173368204
aDg:__ZL54MemberFilter_t426314064_CustomAttributesCacheGeneratorP21CustomAttributesCache
fWh:_LayoutGroup_get_rectTransform_m442863741
gNb:__Z18Transfer_BlittableI14SafeBinaryReadLb1E9BoundsIntEvRK29SerializationCommandArgumentsR31RuntimeSerializationCommandInfo
QSc:__ZN2UI13RectTransform17GetLocalPositionZEv
F$m:b63
urm:_il2cpp_method_get_param_count
kwa:__ZNK5Unity4Type21FindAllDerivedClassesER13dynamic_arrayIPKS0_Lj0EENS0_17TypeFilterOptionsE
ROc:__ZN10systeminfo19ISOToSystemLanguageERN4core12basic_stringIcNS0_20StringStorageDefaultIcEEEE
wlm:__ZNK15dense_hashtableINSt3__24pairIK10KeyWrapperINS1_IPK12PropertyInfoP11Il2CppClassEEEjEES9_17ReflectionMapHashIS8_EN14dense_hash_mapIS9_jSD_NS9_14EqualsComparerINS0_8equal_toIS8_EEEENS0_9allocatorISB_EEE9SelectKeyESI_SK_E3endEv
nxk:__ZN28GenericInterfaceFuncInvoker2Ii39CustomAttributeNamedArgument_t287865710S0_E6InvokeEPK10MethodInfoP12Il2CppObjectS0_S0_
Kcl:_LayoutGroup_SetProperty_TisAxis_t3613393006_m3591044743_gshared
AKd:__Z16GetDynamicsScenev
cEe:__ZThn8_N5physx2Sc18TriggerInteraction7destroyEv
RXg:__ZL94Physics_t2310948930_CustomAttributesCacheGenerator_Physics_Raycast_m3336206959____maxDistance2P21CustomAttributesCache
Amg:__ZL69RuntimeArray_CustomAttributesCacheGenerator_Array_SetValue_m282347242P21CustomAttributesCache
FNf:__ZN22BaseUnityConnectClient14AppRunningTickEj
Jxf:_ps_dimension_done
lzf:__Z46Register_UnityEngine_TextGenerator_Dispose_cppv
aNk:__Z67RuntimeInvoker_GCHandle_t3351438187_RuntimeObject_Int32_t2950945753PFvvEPK10MethodInfoPvPS4_
oDj:_Double_Parse_m4153729520
efj:_GregorianCalendar_GetYear_m854131864
Nxd:__Z25UpdateOrbitalAndRadialTplIL27ParticleSystemCurveEvalMode0ELS0_4ELS0_2EEvRK11MinMaxCurveS3_S3_S3_S3_S3_S3_R23ParticleSystemParticlesjjRKN4math8float3x3ERKNS6_7affineXERKNS6_7_float4E
dEg:__ZL59HybridDictionary_t4070033136_CustomAttributesCacheGeneratorP21CustomAttributesCache
Bgb:__ZN16LightmapSettings8TransferI14SafeBinaryReadEEvRT_
Fac:__ZN17BufferManagerGLES13ReleaseBufferEP14DataBufferGLES
HHi:_CipherSuite_Write_m1172814058
F5d:__ZN5physx6shdfnd5ArrayIPvNS0_19ReflectionAllocatorINS_16NpConnectorArrayEEEE15growAndPushBackERKS2_
p9g:_SynchronizedWriter_Write_m301917713
doa:__ZN9profiling6MarkerC2EPKc13ProfilerGroupNS0_5FlagsE
$Ce:__ZN5physx2Sc5Scene15prepareSimulateEv
Sri:__ZN21InterfaceFuncInvoker1Ii22UILineInfo_t4195266810E6InvokeEjP11Il2CppClassP12Il2CppObjectS0_
vid:__Z18Transfer_BlittableI8JSONReadLb1EjEvRK29SerializationCommandArgumentsR31RuntimeSerializationCommandInfo
j7d:__ZN5physx6shdfnd5ArrayIPNS_2Sc11InteractionENS0_19ReflectionAllocatorIS4_EEE8recreateEj
hih:_ConstructorBuilder_get_IsCompilerContext_m3364441562
rqh:_Debug_LogWarning_m3752629331
_Rc:__Z13RegisterClassIN2UI13RectTransformEEvPKc
mLa:__ZN9Scripting11UnityEngine7Texture9InitProxyEv
wwk:_ReadOnlyCollection_1_System_Collections_Generic_IListU3CTU3E_RemoveAt_m4037795630_gshared
wOk:__Z117RuntimeInvoker_Void_t1185182177_RuntimeObject_Int32_t2950945753_Int32_t2950945753_Int32_t2950945753_Int32_t2950945753PFvvEPK10MethodInfoPvPS4_
Njb:__ZNK13ScreenManager17GetFullscreenModeEv
Q9:__Z30GetAudioSpatializerDefinitionsR13dynamic_arrayIP29AudioEffectInternalDefinitionLj0EE31UnityAudioEffectDefinitionFlags
u2g:__ZL81U3CMouseDragOutsideRectU3Ec__Iterator1_t3909241878_CustomAttributesCacheGeneratorP21CustomAttributesCache
qYf:_U3COnFinishSubmitU3Ec__Iterator0_Reset_m3632769946
_p:stackSave
Dja:__ZN5Unity9rapidjson15GenericDocumentINS0_4UTF8IcEE13JSONAllocatorNS0_12CrtAllocatorEE6StringEPKcjb
t_f:_ColorTween_get_targetColor_m1724075482_AdjustorThunk
cyf:_ps_dimension_end
B7c:__Z41Register_UnityEngine_Mesh_Internal_Createv
cFb:__ZN16MemoryFileSystem5TouchER13FileEntryData
XAm:__ZNK15dense_hashtableI10KeyWrapperIP18Il2CppGenericClassES3_N6il2cpp8metadata22Il2CppGenericClassHashEN14dense_hash_setIS3_S6_NS3_14EqualsComparerINS5_25Il2CppGenericClassCompareEEENSt3__29allocatorIS3_EEE8IdentityESA_SD_E12test_deletedERK30dense_hashtable_const_iteratorIS3_S3_S6_SF_SA_SD_E
m6l:__ZN6il2cpp2vm5Class14GetNestedTypesEP11Il2CppClassPPv
hef:__Z63Register_UnityEngine_Physics_INTERNAL_CALL_Internal_RaycastTestv
i6j:_Enumerator_Dispose_m2498245804_AdjustorThunk
jUk:__Z72RuntimeInvoker_Void_t1185182177_Int32_t2950945753_Vector3U26_t3464235976PFvvEPK10MethodInfoPvPS4_
y2:__ZN14SafeBinaryRead21TransferSTLStyleArrayI13dynamic_arrayI4PPtrI15AudioMixerGroupELj0EEEEvRT_17TransferMetaFlags
Qrj:_Console_Open_m3077673205
kCl:_X509StoreManager_get_CurrentUser_m4040993045
Ywc:__ZN6Camera9SetAspectEf
lKj:_Array_InternalArray__IndexOf_TisDateTime_t3738529785_m2463359116_gshared
Ba:invoke_viiffiii
Yod:__ZN8UVModule8TransferI18StreamedBinaryReadILb0EEEEvRT_
jki:_InternalEnumerator_1_MoveNext_m4138204635_gshared
E5m:_emscripten_glBindVertexArray__wrapper
zDm:__ZN6il2cpp6icalls8mscorlib6System4Enum19get_underlying_typeEP20Il2CppReflectionType
kdi:_RepeatContext_get_IsMinimum_m3640286252
_Hl:_Parser_IsECMAScript_m674158805
j2:__ZN10ObjectPoolIN4FMOD3DSPENS0_4DSPIEE7GetFreeEi
fSa:__ZN9Transform37InitializeTransformHierarchyRecursiveER18TransformHierarchyRii
MLb:__ZN26SinglePassStereoSupportExt23SetupStereoMatrixParamsE21MonoOrStereoscopicEye24BuiltinShaderMatrixParamRK10Matrix4x4f
_9k:_Array_Resize_TisVector2_t2156229523_m1564542050_gshared
TYj:_DefaultComparer_Equals_m3770904334_gshared
uIb:__ZN9GfxDevice23CreateAsyncReadbackDataEv
_Gd:__ZN14ParticleSystem22UpdateAllTransformDataEv
FOf:__ZNK25UnityWebRequestJavaScript16GetUploadedBytesEv
Nca:__Z46AudioListener_CUSTOM_GetNumExtensionPropertiesP12Il2CppObject
Hfm:__ZN6il2cpp6icalls8mscorlib6SystemL16CheckMemberMatchI9FieldInfoNS_5utils10functional6FilterINSt3__212basic_stringIcNS8_11char_traitsIcEENS8_9allocatorIcEEEENS5_13VmStringUtils23CaseInsensitiveComparerEEEEEbPKT_PK11Il2CppClassSN_iRKT0_
kBd:__ZN27ColorModulePropertyBindings13AddPropertiesER10vector_mapIi22ParticleModulePropertyNSt3__24lessIiEENS2_9allocatorINS2_4pairIiS1_EEEEE
tNi:_SslClientStream_Finalize_m1251363641
ZTk:__Z84RuntimeInvoker_RuntimeObject_RayU26_t3515555043_Single_t1397266774_Int32_t2950945753PFvvEPK10MethodInfoPvPS4_
zsd:__ZN13InitialModule18SetInheritedParamsERK23SubEmitterInheritValues
Vqa:__Z14GetMonoManagerv
yKj:_Array_InternalArray__IndexOf_TisMonoResource_t4103430009_m1351751258_gshared
MG:__ZN17AnimationPlayable34CollectAnimatorControllerPlayablesER13dynamic_arrayIP26AnimatorControllerPlayableLj0EE
eCe:__ZN5physx2Sc9StaticSim21postActor2WorldChangeEv
bcj:_FieldAccessException__ctor_m3583219052
kEd:__ZL16ParticleGeomInitILb0EEvRK31ParticleSystemParticlesTempDatajRN4math8floatNx3ERK23ParticleSystemParticlesS5_S5_RKNS3_7_float4EPKfSB_SD_SB_RKNS3_5_int4EbSB_
HAj:_Decimal_System_IConvertible_ToDouble_m3125524987
PPc:__Z57Register_UnityEngine_Transform_INTERNAL_set_localPositionv
BSg:__ZL105RectTransform_t3704657025_CustomAttributesCacheGenerator_RectTransform_INTERNAL_get_anchorMax_m1239315619P21CustomAttributesCache
u9b:__ZN13GfxDeviceGLES26SetRandomWriteTargetBufferEi15ComputeBufferID
kz:__ZNK4PPtrI4MeshEptEv
oMm:_GC_split_block
V9k:_Array_Resize_TisUICharInfo_t75501106_m3903846016_gshared
etk:_ReadOnlyCollection_1_System_Collections_Generic_ICollectionU3CTU3E_get_IsReadOnly_m3887826072_gshared
nlm:__ZNK15dense_hashtableINSt3__24pairIK10KeyWrapperINS1_IPK12PropertyInfoP11Il2CppClassEEEjEES9_17ReflectionMapHashIS8_EN14dense_hash_mapIS9_jSD_NS9_14EqualsComparerINS0_8equal_toIS8_EEEENS0_9allocatorISB_EEE9SelectKeyESI_SK_E8min_sizeEjj
eic:__ZZ23InitPlayerLoopCallbacksvEN49EarlyUpdateResetFrameStatsAfterPresentRegistrator7ForwardEv
kie:__ZN5physx6shdfnd4sortIPvNS0_4LessIS2_EENS0_19ReflectionAllocatorINS_2Cm5BlockIhLj256EEEEEEEvPT_jRKT0_RKT1_j
vUm:_poll
gtk:_ReadOnlyCollection_1_System_Collections_IEnumerable_GetEnumerator_m1671097018_gshared
ljk:_UInt64_ToString_m1529093114_AdjustorThunk
whh:__ZN21InterfaceFuncInvoker1I39CustomAttributeNamedArgument_t287865710iE6InvokeEjP11Il2CppClassP12Il2CppObjecti
Fdg:_TypeLibImportClassAttribute__ctor_m2302178978
HPj:_Escape_t3294788190_marshal_pinvoke
BUh:_InputField_OnUpdateSelected_m1118869681
d9e:__ZN5physx20InternalTriangleMesh7releaseEv
rQe:__ZN5physx6shdfnd5ArrayINS_16PxsCCDBlockArrayINS_13PxsCCDOverlapELi128EE9BlockInfoENS0_19ReflectionAllocatorIS5_EEE15growAndPushBackERKS5_
y8d:__ZNK5physx7NpShape8getFlagsEv
GMh:_SerializationException__ctor_m3131447373
Kcb:__ZN4crnd12crn_unpacker11unpack_dxt1EPPhjjj
Nnm:__ZN15dense_hashtableINSt3__24pairIK10KeyWrapperIPK10Il2CppTypeEjEES6_N6il2cpp8metadata14Il2CppTypeHashEN14dense_hash_mapIS6_jSB_NS6_14EqualsComparerINSA_26Il2CppTypeEqualityComparerEEENS0_9allocatorIS8_EEE9SelectKeyESF_SH_E14squash_deletedEv
B0:__ZL55__ManagedRegistrationHelperFunction_CoordinateFramePairPv
lJc:__ZNK11ICallString6ToUTF8Ev
L4k:__Z39RuntimeInvoker_MonoResource_t4103430009PFvvEPK10MethodInfoPvPS4_
p5l:__ZN15dense_hashtableINSt3__24pairIK10KeyWrapperIPK22Il2CppGenericParameterEP11Il2CppClassEES6_N6il2cpp5utils11PointerHashIS4_EEN14dense_hash_mapIS6_S9_SE_NS6_14EqualsComparerINS0_8equal_toIS5_EEEENS0_9allocatorISA_EEE9SelectKeyESJ_SL_E15insert_noresizeERKSA_
Jyi:_Transform_1_Invoke_m2468053724_gshared
lNk:__Z51RuntimeInvoker_Void_t1185182177_TimeSpan_t881159249PFvvEPK10MethodInfoPvPS4_
fga:__ZL60__ManagedRegistrationHelperFunction_ClothSkinningCoefficientPv
Qmc:__ZNSt3__211__sift_downIR17ROSorterDepthPassP15RODataDepthPassEEvT0_S5_T_NS_15iterator_traitsIS5_E15difference_typeES5_
Oze:__ZN5physx19NpRigidBodyTemplateINS_14PxRigidDynamicEE25setMassSpaceInertiaTensorERKNS_6PxVec3E
Tre:__ZNK5physx7NpCloth16getContactOffsetEv
a1i:_ArgumentException__ctor_m3200406061
$N:__ZN8Animator17ApplyOnAnimatorIKEiRNS_11AnimatorJobE
Zua:__ZN12FileAccessor4ReadEyyPvPy
_Xl:__ZL25UnresolvedVirtualCall_177P12Il2CppObject25RaycastResult_t3360306849PK10MethodInfo
J$b:__Z29Transfer_Blittable_ArrayFieldI18StreamedBinaryReadILb0EE11QuaternionfEvRT_R9ArrayInfoRK23StaticTransferFieldInfo
Pml:_List_1_set_Capacity_m2777925136_gshared
n3c:__Z21GetSceneHierarchyPathPK6Object
Awc:__ZN13RenderTexture9SetHeightEi
Dta:__ZN17PersistentManager25PreallocateObjectThreadedEiNS_9LockFlagsE
fH:__ZN7mecanim9animation17ClearMotionOutputEPNS0_18AnimationNodeStateE
CIg:__ZL59LightmapBakeType_t1497855756_CustomAttributesCacheGeneratorP21CustomAttributesCache
tIi:_CipherSuiteCollection_get_IsFixedSize_m3127823890
SZa:__ZN16LevelGameManager8TransferI24GenerateTypeTreeTransferEEvRT_
Pqi:_InternalEnumerator_1_System_Collections_IEnumerator_get_Current_m3537550566_gshared
n_h:_Scrollbar_UpdateVisuals_m2492252165
aBl:_PKCS12_get_Keys_m2165478388
zvm:__ZN6il2cpp6icalls8mscorlib6System2IO6MonoIO17GetFileAttributesEP12Il2CppStringPi
JQh:_HMACMD5__ctor_m3008609295
owg:__ZL61X509KeyStorageFlags_t441861693_CustomAttributesCacheGeneratorP21CustomAttributesCache
ozj:_DateTime_ToString_m2992030064_AdjustorThunk
Fuf:_tt_cmap8_char_index
Tqa:__Z24scripting_class_get_name17ScriptingClassPtr
M7h:_Oid__ctor_m911618594
DSl:_VerticalLayoutGroup_CalculateLayoutInputHorizontal_m1404590745
exa:__ZN13RuntimeStaticI15GUIEventManagerLb0EE13StaticDestroyEPv
Fy:__ZNSt3__27__sort4IR17DetailNodeXSorterP16DetailMeshBVNodeEEjT0_S5_S5_S5_T_
bch:_ShortComparer_Compare_m1881262465
YOb:__Z29Transfer_Blittable_ArrayFieldI14SafeBinaryReadjEvRT_R9ArrayInfoRK23StaticTransferFieldInfo
Fe:_emscripten_set_keydown_callback
vYi:_EncoderReplacementFallback__ctor_m1483565116
ndi:_Interpreter_IsWordChar_m2858055765
omd:__ZN18ColorBySpeedModule8TransferI14SafeBinaryReadEEvRT_
hLa:__ZN9Scripting11UnityEngine29CustomRenderTextureUpdateZone12CleanupProxyEv
fva:__ZN12FileAccessorC2Ev
p3k:__Z96RuntimeInvoker_Void_t1185182177_BooleanU5BU5DU26_t3454195888_Int32_t2950945753_Int32_t2950945753PFvvEPK10MethodInfoPvPS4_
YTk:__Z73RuntimeInvoker_Void_t1185182177_Vector2U26_t2376273893_RayU26_t3515555043PFvvEPK10MethodInfoPvPS4_
S0j:_EqualityComparer_1_System_Collections_IEqualityComparer_Equals_m3855544238_gshared
bde:__ZN5physx2Sc15ArticulationSim12applyImpulseERNS0_8BodyCoreERKNS_9PxcFsDataERKNS_6PxVec3ES9_
Ofb:__ZNK8Renderer29FlattenPerMaterialCustomPropsER22PerThreadPageAllocatorR10RenderNode
nud:__Z15UpdateRandomTplIL27ParticleSystemCurveEvalMode0EEvRK11MinMaxCurveS3_S3_R5RandNR23ParticleSystemParticlesjjRKN4math8float3x3ERKNS8_7_float4E
nL:__ZThn152_NK26AnimatorControllerPlayable25GetStateMachineBehavioursEv
GEk:_EventFunction_1_Invoke_m2429482587_gshared
FTf:_EventTrigger_OnDeselect_m1919608102
bHd:__ZN14ParticleSystem16AssignRayBudgetsEv
kkg:__ZL51Attribute_t861562559_CustomAttributesCacheGeneratorP21CustomAttributesCache
Cna:__ZN14StackAllocator10ReallocateEPvji
cqb:__ZNK12InputManager22GetTypeVirtualInternalEv
CSl:_VerticalLayoutGroup__ctor_m321345421
xY:__ZN4PPtrI13MonoBehaviourE8TransferI18StreamedBinaryReadILb0EEEEvRT_
KAd:__ZN16CustomDataModuleD2Ev
f5j:_Enumerator_MoveNext_m1177880931_AdjustorThunk
wce:__ZNK5physx14NpArticulation26getInternalDriveIterationsEv
kDh:_SendMouseEvents_SetMouseMoved_m2822596724
jVg:__ZL82Event_t2956885303_CustomAttributesCacheGenerator_Event_get_commandName_m4275147343P21CustomAttributesCache
F_l:_TextGenerator_Populate_m194003733
ejh:_DerivedType_get_FullName_m1025358827
POh:_CryptoConfig_MapNameToOID_m2044758263
dHa:__ZL50__ManagedRegistrationHelperFunction_SetupCoroutinePv
bC:__ZN13ConstraintJob23ConstraintComponentDataC2ERKS0_
gmd:__ZN14VelocityModule8TransferI14SafeBinaryReadEEvRT_
a2g:__ZL70InputField_t3762917431_CustomAttributesCacheGenerator_m_OnValueChangedP21CustomAttributesCache
m2b:__Z39WriteQueueForTransferSignatureIntoCacheRK31TransferFunctionScriptingTraitsRK24TransferRequestSignature17ScriptingClassPtrR23CachedSerializationDataRb
rvb:__ZN13RenderManager18UpdateAllRenderersEv
aZi:_Encoding_get_UTF8UnmarkedUnsafe_m320312322
Tck:_Thread_Thread_free_internal_m333849022
tY:__ZN18AnimatorController19TransferRuntimeDataI18StreamedBinaryReadILb0EEEEvRT_
lDl:_CostDelegate_BeginInvoke_m2828452701
nY:__ZN15SerializeTraitsI9OffsetPtrIN7mecanim9animation17BlendTreeConstantEEE8TransferI24GenerateTypeTreeTransferEEvRS4_RT_
flk:_Collection_1_ConvertItem_m1556170494_gshared
tH:__ZN7mecanim5human12HumanPoseAddERNS0_9HumanPoseERKS1_S4_
xtj:_DateTime_ToUniversalTime_m1945318289
DCj:_DllNotFoundException__ctor_m1156705135
C7i:_ArrayList_ToArray_m3827492363
eFd:__Z20UpdateWholeSheet2TplIL27ParticleSystemCurveEvalMode2ELS0_2EEvfRK11MinMaxCurveS3_RK23ParticleSystemParticlesPf
f2h:_Slider_get_stepSize_m1423227661
gjk:_UInt64_Parse_m819899889
ZPi:_SymmetricAlgorithm_set_IV_m3196220308
$kh:_GenericTypeParameterBuilder_GetHashCode_m852224381
Vwj:_Convert_ToUInt32_m1453583008
hdj:_CompareInfo_Compare_m894311506
MRa:__Z24MergeTransformComponentsR9TransformS0_b
J9l:__ZNK15dense_hashtableI10KeyWrapperIPK19Il2CppGenericMethodES4_N6il2cpp8metadata23Il2CppGenericMethodHashEN14dense_hash_setIS4_S7_NS4_14EqualsComparerINS6_26Il2CppGenericMethodCompareEEENSt3__29allocatorIS4_EEE8IdentityESB_SE_E10test_emptyEj
$qi:_InternalEnumerator_1_System_Collections_IEnumerator_get_Current_m3982010935_AdjustorThunk
b8d:__ZThn24_N5physx2Sc20ArticulationJointSimD0Ev
hz:__ZNSt3__218__insertion_sort_3IR9SortIndexIPKhEPjEEvT0_S7_T_
oSf:_EventSystem_UpdateModules_m3643806022
PEm:__ZN6il2cpp2gc16GarbageCollector10StartWorldEv
NNd:__ZN14PhysicsManager32AddToTriggerStayStatesIfRequiredEPK9Rigidbody
L0l:_AnimationOffsetPlayable__cctor_m1029460816
WBk:_InvokableCall_1__ctor_m2610016537_gshared
XRi:_Evidence_get_SyncRoot_m2835084965
i2d:__ZN5physx14PxsAABBManager12createBPElemEv
zHj:_SetPropertyUtility_SetStruct_TisTouchScreenKeyboardType_t1530597702_m2455393348_gshared
eZj:_DefaultComparer__ctor_m2280347240_gshared
Uoe:__ZThn12_N5physx7NpShape14onRefCountZeroEv
Qwg:__ZL59ICryptoTransform_t2733259762_CustomAttributesCacheGeneratorP21CustomAttributesCache
VWd:__ZL26GeomMTDCallback_ConvexMeshRN5physx6PxVec3ERfRKNS_10PxGeometryERKNS_11PxTransformES5_S8_
CIm:__ZN6il2cpp2vm13ComObjectBase19GetRuntimeClassNameEPP15Il2CppHString__
M_b:__Z35Transfer_Blittable_FixedBufferFieldI18StreamedBinaryReadILb0EEyEvRK29SerializationCommandArgumentsR31RuntimeSerializationCommandInfo
WYa:__Z37GetBarycentricCoordinatesForOuterCellPPK8Vector3fRK13dynamic_arrayIS_Lj0EERS0_RK11TetrahedronR8Vector4f
pk:_emscripten_glVertexAttribPointer
sWm:__ZNSt11logic_errorD0Ev
$4b:__ZN14PreloadManager26UpdatePreloadingSingleStepENS_21UpdatePreloadingFlagsEi
qFk:_TweenRunner_1__ctor_m340723704_gshared
V0h:_ScrollRect_SetLayoutHorizontal_m3078869633
v4e:__ZN18ScBeforeSolverTask11runInternalEv
Prj:_Console_OpenStandardInput_m3262421490
I1i:_Array_GetRank_m2893148338
TXl:__ZL25UnresolvedVirtualCall_170P12Il2CppObject40CustomAttributeTypedArgument_t2723150157S1_PK10MethodInfo
nLc:__Z57Register_UnityEngine_RectTransform_INTERNAL_set_anchorMinv
K4d:__ZL33GeomOverlapCallback_CapsuleConvexRKN5physx10PxGeometryERKNS_11PxTransformES2_S5_PNS_2Gu12TriggerCacheE
Mwj:_Convert_ToUInt16_m1480956416
tEa:__ZN6prcoreL25inner_stretch_i8_bilinearEPKNS_9InnerInfoE
Zwb:__ZL30RegisterFilteredObjectCallbackPP12Il2CppObjectiPv
Uvk:_ReadOnlyCollection_1_System_Collections_Generic_IListU3CTU3E_RemoveAt_m3317217538_gshared
NUg:__ZL54AudioSource_t3935305588_CustomAttributesCacheGeneratorP21CustomAttributesCache
v5b:__Z19InitializeGfxDevicev
stc:__Z30GetScriptableCullingParametersR6CamerabR27ScriptableCullingParameters
Aha:__ZN11UnityEngine15CloudWebService16SessionContainer24GetSessionHeaderJsonDataERKN4core12basic_stringIcNS2_20StringStorageDefaultIcEEEERNS2_13StringBuilderE
Jih:_DerivedType_GetEvent_m4157575360
wwa:__ZN13RuntimeStaticI21AssetReferenceStorageLb0EE13StaticDestroyEPv
k9e:__ZN5physx20InternalTriangleMesh9loadRTreeERNS_13PxInputStreamEj
b0f:_Image_get_sprite_m1811690853
ZAe:__ZN5physx19NpRigidBodyTemplateINS_14PxRigidDynamicEE25setCMassLocalPoseInternalERKNS_11PxTransformE
naj:_Comparer__ctor_m2831654082
EKg:__ZL54PhysicsUpdate_t81124440_CustomAttributesCacheGeneratorP21CustomAttributesCache
NBe:__ZNK5physx15NpActorTemplateINS_13PxRigidStaticEE14getOwnerClientEv
Pok:_Collection_1_ConvertItem_m618594517_gshared
KZk:__Z72RuntimeInvoker_Bounds_t2266837910_RuntimeObject_Matrix4x4U26_t3606180965PFvvEPK10MethodInfoPvPS4_
azk:__ZN28GenericInterfaceFuncInvoker2IbiiE6InvokeEPK10MethodInfoP12Il2CppObjectii
ZEm:__ZN6il2cpp6icalls8mscorlib6System9AppDomain22InternalGetProcessGuidEP12Il2CppString
pF:__ZNK25RuntimeAnimatorController30GetAnimationClipOverrideVectorEv
gxe:__ZN5physx2Sc18ParticleSystemCore16releaseParticlesEv
LRe:__ZNK5physx2Gu29EPASupportMapPairRelativeImplINS0_8CapsuleVENS0_4BoxVEE6getDirEv
SZd:__ZN5physx2Gu20intersectTriangleBoxERKNS_6shdfnd3aos5Vec3VES5_S5_S5_S5_
lBg:__ZL79Convert_t2465617642_CustomAttributesCacheGenerator_Convert_ToUInt32_m3188121845P21CustomAttributesCache
lIk:__Z48RuntimeInvoker_RuntimeObject_Decimal_t2948259380PFvvEPK10MethodInfoPvPS4_
hdk:_ThreadStart_EndInvoke_m3768045394
WD:__ZN9Scripting11UnityEngine10Animations16ConstraintSource9InitProxyEv
$5c:__Z34Quaternion_CUSTOM_Inverse_InjectedRK11QuaternionfRS_
Ofm:__ZNSt3__214__split_bufferIP9FieldInfoRNS_9allocatorIS2_EEEC2EjjS5_
Rxj:_DateTime__cctor_m1880035693
XMh:_StreamingContext__ctor_m2604757771_AdjustorThunk
vTb:__Z18Transfer_BlittableI24GenerateTypeTreeTransferLb1EjEvRK29SerializationCommandArgumentsR31RuntimeSerializationCommandInfo
lnl:_List_1_AddCollection_m1469681717_gshared
Tkm:__ZNK15dense_hashtableINSt3__24pairIK10KeyWrapperINS1_IPK11Il2CppImageP11Il2CppClassEEEjEES9_17ReflectionMapHashIS8_EN14dense_hash_mapIS9_jSD_NS9_14EqualsComparerINS0_8equal_toIS8_EEEENS0_9allocatorISB_EEE9SelectKeyESI_SK_E10test_emptyERK30dense_hashtable_const_iteratorISB_S9_SD_SM_SI_SK_E
EXk:__Z103RuntimeInvoker_Boolean_t97287965_Ray_t3785851493_Single_t1397266774_Int32_t2950945753_Int32_t2950945753PFvvEPK10MethodInfoPvPS4_
Mrg:__ZL68AssemblyCopyrightAttribute_t836190902_CustomAttributesCacheGeneratorP21CustomAttributesCache
J$a:__ZN11ColorRGBA328TransferI14SafeBinaryReadEEvRT_
etl:_Collection_1_Add_m1736908447_gshared
Rqf:_cff_vstore_done
mgf:__ZN5physx6shdfnd5ArrayIPvNS0_19ReflectionAllocatorINS_24NpPtrTableStorageManager8PtrBlockILi4EEEEEE15growAndPushBackERKS2_
nGb:__ZN9GfxDevice33ScheduleComputeBufferJobsInternalEPFvP20ComputeBufferJobDataEPFvRK8JobFenceEPK27ComputeBufferJobInstructionj
zTk:__Z68RuntimeInvoker_Void_t1185182177_UInt16_t2177724958_SByte_t1669577662PFvvEPK10MethodInfoPvPS4_
Ijk:__ZN25GenericVirtActionInvoker2IP12Il2CppObjectP39UnhandledExceptionEventArgs_t2886101344E6InvokeEPK10MethodInfoS1_S1_S3_
tii:_InternalEnumerator_1_get_Current_m3008260692_AdjustorThunk
gRh:_MACTripleDES_HashFinal_m3613553534
Cik:_UInt64_System_IConvertible_ToChar_m2074245892
Q9a:__Z11IsHDRFormat13TextureFormat
ZB:__ZN4core8hash_setIPN5Unity9ComponentENS_4hashIS3_EENSt3__28equal_toIS3_EEE4growEi
ebk:_UTF8Encoding_InternalGetBytes_m1965760031
ig:_emscripten_glClearDepth
MTc:__ZNK8GUILayer22GetTypeVirtualInternalEv
qeb:__ZN14SafeBinaryRead21TransferSTLStyleArrayINSt3__26vectorIN15QualitySettings14QualitySettingENS1_9allocatorIS4_EEEEEEvRT_17TransferMetaFlags
qCk:_UnityAction_1__ctor_m3007623985_gshared
ywi:_KeyCollection__ctor_m2388548663_gshared
m0k:__Z56RuntimeInvoker_Boolean_t97287965_ILTokenInfo_t2325775114PFvvEPK10MethodInfoPvPS4_
Yrb:__ZNSt3__26vectorINS_4pairIPKN5Unity4TypeE7Hash128EENS_9allocatorIS7_EEE8__appendEj
wC:__ZN4core8hash_setIPN5Unity9ComponentENS_4hashIS3_EENSt3__28equal_toIS3_EEE4growEv
ijd:__ZN8JSONRead21TransferSTLStyleArrayI13dynamic_arrayIaLj0EEEEvRT_17TransferMetaFlags
Uqf:_cff_font_load
DFm:__GLOBAL__sub_I_LibraryLoader_cpp
a4c:__Z13IsPathCreatedRKN4core12basic_stringIcNS_20StringStorageDefaultIcEEEE
O0g:__ZL99Dropdown_t2274391225_CustomAttributesCacheGenerator_Dropdown_DelayedDestroyDropdownList_m2082128994P21CustomAttributesCache
gUe:__ZN5physx35solveContactPreBlock_ConcludeStaticEPKNS_23PxcSolverConstraintDescEjRNS_16PxcSolverContextE
tqh:_Debug_LogWarningFormat_m2535776735
_9a:__ZL22stbir__encode_scanlineP11stbir__infoiPvPfiii
lVl:__ZL24UnresolvedVirtualCall_28P12Il2CppObjectS0_iiPK10MethodInfo
Rcg:_ExternalException__ctor_m2877839282
Ijf:__ZN20QuadTreeNodeRenderer13StaticDestroyEPv
wia:__ZN11UnityEngine15CloudWebService20WebRequestRestClient5AbortEv
Ilk:_Collection_1_InsertItem_m954500348_gshared
kGl:_Regex_Matches_m2080913806
_Sc:__ZN9Transform12CleanupClassEv
b1g:__ZL57FontData_t746620069_CustomAttributesCacheGenerator_m_FontP21CustomAttributesCache
Z6d:__ZN5physx6shdfnd5ArrayIPvNS0_15InlineAllocatorILj256ENS0_19ReflectionAllocatorINS_2Cm5BlockIS2_Lj32EEEEEEEE15growAndPushBackERKS2_
v3e:__ZN5physx18PxsSolverStartTask13setupDescTaskEv
dof:_UNITY_FT_Set_Pixel_Sizes
Bfh:_OperatingSystem_Clone_m1122165140
ael:_GameObject_AddComponent_TisRuntimeObject_m3469369570_gshared
AN:__ZN11UnityEngine9Animation33SetGenericTransformPropertyValuesERKNS0_30AnimatorGenericBindingConstantERKN7mecanim10ValueArrayEP9Transformy
Tzg:__ZL59AttributeTargets_t1784037988_CustomAttributesCacheGeneratorP21CustomAttributesCache
UU:__ZN11UnityEngine9Animation28AnimationClipBindingConstant8TransferI24GenerateTypeTreeTransferEEvRT_
yVd:__ZN5physx3Cct13BoxController6resizeEf
Xil:_List_1_RemoveAll_m3165362277_gshared
Cfk:_Type_type_is_subtype_of_m1406623598
hHa:__ZL54__ManagedRegistrationHelperFunction_SpriteAtlasManagerPv
$4e:__ZN5physx6shdfnd5ArrayINS_2Cm12DelegateTaskINS_2Sc5SceneEXadL_ZNS5_19updateCCDSinglePassEPNS_10PxBaseTaskEEEEENS0_19ReflectionAllocatorIS8_EEE8recreateEj
Fbk:_Thread_get_CurrentThread_m4142136012
gYa:__Z30ProcessDynamicBatchGeometryJobP25DynamicVBOGeometryJobDataj
rnc:__ZNSt3__27__sort4IRNS_6__lessI11CulledLightS2_EEPS2_EEjT0_S6_S6_S6_T_
Wom:__ZN6il2cpp2vm14TypeNameParser26ParseArrayModifierOptionalEv
R6:__ZN10AudioMixer16OnRuntimeChangedEv
lsa:__Z26scripting_object_get_class18ScriptingObjectPtr
Cum:__ZN6il2cpp6icalls8mscorlib6System10Reflection8Assembly13get_code_baseEP24Il2CppReflectionAssemblyb
Rsb:__ZNSt3__26vectorIN4core12basic_stringIcNS1_20StringStorageDefaultIcEEEE13stl_allocatorIS5_L18MemLabelIdentifier13ELi16EEE7reserveEj
qwd:__Z25UpdateOrbitalAndRadialTplIL27ParticleSystemCurveEvalMode1ELS0_3ELS0_0EEvRK11MinMaxCurveS3_S3_S3_S3_S3_S3_R23ParticleSystemParticlesjjRKN4math8float3x3ERKNS6_7affineXERKNS6_7_float4E
XPh:_DSASignatureDeformatter__ctor_m2889130126
bbi:_X509ChainElementCollection_Clear_m2271223414
KUc:__ZNK28MonoBehaviourPropertyBinding15GenerateBindingERKN4core12basic_stringIcNS0_20StringStorageDefaultIcEEEEbRN11UnityEngine9Animation14GenericBindingE
_Bh:_RectTransform_INTERNAL_set_pivot_m1160676233
Onl:_List_1_set_Item_m35836043_gshared
t3g:__ZL70ScrollRect_t4137855814_CustomAttributesCacheGenerator_m_OnValueChangedP21CustomAttributesCache
Uai:_X509ChainElementCollection__ctor_m3424079155
XQh:_HMACSHA512__cctor_m4155933671
tDl:_LinkStack_Push_m3081279930
Kyd:__Z20StartSingleSidedEdgeILN11ShapeModule14MultiModeValueE0EEvRS0_R23ParticleSystemParticlesRK19ParticleSystemStateRK27ParticleSystemEmissionStateRKN4math8float3x3ERKNSB_7affineXEjbj
kvi:_Enumerator_MoveNext_m1107569389_gshared
Rae:__ZNK5physx21PxsBodyTransformVault12getTransformERKNS_11PxsBodyCoreE
Pfm:__ZNSt3__26vectorIP9FieldInfoNS_9allocatorIS2_EEE26__swap_out_circular_bufferERNS_14__split_bufferIS2_RS4_EE
BEk:_UnityEvent_3_GetDelegate_m1156357290_gshared
HGm:__ZN6il2cpp6icalls8mscorlib6System11Environment15internalGetHomeEv
Wli:_InternalEnumerator_1__ctor_m4200721464_gshared
qvh:_Matrix4x4_GetHashCode_m4034747639_AdjustorThunk
Ubg:_ResourceCacheItem_t51292791_marshal_pinvoke_cleanup
ZMa:__ZNK5Unity9Component7GetNameEv
xHf:__ZN11UnityEngine9Analytics15UserCustomEvent15Internal_CreateE18ScriptingObjectPtrRKN4core12basic_stringIcNS3_20StringStorageDefaultIcEEEE
p8:__ZN10AudioMixer8TransferI18StreamedBinaryReadILb0EEEEvRT_
xxc:__Z23FindMonoScriptFromClass17ScriptingClassPtr
aQi:_SymmetricAlgorithm_get_KeySize_m4185004893
Ygl:_List_1_GetEnumerator_m232588170_gshared
kXd:__ZN44ConvexVsHeightfieldContactGenerationCallback7onEventEjPj
iKb:__ZN21ScalableBufferManager23UnregisterRenderSurfaceEP17RenderSurfaceBaseb
fgm:__ZNSt3__214__split_bufferIPK10MethodInfoRNS_9allocatorIS3_EEED2Ev
fml:_List_1_System_Collections_IList_Remove_m1070694895_gshared
GKl:_LayoutCache__ctor_m3885940174
qjb:__ZN13ScreenManagerD0Ev
D0l:_AnimationMotionXToDeltaPlayable_GetHandle_m1319190040_AdjustorThunk
sw:__ZN22NavMeshProjectSettings23VirtualRedirectTransferER17RemapPPtrTransfer
TO:__ZN7mecanim8skeleton26SkeletonPoseComputeGlobalQEPKNS0_8SkeletonEPKNS0_13SkeletonPoseTIN4math4trsXEEEPS7_ii
Bik:_UInt64_System_IConvertible_ToByte_m1501504925_AdjustorThunk
r_l:_TextGenerator_Invalidate_m1072346986
BDd:__ZN14ParticleSystem40OnTrailGeometryJobsScheduledRenderThreadERK8JobFence
dLi:_TlsClientHello_ProcessAsTls1_m2549285167
Y5k:__Z74RuntimeInvoker_Boolean_t97287965_UIVertex_t4057497605_UIVertex_t4057497605PFvvEPK10MethodInfoPvPS4_
mSe:__ZN5physx2Gu19_gjkRelativeRayCastINS0_9TriangleVENS0_8CapsuleVEEEbRT_RT0_RKNS_6shdfnd3aos15PsMatTransformVERKNS9_6FloatVERKNS9_5Vec3VESI_RSD_RSG_SK_f
C$h:_ScrollRect_set_decelerationRate_m723367336
Tpd:__ZN13TriggerModule8TransferI19StreamedBinaryWriteILb0EEEEvRT_
tO:__ZN9BlobWrite8TransferI22OffsetPtrArrayTransferIiEEEvRT_PKc17TransferMetaFlags
kYi:_EncoderExceptionFallback_Equals_m2760188920
Boi:_InternalEnumerator_1__ctor_m43405049_AdjustorThunk
JRb:__Z18Transfer_BlittableI17RemapPPtrTransferLb1EjEvRK29SerializationCommandArgumentsR31RuntimeSerializationCommandInfo
ERh:_RC2CryptoServiceProvider_get_EffectiveKeySize_m3835262416
Abe:__ZN5physx6shdfnd5ArrayIPvNS0_15InlineAllocatorILj256ENS0_19ReflectionAllocatorINS_11NpAggregateEEEEEE15growAndPushBackERKS2_
fvc:__ZNK15LODGroupManager17CalculateLODMasksERK13LODParametersfPhPf
Au:__ZNSt3__26vectorI14HeightMeshData13stl_allocatorIS1_L18MemLabelIdentifier77ELi16EEE8__appendEj
F5:__ZN4FMOD6System7releaseEv
lOe:__ZN5physx6shdfnd8PoolBaseINS_2Sc18TriggerInteractionENS0_19ReflectionAllocatorIS3_EEE15disposeElementsEv
uVb:__Z18Transfer_BlittableI19StreamedBinaryWriteILb0EELb1E8BitFieldEvRK29SerializationCommandArgumentsR31RuntimeSerializationCommandInfo
w4i:_Boolean_CompareTo_m3665076258
fVi:_String_Split_m3580120853
MTj:_PrivateKeyInfo__ctor_m2811023496
Cua:__Z18PathToAbsolutePathRKN4core12basic_stringIcNS_20StringStorageDefaultIcEEEE
a5f:_PropertyBuilder_GetCustomAttributes_m2917594003
CLl:_GUILayoutUtility_LayoutFromEditorWindow_m2914699782
tCi:_BigInteger_SetBit_m1723423691
uKa:__ZN9Scripting11UnityEngine12Experimental10PlayerLoop13PreLateUpdate9InitProxyEv
uS:__ZN13AnimationClip23VirtualRedirectTransferER17RemapPPtrTransfer
__k:__Z78RuntimeInvoker_RuntimeObject_ObjectU26_t2146539884_RuntimeObject_RuntimeObjectPFvvEPK10MethodInfoPvPS4_
Kog:__ZL65X509ExtensionCollection_t609554708_CustomAttributesCacheGeneratorP21CustomAttributesCache
YGf:__ZN21UnityAnalyticsManager15ThreadedCleanupEv
QNm:__ZN6il2cpp6icalls8mscorlib6System10Reflection16MonoPropertyInfo16GetTypeModifiersEPvb
gXd:__ZL31PointInConvexPolygon2D_OutCodesPKfjffffRh
zye:__ZN5physx22NpParticleBaseTemplateINS_16PxParticleSystemENS_16NpParticleSystemEE18setDynamicFrictionEf
E9a:__ZL13BlitImageImplR14ImageReferenceiiRKS_NS_10ColorSpaceENS_8BlitModeEb
a0c:__ZN15DirectorManager17AcquireOutputNodeEv
evd:__ZL15AccumulateNoiseILb1ELi1EEN4math8floatNx2ERKNS0_8floatNx3ERKfiS6_S6_
Mhb:__Z14resize_trimmedINSt3__26vectorI13dynamic_arrayI8Vector2fLj0EENS0_9allocatorIS4_EEEEEvRT_j
M8k:_Array_InternalArray__set_Item_TisColor32_t2600501292_m1891325855_gshared
L0b:__ZN10MonoScript23VirtualRedirectTransferER17RemapPPtrTransfer
del:_GameObject_GetComponentInChildren_TisRuntimeObject_m1310240902_gshared
Nee:__ZN5physx2Sc21ArticulationJointCore21setInternalComplianceEf
XFi:__ZN30GenericInterfaceActionInvoker2IP12Il2CppObjectP21EventArgs_t3591816995E6InvokeEPK10MethodInfoS1_S1_S3_
bef:__ZN9Rigidbody12MoveRotationERK11Quaternionf
_cf:__ZNK5physx6shdfnd10Foundation13getErrorLevelEv
FNg:__ZL69PersistentCall_t3407714124_CustomAttributesCacheGenerator_m_ArgumentsP21CustomAttributesCache
R_a:__Z32TransferEnumWithNameForceIntSizeI14SafeBinaryReadN21BuiltinShaderSettings17BuiltinShaderModeEEvRT_RT0_PKc17TransferMetaFlags
rLi:_TlsServerCertificateRequest_ProcessAsSsl3_m1084200341
v3:__ZN12AudioManager29ShutdownReinitializeAndReloadEv
l1a:__ZN16ReflectionProbes28GetMinBakedCubemapResolutionEv
j6e:__ZN5physx2Cm12DelegateTaskINS_2Sc5SceneEXadL_ZNS3_15postNarrowPhaseEPNS_10PxBaseTaskEEEE11runInternalEv
kii:_InternalEnumerator_1__ctor_m1196506529_gshared
rjf:__Z20ConvertContactToMonoP9Collision
PRi:_PermissionSet__ctor_m2328457660
mAi:_Enumerator__ctor_m1849900510_gshared
nIm:__GLOBAL__sub_I_String_cpp
m5l:__ZN15dense_hashtableINSt3__24pairIK10KeyWrapperIPK22Il2CppGenericParameterEP11Il2CppClassEES6_N6il2cpp5utils11PointerHashIS4_EEN14dense_hash_mapIS6_S9_SE_NS6_14EqualsComparerINS0_8equal_toIS5_EEEENS0_9allocatorISA_EEE9SelectKeyESJ_SL_E6insertERKSA_
KUh:_InputField_GenerateCaret_m1459647218
DHg:__ZL49Camera_t4157153871_CustomAttributesCacheGeneratorP21CustomAttributesCache
NSg:__ZL101SpriteAtlasManager_t3158462485_CustomAttributesCacheGenerator_SpriteAtlasManager_Register_m2413332465P21CustomAttributesCache
UAl:_X509CertificateEnumerator__ctor_m85694331
zac:__ZN14DataBufferGLES16RecreateWithDataEjPKv
vNa:__Z29GetGlobalAllowNameConversionsv
fXd:__ZL17transformVerticesRfS_S_S_PfjPKN5physx6PxVec3EPKhRKNS1_7PxMat33E
Qff:__ZNK5physx2Gu15HeightFieldUtil31getFaceIndexAtShapePointNoTest2Ejff
BNj:_Array_InternalArray__Insert_TisTableRange_t3332867892_m558285859_gshared
YNd:__ZNK12PhysXRaycast20FindParticleOverlapsER13dynamic_arrayI15BatchedOverlapsLj0EEPP8Colliderj
nyc:__ZN8Material8SetColorEN9ShaderLab16FastPropertyNameERK10ColorRGBAf
v_g:__ZL77ExecuteEvents_t3484638744_CustomAttributesCacheGenerator_U3CU3Ef__mgU24cacheFP21CustomAttributesCache
G$e:__ZN5physx6shdfnd5ArrayIPNS_14PxLightCpuTaskENS0_13TempAllocatorEE6resizeEjRKS3_
VUj:_StrongName_get_TokenAlgorithm_m1794722022
N6j:_Enumerator_System_Collections_IEnumerator_Reset_m3754523291_gshared
xLf:__ZN11UnityEngine7Connect20RemoteConfigSettings19ConfigUpdatedStaticEPS1_bbi
cAg:__ZL77Convert_t2465617642_CustomAttributesCacheGenerator_Convert_ToByte_m2375887898P21CustomAttributesCache
Z8:__ZN11AudioSource23VirtualRedirectTransferER18StreamedBinaryReadILb0EE
Zzh:_RangeInt_get_end_m4128831787
mPe:__ZNK5physx2Sq10AABBPruner5sweepERKNS0_9ShapeDataERKNS_6PxVec3ERfRNS0_14PrunerCallbackE
UBk:_InvokableCall_1_Find_m1741895083_gshared
$Vb:__ZN10RectOffset8TransferI19StreamedBinaryWriteILb0EEEEvRT_
cYk:__Z79RuntimeInvoker_Void_t1185182177_RuntimeObject_RuntimeObject_RectU26_t1284589061PFvvEPK10MethodInfoPvPS4_
hNf:__Z25GetUnityConnectModuleSpecv
GA:__ZN24NavMeshAgentScaleJobData3JobEPS_jPK23TransformAccessReadOnlyPKyj
_kl:_List_1_set_Item_m2082115010_gshared
TYi:_Encoding_GetBytes_m3735967069
jKe:__ZN5physx2Sc5Scene21fireCallBacksPostSyncEv
y2i:_Array_Initialize_m3004991267
Rdc:__ZN14GfxContextGLES43AddRenderSurfaceToDeferredFBOInvalidateListEPK17RenderSurfaceGLES
SQe:__ZN5physx17PxsCCDAdvanceTask11runInternalEv
Zta:__ZN14SerializedFile14SerializedTypeD2Ev
$2h:_Text_get_resizeTextMinSize_m1002355407
Tnf:__ZNSt3__26vectorIN20TextRenderingPrivate8FontImpl13CharacterInfoE13stl_allocatorIS3_L18MemLabelIdentifier1ELi16EEE6insertENS_11__wrap_iterIPKS3_EERS9_
Sn:FUNCTION_TABLE_vifiiiiiiiiiiiii
KA:__ZN34NavMeshAgentUpdateTransformJobData3JobEPS_j
k2i:_Array_CreateInstance_m1027597705
fhm:__ZN6il2cpp2vm7Runtime15InvokeWithThrowEPK10MethodInfoPvPS5_
$jm:__ZNK15dense_hashtableINSt3__24pairIK10KeyWrapperINS1_IPK10MethodInfoP11Il2CppClassEEEjEES9_17ReflectionMapHashIS8_EN14dense_hash_mapIS9_jSD_NS9_14EqualsComparerINS0_8equal_toIS8_EEEENS0_9allocatorISB_EEE9SelectKeyESI_SK_E8min_sizeEjj
OHm:__ZN6il2cpp5utils11StringUtils11Utf16ToUtf8ERKNSt3__212basic_stringIDsNS2_11char_traitsIDsEENS2_9allocatorIDsEEEE
ZEi:_MD4Managed_Decode_m4273685594
zPk:__Z50RuntimeInvoker_Int64_t3736567304_Int16_t2552820387PFvvEPK10MethodInfoPvPS4_
F4l:_UnityEngineModuleAssembly__ctor_m242195730
R$d:__ZN5physx3Cct26CharacterControllerManagerD2Ev
BUk:__Z57RuntimeInvoker_Quaternion_t2301928331_Vector3_t3722313464PFvvEPK10MethodInfoPvPS4_
dwb:__ZN21LightProbeProxyVolume18HasHardwareSupportEv
Dqc:__ZN26LightProbeProxyVolumeCacheC2ER13BatchRendererR15RenderLoopStats
zkj:_IntPtr__ctor_m620280096
sEa:__ZN6prcoreL31inner_stretch_argb8888_bilinearEPKNS_9InnerInfoE
AXb:__Z18Transfer_BlittableI18StreamedBinaryReadILb1EELb1E8BitFieldEvRK29SerializationCommandArgumentsR31RuntimeSerializationCommandInfo
jvf:_UNITY_FT_Outline_Decompose
ARc:__Z13RegisterClassI12LineRendererEvPKc
zjj:_Int64_System_IConvertible_ToChar_m1509243576_AdjustorThunk
Xec:__ZNK12GraphicsCaps24GetFallbackSampledFormatE14GraphicsFormat
eAl:_GeneralNames_get_IPAddresses_m4242915644
cGh:_UnitySynchronizationContext_Exec_m3359802660
S4j:_Enumerator_Dispose_m3500272053_AdjustorThunk
GMm:_GC_init_size_map
oUg:__ZL84AudioSampleProvider_t3950279772_CustomAttributesCacheGenerator_sampleFramesAvailableP21CustomAttributesCache
tQe:__ZN5physx6shdfnd8internal8HashBaseINS0_4PairIKNS3_IPKNS_12PxsRigidCoreEPKNS_12PxsShapeCoreEEEPNS_11PxsCCDShapeEEESA_NS0_4HashISA_EENS1_11HashMapBaseISA_SD_SG_NS0_9AllocatorEE6GetKeyESI_Lb1EE15reserveInternalEj
zUa:__Z20scripting_object_new17ScriptingClassPtr
SYm:dynCall_iiiiifi
Wmg:__ZL69RuntimeArray_CustomAttributesCacheGenerator_Array_Reverse_m3714848183P21CustomAttributesCache
tMa:__ZN9Scripting5Unity11Collections39NativeMatchesParallelForLengthAttribute12CleanupProxyEv
ZTj:_KeyGeneratedEventHandler_Invoke_m2527485594
bpb:__ZN26SkinnedMeshRendererManager11AddRendererER19SkinnedMeshRenderer
K4f:_Image_get_layoutPriority_m1290204116
vyd:__Z16RandomUnitVectorRKN4math7_float4ES2_
bjm:__ZN24dense_hashtable_iteratorINSt3__24pairIK10KeyWrapperINS1_IPK9FieldInfoP11Il2CppClassEEEjEES9_17ReflectionMapHashIS8_EN14dense_hash_mapIS9_jSD_NS9_14EqualsComparerINS0_8equal_toIS8_EEEENS0_9allocatorISB_EEE9SelectKeyESI_SK_E30advance_past_empty_and_deletedEv
jIl:_Repetition_get_Expression_m2673886232
$Ke:__ZN5physx2Sc5Scene21setDominanceGroupPairEhhRKNS_20PxDominanceGroupPairE
rAj:_Decimal__ctor_m1925875020_AdjustorThunk
ZKa:__ZN9Scripting11UnityEngine6Events14UnityEventBase12CleanupProxyEv
n1:__ZN23PreloadManagerOperation21MustCompleteNextFrameEv
qt:__ZN14NavMeshManager23RemoveOffMeshConnectionEy
dwg:__ZL59SerializationInfo_t950877179_CustomAttributesCacheGeneratorP21CustomAttributesCache
lpd:__ZN16CustomDataModule8TransferI18StreamedBinaryReadILb0EEEEvRT_
P:Math_exp
hoh:_Vector3_Min_m1803158933
Ap:FUNCTION_TABLE_iiifi
sDm:__ZN6il2cpp2os5posix13PosixAutoLockD2Ev
mzl:_TlsServerSettings_set_CertificateTypes_m2047242411
Eqm:_il2cpp_class_get_name
IMl:_SymmetricTransform_OFB_m3690147804
Ypi:_InternalEnumerator_1_MoveNext_m3713722659_AdjustorThunk
wof:_cff_get_advances
I1b:__ZN13MonoBehaviour9SetScriptERK4PPtrI10MonoScriptE18ScriptingObjectPtr
$rm:_RaycastHit2D_get_collider_m1549426026
SQb:__Z18Transfer_BlittableI17RemapPPtrTransferLb0E8Vector2fEvRK29SerializationCommandArgumentsR31RuntimeSerializationCommandInfo
tym:__ZNSt3__218uninitialized_copyIPNS_4pairIK10KeyWrapperIP14Il2CppIUnknownEjEES8_EET0_T_SA_S9_
zFh:_Transform_Translate_m1990195114
I3k:__Z77RuntimeInvoker_Void_t1185182177_Vector2U5BU5DU26_t476646542_Int32_t2950945753PFvvEPK10MethodInfoPvPS4_
ACe:__ZN5physx7NpScene12loadFromDescERKNS_11PxSceneDescE
Ali:_InternalEnumerator_1_MoveNext_m3664960764_AdjustorThunk
zBb:__ZNK10FileSystem16LastErrorMessageEv
V7k:_Array_InternalArray__Insert_TisVector3_t3722313464_m3862657277_gshared
hHg:__ZL104NativeClassAttribute_t2601352714_CustomAttributesCacheGenerator_U3CQualifiedNativeNameU3Ek__BackingFieldP21CustomAttributesCache
gib:__ZN15SerializeTraitsI13dynamic_arrayI12SpriteVertexLj0EEE19ResizeSTLStyleArrayERS2_i
pSi:_SecurityException__ctor_m1631242336
n7l:__ZN15dense_hashtableINSt3__24pairIK10KeyWrapperIPK11Il2CppClassEPKcEES6_N6il2cpp5utils11PointerHashIS3_EEN14dense_hash_mapIS6_S9_SE_NS6_14EqualsComparerINS0_8equal_toIS5_EEEENS0_9allocatorISA_EEE9SelectKeyESJ_SL_E14squash_deletedEv
pTf:_EventSystem_Update_m1662072334
z2c:__ZN11TimeManager16HasFixedTimeStepEv
PPf:__ZN22UnityWebRequestManager10InitializeEv
Ntb:__ZNSt3__26__treeINS_12__value_typeIN4core12basic_stringIcNS2_20StringStorageDefaultIcEEEE4PPtrI6ObjectEEENS_19__map_value_compareIS6_SA_NS_4lessIS6_EELb1EEE13stl_allocatorISA_L18MemLabelIdentifier52ELi16EEE15__emplace_multiIJRNS_4pairIS6_S9_EEEEENS_15__tree_iteratorISA_PNS_11__tree_nodeISA_PvEEiEEDpOT_
Aqg:__ZL51FileMode_t1183438340_CustomAttributesCacheGeneratorP21CustomAttributesCache
CRb:__ZL26Transfer_SimpleNativeClassI17RemapPPtrTransfer8GradientLb1EEvRK29SerializationCommandArgumentsR31RuntimeSerializationCommandInfo
TSf:_RaycasterManager_RemoveRaycasters_m3057093063
JJc:__ZN12CachedWriter9InitWriteER15CacheWriterBase
R$c:__Z21UnsignedInt64ToStringy
yZh:_GetRaycastNonAllocCallback_BeginInvoke_m3984885848
kki:_InternalEnumerator_1_MoveNext_m4138204635_AdjustorThunk
vEl:_PatternCompiler_BeginLink_m1295557963
Uwg:__ZL46MD5_t3177620429_CustomAttributesCacheGeneratorP21CustomAttributesCache
AZb:__ZN18StreamedBinaryReadILb1EE8TransferI13dynamic_arrayIiLj0EEEEvRT_PKc17TransferMetaFlags
ZKe:__ZN5physx14PxsAABBManager15createAggregateEPvb
JHl:_Group_GetAnchorInfo_m3730312864
p1g:__ZL50Graphic_t1660335611_CustomAttributesCacheGeneratorP21CustomAttributesCache
$wi:_KeyCollection_System_Collections_Generic_ICollectionU3CTKeyU3E_Add_m454648927_gshared
Vek:_TimeSpan_op_LessThanOrEqual_m300470010
QTg:__ZL139AnimatorOverrideController_t3582062219_CustomAttributesCacheGenerator_AnimatorOverrideController_OnInvalidateOverrideController_m3380737075P21CustomAttributesCache
PDd:__ZL17DrawMeshParticlesILb0EL25ParticleSystemRenderSpace1EEvRK26ParticleSystemTempMeshDataRK22ParticleSystemTempDataRK23ParticleSystemParticlesRK31ParticleSystemParticlesTempDataRK26ParticleSystemRendererDataRK21ParticleSystemModulesPfPv
aQc:__Z66Register_UnityEngine_Transform_INTERNAL_CALL_InverseTransformPointv
Z8l:__ZNSt3__218uninitialized_fillIPNS_4pairIK10KeyWrapperIPK19Il2CppGenericMethodEPK26Il2CppGenericMethodIndicesEESB_EEvT_SD_RKT0_
Sya:__ZZN15DirectorManager15InitializeClassEvEN41FixedUpdateDirectorFixedUpdateRegistrator7ForwardEv
uoj:_MemoryStream_get_Position_m3733941202
DCc:__ZN12LineRenderer8TransferI14SafeBinaryReadEEvRT_
eb:invoke_iiiiifiiiif
ISl:_AudioClipPlayable_Equals_m3705880618
L3f:_HorizontalOrVerticalLayoutGroup_set_childControlWidth_m3261460516
jqj:_Slot_t3975888750_marshal_pinvoke
n5m:_glLinkProgram__wrapper
Tzb:__ZN18ScriptingArguments8AddInt64Ex
DDa:__ZN6prcoreL12RemapGenericI17TexFormatARGB888815TexFormatBGR888EEvPKNS_9InnerInfoE
GLb:__ZN26SinglePassStereoSupportExt19SaveStereoConstantsEv
sAa:__ZNSt3__26vectorIP10MemoryPool13stl_allocatorIS2_L18MemLabelIdentifier76ELi16EEE21__push_back_slow_pathIRKS2_EEvOT_
lgj:_TextInfo_get_ListSeparator_m1628160079
m_g:__ZL77ExecuteEvents_t3484638744_CustomAttributesCacheGenerator_U3CU3Ef__mgU24cache6P21CustomAttributesCache
Dtd:__Z20UpdateCustomCurveTplIL27ParticleSystemCurveEvalMode1EEvRK11MinMaxCurveR23ParticleSystemParticlesiijjRKN4math5_int4E
u1h:_Selectable_OnCanvasGroupChanged_m472903475
Obk:_EventWaitHandle_Reset_m3348053200
Mrd:__ZNK10SizeModule6UpdateER23ParticleSystemParticlesjj
Poe:__ZN5physx7NpShape8requiresERNS_23PxProcessPxBaseCallbackE
Nxm:__ZN6il2cpp6icalls8mscorlib6System13Globalization11CultureInfo35construct_internal_locale_from_nameEP17Il2CppCultureInfoP12Il2CppString
KTb:__ZL22Transfer_ManagedObjectI24GenerateTypeTreeTransferLb1EEvRK29SerializationCommandArgumentsR31RuntimeSerializationCommandInfo
iHk:__Z100RuntimeInvoker_Boolean_t97287965_RuntimeObject_Int32_t2950945753_RuntimeObject_UInt16U26_t2814738322PFvvEPK10MethodInfoPvPS4_
b4k:__Z56RuntimeInvoker_ILTokenInfo_t2325775114_Int32_t2950945753PFvvEPK10MethodInfoPvPS4_
rQh:_HMAC_get_BlockSizeValue_m455678067
Qkc:__ZN15RenderNodeQueueC2E10MemLabelId
Qbg:_ResourceEnumerator_FillCache_m1661715061
B1k:__Z60RuntimeInvoker_Int32_t2950945753_ResourceCacheItem_t51292791PFvvEPK10MethodInfoPvPS4_
Rtk:_ReadOnlyCollection_1_System_Collections_IList_IndexOf_m3664838805_gshared
xAf:__ZL17CleanupModule_TLSv
eyg:__ZL72SecuritySafeCriticalAttribute_t3505979402_CustomAttributesCacheGeneratorP21CustomAttributesCache
zk:_emscripten_set_main_loop_timing
Xnh:_Bounds_get_min_m3755135869
Fwj:_Convert_ToUInt16_m3523269149
Jnh:_Bounds_get_center_m1418449258
qym:__ZN30dense_hashtable_const_iteratorINSt3__24pairIK10KeyWrapperIP14Il2CppIUnknownEjEES5_N6il2cpp5utils11PointerHashIS3_EEN14dense_hash_mapIS5_jSB_NS5_14EqualsComparerINS0_8equal_toIS4_EEEENS0_9allocatorIS7_EEE9SelectKeyESG_SI_E30advance_past_empty_and_deletedEv
Pbc:__ZN14DataBufferGLES12RecordRenderEv
oUf:_ExecuteEvents_get_endDragHandler_m2879610446
qXe:__ZNK5physx20SingleAABBUpdateTask7getNameEv
Txc:__ZN14ImageReference10FlipImageYEv
Tci:_Interpreter_GetLastDefined_m4107643411
yod:__ZN21InheritVelocityModule8TransferI17RemapPPtrTransferEEvRT_
gnj:_FileStream_RefillBuffer_m4186945278
eTa:__ZN21ScalableBufferManager20GetHeightScaleFactorEv
gFc:__ZNSt3__26vectorIN9ShaderLab20SerializedSubProgram15VectorParameterENS_9allocatorIS3_EEE8__appendEj
h2:__ZN4FMOD3DSP9setBypassEb
tBc:__Z19NormalizeWheelInputf
o2f:_Graphic_DoMeshGeneration_m3548487693
sAc:__Z29StdTemplateConversionFunctionIsaEbPvR14SafeBinaryRead
XT:__ZN11KeyframeTplIfE8TransferI14SafeBinaryReadEEvRT_
pL:__ZNK4PPtrI13MonoBehaviourEcvPS0_Ev
IFl:_Repetition__ctor_m1672362629
wkd:__Z29Transfer_Blittable_ArrayFieldI8JSONReadhEvRT_R9ArrayInfoRK23StaticTransferFieldInfo
tTi:_SecurityFrame_ToString_m339310712_AdjustorThunk
P5f:_TypeBuilder_create_runtime_class_m2581270900
bJc:__ZN11MonoManager25GetImageFromAssemblyIndexEi
oii:_InternalEnumerator_1_get_Current_m3008260692_gshared
nte:__ZN5physx2Sc9ClothCore17addCollisionPlaneERKNS_21PxClothCollisionPlaneE
gVa:__ZN22RenderingCommandBuffer20CleanupCommandBufferEv
wuj:_Decimal_op_Implicit_m2299919277
kfd:__Z18Transfer_BlittableI9JSONWriteLb1EtEvRK29SerializationCommandArgumentsR31RuntimeSerializationCommandInfo
Pyd:__Z10StartDonutILN11ShapeModule14MultiModeValueE0EEvRS0_R23ParticleSystemParticlesRK19ParticleSystemStateRK27ParticleSystemEmissionStateRKN4math8float3x3ERKNSB_7affineXEjbj
_9g:_UnexceptionalStreamReader_ReadToEnd_m920589220
lyj:_DateTime_System_IConvertible_ToType_m1242864300
EVi:_String_IndexOf_m1298810678
Uk:___syscall85
_Nl:_FlashFade_Flash_m2804174269
kEf:__ZN2UI14CanvasRenderer18UpdateTRSHierarchyEb
y8e:__ZNK5physx13PxHeightField8isKindOfEPKc
uel:_Mesh_GetAllocArrayFromChannel_TisVector3_t3722313464_m2332439905_gshared
Vkc:__ZNSt3__26__sortIRPFbP10GUIElementS2_EPS2_EEvT0_S7_T_
xih:_ConstructorBuilder_GetILGenerator_m1750792206
SWi:_EncoderFallback_get_ReplacementFallback_m818398284
zFm:__ZN6il2cpp2os6Thread19DetachCurrentThreadEv
KTf:_EventTrigger_OnBeginDrag_m4203438710
I5l:__ZN6il2cpp2vmL21SetupInterfacesLockedEP11Il2CppClassRKNS_2os12FastAutoLockE
kMb:__ZN11MonoManager23VirtualRedirectTransferER24GenerateTypeTreeTransfer
b6e:__ZNK5physx2Sc18ParticleSystemCore16getInternalFlagsEv
Jbl:_Dictionary_2_Do_CopyTo_TisRuntimeObject_TisRuntimeObject_m2344529027_gshared
rM:__ZN23AnimationPlayableOutput17SetSourcePlayableEP8Playable
IGd:__ZL24BuildParticleLineSegmentILb1EEvjRPhRKN4math8float4x4EPK15LineBuilderDataRKfSA_11ColorRGBA32
NEm:__ZN6il2cpp2gc16GarbageCollector22MakeDescriptorForArrayEv
uek:_TimeSpan_CompareTo_m3633415627_AdjustorThunk
c5k:__Z37RuntimeInvoker_UILineInfo_t4195266810PFvvEPK10MethodInfoPvPS4_
Tph:_CullingGroup_Dispose_m782801025
XXj:_Dictionary_2_System_Collections_IDictionary_GetEnumerator_m529247385_gshared
au:__ZN11NavMeshData23VirtualRedirectTransferER14SafeBinaryRead
x_d:__ZN16ControllerFilter9preFilterERKN5physx12PxFilterDataEPKNS0_7PxShapeEPKNS0_12PxRigidActorERNS0_7PxFlagsINS0_9PxHitFlag4EnumEtEE
wha:__ZN11UnityEngine15CloudWebService14DataDispatcher15SetupWebRequestEv
zvl:_Collection_1_ConvertItem_m492501417_gshared
E0j:_EqualityComparer_1_get_Default_m1038871402_gshared
qKf:__ZN11UnityEngine15PlatformWrapper13GetShaderCapsEv
T6:__ZN10AudioMixer14OnExitPlayModeEv
mWe:__ZN16MBPOS_TmpBuffers16allocateSleepingEjj
Jkh:_GenericTypeParameterBuilder_IsDefined_m98179866
WSj:_KeyPairPersistence_get_MachinePath_m3812267291
Erj:_Stack_Peek_m2216191248
_xj:_DateTime_System_IConvertible_ToDecimal_m1044850612_AdjustorThunk
cUc:__ZN21FixedBehaviourManager6UpdateEv
sPc:__ZN9Transform9SetParentEPS_NS_15SetParentOptionE
gpd:__ZN15CollisionModule8TransferI18StreamedBinaryReadILb0EEEEvRT_
sXa:__ZN19ShaderPropertySheet8SetFloatEN9ShaderLab16FastPropertyNameEfNS_8SetFlagsE
e3l:_Physics_Raycast_m952690504
Bub:__ZN19RuntimeSceneManager24BeginIntegrateMainThreadEP10UnityScene
xce:__ZN5physx14NpArticulation26setExternalDriveIterationsEj
MQd:__ZN16RayRTreeCallbackILi0ELb0EED0Ev
jLi:_TlsServerCertificate_ProcessAsSsl3_m1306583193
K$e:__ZN5physx20PxsParticleSystemSim23scheduleCollisionUpdateERNS_10PxBaseTaskE
xGm:__ZNSt3__2plIcNS_11char_traitsIcEENS_9allocatorIcEEEENS_12basic_stringIT_T0_T1_EERKS9_S6_
Y8g:_StringReader_CheckObjectDisposedException_m3796163530
Rhk:_UInt32_System_IConvertible_ToInt16_m1659441601
rFc:__ZN9ShaderLab20SerializedSubProgramaSERKS0_
bXm:_roundf
d2m:_emscripten_glDeleteFramebuffers__wrapper
h5i:_Byte_System_IConvertible_ToSingle_m324484566_AdjustorThunk
H_k:__Z42RuntimeInvoker_RequirementType_t3584265503PFvvEPK10MethodInfoPvPS4_
usj:_Decimal_op_Explicit_m2848387298
s3j:_KeyValuePair_2_ToString_m1238786018_gshared
e1d:__ZN5physx15PxBoxControllerD0Ev
NF:__ZN8Animator15SetPrepareStageEv
VNm:__ZN6il2cpp6icalls8mscorlib6System4Text8Encoding16InternalCodePageEPi
N$:__ZN8AnimatorC2E10MemLabelId18ObjectCreationMode
J5l:__ZN6il2cpp2vmL24SetupTypeHierarchyLockedEP11Il2CppClassRKNS_2os12FastAutoLockE
_Ui:_String_Clone_m3573869765
DBc:__ZL11TextHandleriPK23EmscriptenKeyboardEventPv
mqc:__Z20CalculateLightMatrixRK15SharedLightDataP10Matrix4x4f
Jhc:__ZNSt3__26vectorIP17FileSystemHandlerNS_9allocatorIS2_EEE21__push_back_slow_pathIRKS2_EEvOT_
fnf:_destroy_face
FGh:_Vector3__ctor_m1719387948
j1m:_glBlendEquationSeparate__wrapper
cLf:__ZNSt3__26vectorIPN11UnityEngine15CloudWebService14CloudEventInfoE13stl_allocatorIS4_L18MemLabelIdentifier88ELi16EEE21__push_back_slow_pathIS4_EEvOT_
BJd:__ZN5physx19PxAllocatorCallbackD2Ev
dOm:__ZN6il2cpp6icalls8mscorlib6System8Security12Cryptography24RNGCryptoServiceProvider13RngInitializeEP11Il2CppArray
FFg:__ZL68UsedByNativeCodeAttribute_t1703770351_CustomAttributesCacheGeneratorP21CustomAttributesCache
yAd:__ZN21RotationBySpeedModuleD0Ev
$xe:__ZNK5physx15NpActorTemplateINS_16PxParticleSystemEE17getDominanceGroupEv
g9:__ZN20SoundChannelInstance7setMuteEb
qHk:__Z81RuntimeInvoker_Void_t1185182177_RuntimeObject_Int32_t2950945753_Int32_t2950945753PFvvEPK10MethodInfoPvPS4_
j1a:__ZN4PPtrI5LightE8TransferI19StreamedBinaryWriteILb0EEEEvRT_
K$d:__ZN5physx3Cct26CharacterControllerManager21createObstacleContextEv
nyj:_DateTimeUtils_ToString_m1782212840
sMj:_Array_InternalArray__ICollection_Add_TisVector2_t2156229523_m4029235359_gshared
rhl:_List_1__cctor_m972674764_gshared
ifh:_NumberFormatter_NumberToString_m3906556024
BYb:__Z19TransferField_ArrayI18StreamedBinaryReadILb1EE27Converter_SimpleNativeClassI17AnimationCurveTplIfEEEvRK23StaticTransferFieldInfoR31RuntimeSerializationCommandInfoRT0_
apj:_NullStream_Flush_m3382897993
xFd:__Z19UpdateSingleRow2TplIL27ParticleSystemCurveEvalMode1ELS0_1EEvfRK11MinMaxCurveS3_RK23ParticleSystemParticlesPfbiii
fcc:__ZN18GfxFramebufferGLES22MakeCurrentFramebufferENS_7BuiltinE
sJm:__ZN6il2cpp2vm12MarshalAlloc4FreeEPv
MEe:__ZN5physx6shdfnd5ArrayIPNS_2Sc19ShapeInstancePairLLENS0_19ReflectionAllocatorIS4_EEE15growAndPushBackERKS4_
g$a:__ZN12CachedReader4ReadEPvj
xVe:__ZN5physx21MBPPostUpdateWorkTaskD0Ev
lbg:_TypeFilter_EndInvoke_m998903841
Xof:_cf2_blues_init
Lge:__ZN5physx2Sc8BodyCore24clearSpatialAccelerationEbb
lil:_List_1__ctor_m183697595_gshared
dYj:_KeyValuePair_2__ctor_m1794021352_gshared
XKg:__ZL63UpdateNetworkManager_t3986463995_CustomAttributesCacheGeneratorP21CustomAttributesCache
bSl:_Toggle_OnPointerClick_m3526893169
zpc:__Z24CalculateLightShadowFadeRK6CamerafffR8Vector4f
bra:__ZN19RuntimeSceneManagerD2Ev
fxh:_PlayerConnectionInternal__ctor_m2406218802
Ccj:_CCGregorianCalendar_GetMonth_m1547203696
c5j:_Enumerator_Dispose_m786980821_AdjustorThunk
Mia:__ZN11UnityEngine15CloudWebService25WebRequestDownloadHandler17OnCompleteContentEv
lab:__ZN6prcore17GetIntegerBlitterE13TextureFormatS0_N14ImageReference8BlitModeE
fMm:_GC_print_block_descr
FEe:__ZN5physx10PxsContext20createContactManagerERKNS_24PxvManagerDescRigidRigidEPNS_18PxsMaterialManagerE
jrl:_Collection_1_IndexOf_m934463944_gshared
ZGa:__ZL51__ManagedRegistrationHelperFunction_ResourceRequestPv
SCe:__ZN5physx2Cm12DelegateTaskINS_7NpSceneEXadL_ZNS2_12executeSolveEPNS_10PxBaseTaskEEEED0Ev
KPd:__ZN5physx2GuL18gPCMHullPrefetchCBEjPKNS_6PxVec3E
G6d:__ZN5physx2Sc5Scene31removeActiveBreakableConstraintEPNS0_13ConstraintSimE
sqg:__ZL51Directory_t828876208_CustomAttributesCacheGeneratorP21CustomAttributesCache
a3i:_SimpleEnumerator_Reset_m2182001888
L8g:__ZL73LightningAttack_t2037095336_CustomAttributesCacheGenerator__lightningBoltP21CustomAttributesCache
U0k:__Z86RuntimeInvoker_Int32_t2950945753_Vector2_t2156229523_Vector2_t2156229523_RuntimeObjectPFvvEPK10MethodInfoPvPS4_
v5c:__ZN9BlobWrite14ReduceCopyImplERK14ReduceCopyDataj
eLj:_Array_LastIndexOf_TisRuntimeObject_m1677937501_gshared
ada:__ZN11AudioSource18IsPlayingScriptingEv
o7b:__Z18IsCompressedFormat14GraphicsFormat
aJe:__ZN5physx6shdfnd5ArrayINS_12PxActorShapeENS0_19ReflectionAllocatorIS2_EEE15growAndPushBackERKS2_
nDb:__ZN25MultiBlocksMemoryFileData17AdjustBlocksCountEj
Oum:__ZNSt3__214__split_bufferIN6il2cpp2vm22EmbeddedResourceRecordERNS_9allocatorIS3_EEED2Ev
mlf:__ZN13TextRendering4Font8TransferI24GenerateTypeTreeTransferEEvRT_
THb:__ZN9GfxDevice15EndProfileEventEPN9profiling6MarkerE
Xv:__ZNSt3__26vectorINS_4pairINS1_IiiEEjEE13stl_allocatorIS3_L18MemLabelIdentifier77ELi16EEE6insertENS_11__wrap_iterIPKS3_EEOS3_
SLc:__Z27CullingGroup_CUSTOM_DisposeP12Il2CppObject
KEd:__Z18UpdateSingleRowTplIL27ParticleSystemCurveEvalMode0EEvfRK11MinMaxCurveS3_RK23ParticleSystemParticlesPfbiii
Qv:__ZN20NavMeshBuildSettingsC2Ev
tsi:_Comparer_1__ctor_m319670016_gshared
tle:__ZN5physx2Sc14ConstraintCore8setFlagsENS_7PxFlagsINS_16PxConstraintFlag4EnumEtEE
an:_glStencilMask
ZFm:__ZN6il2cpp2os10ThreadImpl16GetCurrentThreadEv
u7e:__ZNK5physx2Sc15ClothFabricCore20getNbParticleIndicesEv
vBc:__ZN15GUIEventManager10QueueEventERK10InputEvent
Jbg:_ResourceReader_ReadNonPredefinedValue_m2638853518
xsl:_Collection_1_Clear_m1300437781_gshared
Bdm:_AnalyticsEvent_OnValidationFailed_m2609604624
qVg:__ZL62EventType_t3528516131_CustomAttributesCacheGenerator_mouseMoveP21CustomAttributesCache
zcg:_DecimalConstantAttribute__ctor_m3583301917
PU:__ZN24GenerateTypeTreeTransfer21TransferSTLStyleArrayINSt3__26vectorI24CompressedAnimationCurve13stl_allocatorIS3_L18MemLabelIdentifier26ELi16EEEEEEvRT_17TransferMetaFlags
bvl:_Collection_1_System_Collections_ICollection_get_IsSynchronized_m1640823718_gshared
HLm:_GC_push_conditional_with_exclusions
JI:__ZN21AnimationPosePlayableD0Ev
vPe:__ZN5physx2Sq8AABBTree11shiftOriginERKNS_6PxVec3E
oAg:__ZL80Convert_t2465617642_CustomAttributesCacheGenerator_Convert_ToDecimal_m2858622624P21CustomAttributesCache
DDk:__ZN30GenericInterfaceActionInvoker4IP12Il2CppObjectS1_S1_S1_E6InvokeEPK10MethodInfoS1_S1_S1_S1_S1_
yJl:_UriParser_InitializeAndValidate_m2008117311
lLm:_GC_make_disappearing_links_disappear
gUm:_strrchr
lqg:__ZL58UnicodeCategory_t3356078642_CustomAttributesCacheGeneratorP21CustomAttributesCache
ezk:_Func_3__ctor_m1375075958_gshared
Y5d:__ZN5physx2Sc7BodySim6wakeUpEv
ZVj:_Dictionary_2_System_Collections_ICollection_get_SyncRoot_m2069913662_gshared
xXf:_UIBehaviour_IsDestroyed_m3033055982
pri:__ZN21InterfaceFuncInvoker1Ii6Guid_tE6InvokeEjP11Il2CppClassP12Il2CppObjectS0_
vEe:__ZN5physx6shdfnd8PoolBaseINS_2Gu30LargePersistentContactManifoldENS0_19ReflectionAllocatorIS3_EEE17releaseEmptySlabsEv
t6d:__ZN5physx2Sc21ConstraintInteraction7destroyEv
MFh:_Enumerator_Reset_m39541243
jTh:_InputField_get_readOnly_m3111985574
USe:__ZN5physx13PxsSolverCoreD2Ev
y1a:__ZN14RenderSettings27UpdateIndirectSpecularColorEv
dMg:__ZL59RectOffset_t1369453676_CustomAttributesCacheGenerator_m_PtrP21CustomAttributesCache
ruh:_Logger_get_logHandler_m1335645353
frb:__ZN14PlayerSettings8TransferI18StreamedBinaryReadILb0EEEEvRT_
Zfm:__ZN6il2cpp6icalls8mscorlib6System8MonoType16GetMethodsByNameEP20Il2CppReflectionTypeP12Il2CppStringibS5_
cob:__Z11SkinMeshCPUR12SkinMeshInfo
uvg:__ZL73ObjRef_t2141158884_CustomAttributesCacheGenerator_U3CU3Ef__switchU24map26P21CustomAttributesCache
k$g:__ZL102PointerEventData_t3807901092_CustomAttributesCacheGenerator_PointerEventData_set_pointerId_m1888344330P21CustomAttributesCache
EUg:__ZL88AudioClip_t3680889665_CustomAttributesCacheGenerator_AudioClip_get_ambisonic_m3815052287P21CustomAttributesCache
$Fe:__ZNK5physx7NpScene16getNbConstraintsEv
FWh:_U3CDelayedSetDirtyU3Ec__Iterator0__ctor_m3936335621
Yre:__ZN5physx7NpCloth14setWakeCounterEf
cgb:__ZN4PPtrI10GameObjectE8TransferI14SafeBinaryReadEEvRT_
JSl:_AudioClipPlayable_Equals_m3705880618_AdjustorThunk
wOg:__ZL106PlayableAsset_t3219022681_CustomAttributesCacheGenerator_PlayableAsset_Internal_CreatePlayable_m2550417712P21CustomAttributesCache
PAg:__ZL78Convert_t2465617642_CustomAttributesCacheGenerator_Convert_ToSByte_m2486156346P21CustomAttributesCache
Cwl:_RijndaelTransform__cctor_m2439033240
$hf:__ZN5physx7profile11EventBufferINS_24PxDefaultContextProviderENS_6shdfnd6MutexTINS0_26WrapperReflectionAllocatorIhEEEENS0_14ScopedLockImplIS7_EENS_24PxProfileNullEventFilterEE17doAddProfileEventINS0_10StartEventEEEvtRKT_
KC:__ZN13dynamic_arrayIPN11UnityEngine9Animation23CachedComponentBindingsELj0EE18resize_initializedEjRKS3_12ResizePolicy
xng:__ZL175U3CGetEnumeratorU3Ec__Iterator0_t1202911786_CustomAttributesCacheGenerator_U3CGetEnumeratorU3Ec__Iterator0_System_Collections_Generic_IEnumeratorU3CTU3E_get_Current_m322251035P21CustomAttributesCache
Rxf:_ps_hints_t2mask
Oxk:_Comparison_1__ctor_m3138326461_gshared
BGj:_Array_InternalArray__ICollection_Remove_TisMonoResource_t4103430009_m238733686_gshared
p2h:_Slider_Set_m1476104429
sbg:__ZN28GenericInterfaceFuncInvoker1IP10Assembly_tP28ResolveEventArgs_t1779456501E6InvokeEPK10MethodInfoP12Il2CppObjectS3_
a4f:_Image_set_fillClockwise_m2210525152
mnb:__ZN10BlendShape8TransferI19StreamedBinaryWriteILb0EEEEvRT_
FDg:__ZL72PKCS12_t4101533061_CustomAttributesCacheGenerator_U3CU3Ef__switchU24mapCP21CustomAttributesCache
Iif:__ZN14PhysicsManagerC2E10MemLabelId18ObjectCreationMode
J8e:__ZNK5physx2Gu11HeightField17getReferenceCountEv
kba:__Z32TransferEnumWithNameForceIntSizeI14SafeBinaryReadN10SampleClip8LoadTypeEEvRT_RT0_PKc17TransferMetaFlags
Axh:_PlayerConnection_DisconnectedCallback_m1697017309
Wpb:__Z19GetTimeSinceStartupv
A4f:_Image_AddQuad_m2161647989
z5a:__ZN7Texture23VirtualRedirectTransferER17RemapPPtrTransfer
FSf:_BaseInputModule_DeactivateModule_m856719157
PFm:__ZN6il2cpp2os10ThreadImpl11SetPriorityENS0_14ThreadPriorityE
B6j:_Enumerator_System_Collections_IEnumerator_Reset_m2953002685_gshared
hJk:__Z50RuntimeInvoker_Int64_t3736567304_Int32_t2950945753PFvvEPK10MethodInfoPvPS4_
lxf:_TT_Load_Composite_Glyph
Lob:__Z33MultiplyMatrixArrayWithBase4x4REFPK10Matrix4x4fS1_S1_PS_j
jKf:__ZN11UnityEngine15PlatformWrapper18GetWin8ScalingModeEv
ntj:_DateTime_FromTicks_m4059645178
WHb:__ZN9GfxDevice16DeleteTimerQueryEP13GfxTimerQuery
wol:_List_1_Insert_m1695211546_gshared
ZC:__ZL51__ManagedRegistrationHelperFunction_ScaleConstraintPv
fYk:__Z49RuntimeInvoker_Void_t1185182177_Color_t2555686324PFvvEPK10MethodInfoPvPS4_
w6a:__ZN9ShaderLab11shaderprops9GetTexEnvEPK19ShaderPropertySheetS3_NS_16FastPropertyNameE16TextureDimensionb
dX:__ZN15SerializeTraitsI13dynamic_arrayI4PPtrI13MonoBehaviourELj0EEE19ResizeSTLStyleArrayERS4_i
ht:__ZN15HeightMeshQueryD0Ev
Lnc:__ZN29RenderNodeQueuePrepareContextC2Ev
grm:_il2cpp_gc_disable
AGc:__ZN9ShaderLab20SerializedSubProgram16TextureParameter8TransferI24GenerateTypeTreeTransferEEvRT_
zMa:__ZN9Scripting5Unity11Collections8LowLevel6Unsafe29NativeSetThreadIndexAttribute12CleanupProxyEv
ZPh:_DSASignatureDeformatter_SetKey_m2999549245
DOm:__ZN6il2cpp2os11MutexHandle4WaitEb
TFb:__ZN9GfxDevice19SaveStereoConstantsEv
COm:__ZN6il2cpp2os11MutexHandle4WaitEj
bMc:__ZL34GetComponentsImplementationRecurseILb1ELi1ELi1EEbR10GameObjectbRK17CompareParametersRK39GetComponentsImplementation_ReturnValue
rKk:__Z114RuntimeInvoker_Boolean_t97287965_RuntimeObject_RuntimeObject_Int32_t2950945753_Int32_t2950945753_Int32_t2950945753PFvvEPK10MethodInfoPvPS4_
Thh:_AssemblyBuilder_GetTypes_m3415680380
RCa:__ZN6prcoreL17RemapGenericFloatI15TexFormatRGHalf18TexFormatARGBFloatEEvPKNS_9InnerInfoE
GPl:_AnalyticsEventParam_get_groupID_m569309506
oCj:_StackFrame_GetMethod_m1395840764
A4a:__ZNK13RenderTexture13GetDataHeightEv
h4b:__Z18SimulateMouseInputi
Hjc:__ZN13RenderManager23AddRemoveCamerasDelayedEv
k1:__ZN23PreloadManagerOperation11GetPriorityEv
XVh:_LayoutElement_OnEnable_m1760066426
aHf:__ZN11UnityEngine9Analytics15AnalyticsConfigC2Ev
Kfh:_OverflowException__ctor_m4029085969
K3i:_BitConverter__cctor_m3841343255
bsj:_Decimal_Compare_m3062820418
fei:_IntervalCollection_GetMetaCollection_m4029522214
Ldf:__ZNK5Unity5Joint16GetCurrentForcesER8Vector3fS2_
Hr:__ZNK22NavMeshProjectSettings11GetAreaCostEj
M_l:_TextGenerator_get_characterCount_m864136654
nCc:__ZN12LineRenderer13AwakeFromLoadE17AwakeFromLoadMode
fnh:_AsyncOperation_t1445031843_marshal_pinvoke_cleanup
zw:__ZNSt3__26vectorIN22NavMeshProjectSettings15NavMeshAreaDataENS_9allocatorIS2_EEE21__push_back_slow_pathIRKS2_EEvOT_
zwc:__ZN13RenderTexture8SetWidthEi
gSc:__ZNK28RectTransformPropertyBinding12SetPPtrValueERKN11UnityEngine9Animation10BoundCurveEi
B6b:__ZN18FrameTimingManager18GetVSyncsPerSecondEv
iAd:__ZN11ColorModuleD0Ev
ydl:_Array_InternalArray__get_Item_TisSingle_t1397266774_m1672589487_gshared
nlb:__ZN10MeshFilterD0Ev
zwa:__ZN22BuiltinResourceManager16StaticInitializeEPv
Jhi:_InternalEnumerator_1__ctor_m1341209356_AdjustorThunk
Ctl:_Collection_1_System_Collections_ICollection_CopyTo_m1516601228_gshared
jxa:__ZN23DefaultMeshVertexFormatC2E18VertexChannelsInfo
Cul:_Collection_1_CopyTo_m4278237485_gshared
yhj:_Int16_System_IConvertible_ToDouble_m1661805412
Okk:_Collection_1_Add_m3860636938_gshared
xWl:__ZL24UnresolvedVirtualCall_94P12Il2CppObjectS0_S0_iPK10MethodInfo
Yne:__ZNK5physx9NpFactory11getNbShapesEv
QUl:__ZL23UnresolvedVirtualCall_5P12Il2CppObjectsPK10MethodInfo
XQ:__ZN4PPtrI6AvatarE8TransferI19StreamedBinaryWriteILb0EEEEvRT_
A8j:_List_1_Insert_m4050947056_gshared
Hjd:__ZN8JSONRead21TransferSTLStyleArrayI13dynamic_arrayI5RectTIiELj0EEEEvRT_17TransferMetaFlags
Roa:__ZN9ShaderLab16FastPropertyName4InitEPKc
tli:_InternalEnumerator_1__ctor_m39232262_AdjustorThunk
jVk:__Z48RuntimeInvoker_OperatingSystemFamily_t1868066375PFvvEPK10MethodInfoPvPS4_
cX:__ZN14SafeBinaryRead21TransferSTLStyleArrayI13dynamic_arrayI4PPtrI13MonoBehaviourELj0EEEEvRT_17TransferMetaFlags
E5a:__ZN6ObjectC2E10MemLabelId18ObjectCreationMode
Wn:FUNCTION_TABLE_iiiii
zOg:__ZL56PlayableGraph_t3515989261_CustomAttributesCacheGeneratorP21CustomAttributesCache
dmi:_InternalEnumerator_1_get_Current_m3911557813_AdjustorThunk
VJf:__ZN11UnityEngine15PlatformWrapper19GetPhysicalMemoryMBEv
CI:__ZN17AnimationPlayable17GetAnimationClipsER13dynamic_arrayIP13AnimationClipLj0EE
cSj:_BitConverterLE_ToDouble_m1601000678
O5i:_Char_System_IConvertible_ToByte_m2347554595_AdjustorThunk
ilm:__ZNK15dense_hashtableINSt3__24pairIK10KeyWrapperINS1_IPK12PropertyInfoP11Il2CppClassEEEjEES9_17ReflectionMapHashIS8_EN14dense_hash_mapIS9_jSD_NS9_14EqualsComparerINS0_8equal_toIS8_EEEENS0_9allocatorISB_EEE9SelectKeyESI_SK_E12test_deletedERK30dense_hashtable_const_iteratorISB_S9_SD_SM_SI_SK_E
ULg:__ZL59TooltipAttribute_t3957072629_CustomAttributesCacheGeneratorP21CustomAttributesCache
wib:__ZN10VertexData8TransferI17RemapPPtrTransferEEvRT_
nFd:__Z20UpdateWholeSheet2TplIL27ParticleSystemCurveEvalMode0ELS0_2EEvfRK11MinMaxCurveS3_RK23ParticleSystemParticlesPf
E7l:__ZN15dense_hashtableINSt3__24pairIK10KeyWrapperIPK11Il2CppClassEPKcEES6_N6il2cpp5utils11PointerHashIS3_EEN14dense_hash_mapIS6_S9_SE_NS6_14EqualsComparerINS0_8equal_toIS5_EEEENS0_9allocatorISA_EEE9SelectKeyESJ_SL_E13set_empty_keyERKSA_
YId:__ZN9Scripting11UnityEngine14ContactPoint2D9InitProxyEv
YWi:_String_CreateString_m860434552
Y$e:__ZN5physx2Sc10ClothShape21updateBoundsInAABBMgrEv
uHb:__ZN9GfxDevice14InsertCPUFenceEv
btg:__ZL107CriticalFinalizerObject_t701527852_CustomAttributesCacheGenerator_CriticalFinalizerObject__ctor_m3245424448P21CustomAttributesCache
Vpi:_InternalEnumerator_1_System_Collections_IEnumerator_get_Current_m2649471526_AdjustorThunk
gjj:_Int32_Equals_m2976157357_AdjustorThunk
iPc:__Z38Transform_CUSTOM_INTERNAL_get_rotationP12Il2CppObjectP11Quaternionf
c8g:__ZL68PlayerHealth_t2068385516_CustomAttributesCacheGenerator__damageImageP21CustomAttributesCache
xtm:__ZNK15dense_hashtableINSt3__24pairIK10KeyWrapperIP11Il2CppClassES4_EES5_N6il2cpp8metadata16SZArrayClassHashEN14dense_hash_mapIS5_S4_SA_NS5_14EqualsComparerINS9_19SZArrayClassCompareEEENS0_9allocatorIS7_EEE9SelectKeyESE_SG_E3endEv
$jg:_SoapAttribute_get_XmlNamespace_m859394681
hkm:__ZNK15dense_hashtableINSt3__24pairIK10KeyWrapperINS1_IPK10MethodInfoP11Il2CppClassEEEjEES9_17ReflectionMapHashIS8_EN14dense_hash_mapIS9_jSD_NS9_14EqualsComparerINS0_8equal_toIS8_EEEENS0_9allocatorISB_EEE9SelectKeyESI_SK_E5beginEv
_Cl:_X509ExtensionCollection_System_Collections_IEnumerable_GetEnumerator_m1475785462
Aac:__ZN7ApiGLES19UploadBufferSubDataEjN2gl12BufferTargetEllPKv
n1l:_SkeletonBone_t4134054672_marshal_pinvoke_cleanup
cQe:__ZN5physx2Sc5Scene17createClothSolverEv
LBa:__ZNSt3__216__rotate_forwardINS_11__wrap_iterIPN4core12basic_stringIcNS2_20StringStorageDefaultIcEEEEEEEET_S9_S9_S9_
pGh:_Vector2_GetHashCode_m3916089713
hxa:__ZdaPv
cwe:__ZNK5physx15PxsParticleData16getMaxParticlesVEv
o$i:_SmallXmlParserException__ctor_m1976648878
wX:__ZN7mecanim12statemachine20StateMachineConstant8TransferI14SafeBinaryReadEEvRT_
edh:_MulticastDelegate_Equals_m2502840627
bQi:_SymmetricAlgorithm_set_KeySize_m3805756466
phf:__ZThn116_N5physx7profile8ZoneImplINS_28PxProfileNameProviderForwardEE12removeClientERNS_19PxProfileZoneClientE
A6g:__ZL70ValueProperty_t1868393739_CustomAttributesCacheGenerator_m_CustomValueP21CustomAttributesCache
$Cf:__Z44Register_UnityEngine_Canvas_get_pixelPerfectv
BVe:__ZN15MBP_PairManager17removeMarkedPairsEPK10MBP_ObjectPN5physx16PxsBroadPhaseMBPERK8BitArrayS8_
l5i:_Byte_System_IConvertible_ToUInt32_m1049546902_AdjustorThunk
nTk:__Z53RuntimeInvoker_Double_t594665363_Interval_t1802865632PFvvEPK10MethodInfoPvPS4_
w6b:__Z21InitializeBatchedJobsv
u$l:_CanvasGroup_get_blocksRaycasts_m1805542303
LOi:_SHA1Internal_ProcessBlock_m1991889327
COb:__Z19TransferField_ArrayI14SafeBinaryRead27Converter_SimpleNativeClassI8GUIStyleEEvRK23StaticTransferFieldInfoR31RuntimeSerializationCommandInfoRT0_
x0b:__ZN9TextAsset23VirtualRedirectTransferER19StreamedBinaryWriteILb0EE
_xm:__ZN15dense_hashtableINSt3__24pairIK10KeyWrapperIP14Il2CppIUnknownEjEES5_N6il2cpp5utils11PointerHashIS3_EEN14dense_hash_mapIS5_jSB_NS5_14EqualsComparerINS0_8equal_toIS4_EEEENS0_9allocatorIS7_EEE9SelectKeyESG_SI_ED2Ev
kal:_Array_Sort_TisRuntimeObject_TisRuntimeObject_m1685639929_gshared
Rxd:__Z25UpdateOrbitalAndRadialTplIL27ParticleSystemCurveEvalMode0ELS0_1ELS0_3EEvRK11MinMaxCurveS3_S3_S3_S3_S3_S3_R23ParticleSystemParticlesjjRKN4math8float3x3ERKNS6_7affineXERKNS6_7_float4E
Cdk:_TimerCallback_Invoke_m1938221087
T0a:__ZN14RenderSettings5ResetEv
xJc:__ZN6Sprite9BindAtlasERK4PPtrI11SpriteAtlasE
eed:__ZN5Unity9rapidjson12GenericValueINS0_4UTF8IcEE13JSONAllocatorE10FindMemberIS4_EENS0_21GenericMemberIteratorILb0ES3_S4_EERKNS1_IS3_T_EE
zne:__ZN5physx9NpPhysics33unregisterDeletionListenerObjectsERNS_18PxDeletionListenerEPKPKNS_6PxBaseEj
$li:_InternalEnumerator_1_System_Collections_IEnumerator_get_Current_m3892960115_AdjustorThunk
TIc:__ZN9ShaderLabL18AddPropertyToArrayERK19ShaderPropertySheetR13dynamic_arrayIiLj0EERKNS_8FloatValE
Wte:__ZNK5physx2Sc9ClothCore22getAngularInertiaScaleEv
CMl:_SymmetricTransform_Finalize_m4129642865
E7i:_ArrayList_Clone_m2682741233
H8f:_MonoEventInfo_t346866618_marshal_pinvoke_cleanup
DQh:_HMAC_HashCore_m3684104066
iNf:__Z13RegisterClassI20UnityConnectSettingsEvPKc
dyk:__ZN28GenericInterfaceFuncInvoker2Ii20UIVertex_t4057497605S0_E6InvokeEPK10MethodInfoP12Il2CppObjectS0_S0_
vdd:__ZN5Unity9rapidjson13GenericReaderINS0_4UTF8IcEES3_13JSONAllocatorE11ParseNumberILj1ENS0_25GenericInsituStringStreamIS3_EENS0_15GenericDocumentIS3_S4_S4_EEEEvRT0_RT1_
pZ:__ZN19StreamedBinaryWriteILb0EE21TransferSTLStyleArrayI22OffsetPtrArrayTransferIN7mecanim8skeleton19SkeletonMaskElementEEEEvRT_17TransferMetaFlags
ife:__ZN5physx20NpRigidActorTemplateINS_18PxArticulationLinkEE12setActorFlagENS_11PxActorFlag4EnumEb
pJf:__ZN22BaseUnityConnectClient20StartEventDispatcherEv
Cmg:__ZL88RuntimeArray_CustomAttributesCacheGenerator_Array_CreateInstance_m1027597705____lengths1P21CustomAttributesCache
cwl:_Collection_1_RemoveItem_m2911050674_gshared
Z7g:__ZL71PlayerAttack_t171730867_CustomAttributesCacheGenerator__lightningAttackP21CustomAttributesCache
JFm:__ZN6il2cpp2os10ThreadImplD2Ev
ILg:__ZL56ResetInputAxis_t866062302_CustomAttributesCacheGeneratorP21CustomAttributesCache
aHd:__ZN14ParticleSystem18MarkAllSubEmittersEPS_
ted:__ZN8Gradient8TransferI9JSONWriteEEvRT_
wgg:_ContextCallbackObject__ctor_m3499682402
cUl:_AudioSource_set_clip_m31653938
jXg:__ZL81TextEditor_t2759855366_CustomAttributesCacheGenerator_TextEditor__ctor_m242049450P21CustomAttributesCache
gsj:_Convert_ToBoolean_m2833621053
DPa:__ZNK12TLSAllocatorI14StackAllocatorE22GetAllocatedMemorySizeEv
EW:__ZN7mecanim6memory16ChainedAllocator8AllocateEjj
vEg:__ZL62WebHeaderCollection_t1942268960_CustomAttributesCacheGeneratorP21CustomAttributesCache
o3c:__Z32GetSceneHierarchyPathDescriptivePK6Object
V$j:_EqualityComparer_1_System_Collections_IEqualityComparer_GetHashCode_m2138064395_gshared
naa:__ZNK7WeakPtrI20SoundChannelInstanceE10SharedData9GetRawPtrEv
jAb:__ZN12HandlerChain4NameEv
M_f:_FloatTween_t1274330004_marshal_pinvoke
uId:__ZN11UnityEngine9Analytics18RenderingInfoEventD0Ev
Lhj:_Int16_System_IConvertible_ToType_m3672347013_AdjustorThunk
rmj:_EndOfStreamException__ctor_m1590165188
nn:FUNCTION_TABLE_fiiiiiifiiiiiif
Sij:_Int32_System_IConvertible_ToType_m3009233912_AdjustorThunk
qij:_Int16_ToString_m2013897809
Q2e:__ZN5physx37setupFinalizeSolverConstraintsCoulombERNS_13PxcNpWorkUnitERKNS_2Gu13ContactBufferERKNS_27PxcCorrelationBufferCoulombERKNS_11PxTransformESB_bPhRKNS_13PxcSolverBodyESF_RKNS_17PxcSolverBodyDataESI_ffjffff
Lwd:__Z25UpdateOrbitalAndRadialTplIL27ParticleSystemCurveEvalMode2ELS0_1ELS0_3EEvRK11MinMaxCurveS3_S3_S3_S3_S3_S3_R23ParticleSystemParticlesjjRKN4math8float3x3ERKNS6_7affineXERKNS6_7_float4E
CEf:__Z44Register_UnityEngine_CanvasRenderer_get_cullv
K4l:__ZN15dense_hashtableINSt3__24pairIK10KeyWrapperIPK22Il2CppGenericParameterEP11Il2CppClassEES6_N6il2cpp5utils11PointerHashIS4_EEN14dense_hash_mapIS6_S9_SE_NS6_14EqualsComparerINS0_8equal_toIS5_EEEENS0_9allocatorISA_EEE9SelectKeyESJ_SL_ED2Ev
YAk:__ZN23GenericVirtFuncInvoker1Ib19Vector4_t3319028937E6InvokeEPK10MethodInfoP12Il2CppObjectS0_
$Si:_SecurityException_get_PermissionType_m2237538728
UAc:__Z29StdTemplateConversionFunctionIbbEbPvR14SafeBinaryRead
x8:__ZN10AudioMixer8TransferI19StreamedBinaryWriteILb0EEEEvRT_
xJf:__ZN11UnityEngine7Connect17XRDeviceInfoEvent12XRDeviceInfoD2Ev
FMb:__Z44InitializeTransferFunctionScriptingTraitsForI17RemapPPtrTransferEvR31TransferFunctionScriptingTraits
ZVh:_LayoutElement_OnDisable_m3869995817
dTc:__ZNSt3__26vectorI16MessageForwarder13stl_allocatorIS1_L18MemLabelIdentifier7ELi8EEE6resizeEj
pai:_X509Chain_SelectBestFromCollection_m1068759221
KPg:__ZL91MovedFromAttribute_t481952341_CustomAttributesCacheGenerator_U3CNamespaceU3Ek__BackingFieldP21CustomAttributesCache
LMl:_SymmetricTransform_TransformBlock_m851059707
ssd:__Z19UpdateProceduralTplIL27ParticleSystemCurveEvalMode4EEvRK20DualMinMaxPolyCurvesR23ParticleSystemParticlesPfRKN4math7_float4E
sok:_Collection_1_System_Collections_IList_get_IsReadOnly_m2978442176_gshared
Tpl:_Enumerator_System_Collections_IEnumerator_Reset_m2261065994_AdjustorThunk
f0h:_ScrollRect_get_verticalNormalizedPosition_m3693218937
CUe:__ZN5physx31ComputeCreatedDeletedPairsListsEPKjS1_jRPNS_17PxcBroadPhasePairERjS5_S4_S5_S5_RNS_14SapPairManagerE
Aub:__ZN18LoadSceneOperation21MustCompleteNextFrameEv
r2h:_Slider_UpdateDrag_m1102107039
K9f:_MonoMethodInfo_get_method_info_m88651774
Gca:__ZNK12AudioManager16GetAudioListenerEv
Cij:_Int32_System_IConvertible_ToDateTime_m1824716955
dWj:_Dictionary_2_System_Collections_Generic_ICollectionU3CSystem_Collections_Generic_KeyValuePairU3CTKeyU2CTValueU3EU3E_CopyTo_m331407443_gshared
sNh:_RuntimeTypeHandle__ctor_m3315980708_AdjustorThunk
A7g:__ZL69EnemyMovement_t2945001265_CustomAttributesCacheGenerator__updateDelayP21CustomAttributesCache
Jxg:__ZL69IIdentityPermissionFactory_t3268650966_CustomAttributesCacheGeneratorP21CustomAttributesCache
$_l:_Canvas_set_overrideSorting_m4088794420
cwc:__ZNSt3__26vectorI11CameraStackNS_9allocatorIS1_EEE8__appendEj
NZj:_DefaultComparer_Equals_m2585095694_gshared
DZe:__ZN5physx2Gu16pcmContactBoxBoxERKNS0_13GeometryUnionES3_RKNS_11PxTransformES6_RKfRNS0_5CacheERNS0_13ContactBufferE
quh:_Logger_set_filterLogType_m3622751173
OLh:__ZN25GenericVirtActionInvoker1I28StreamingContext_t3711869237E6InvokeEPK10MethodInfoP12Il2CppObjectS0_
bKk:__Z172RuntimeInvoker_Void_t1185182177_RuntimeObject_CodePointIndexerU26_t4059079874_ByteU2AU26_t57153304_ByteU2AU26_t57153304_CodePointIndexerU26_t4059079874_ByteU2AU26_t57153304PFvvEPK10MethodInfoPvPS4_
lH:__ZN7mecanim9animation12GetHumanPoseERKNS0_18ClipMuscleConstantEPKNS0_10ValueDeltaERNS_5human9HumanPoseE
zHf:__ZN11UnityEngine9Analytics15UserCustomEvent12CustomParams6InsertEPKcRNS1_11CustomValueE
fJ:__ZN22AnimationMixerPlayable17ProcessRootMotionEP35AnimationPlayableEvaluationConstantP32AnimationPlayableEvaluationInputP33AnimationPlayableEvaluationOutput
DXj:_Dictionary_2__ctor_m518943619_gshared
eWb:__Z29Transfer_Blittable_ArrayFieldI19StreamedBinaryWriteILb0EEjEvRT_R9ArrayInfoRK23StaticTransferFieldInfo
Iua:__Z13GetFileSystemv
gXc:__ZZL23RegisterLightPropertiesR22GenericPropertyBindingEN29Wrapper_LightColorTemperature13SetFloatValueEPvf
kUl:_AudioSourceExtension_ExtensionUpdate_m2790353999
dxa:__ZN13RuntimeStaticI15GUIEventManagerLb0EE16StaticInitializeEPv
Dwh:_MonoBehaviour_IsObjectMonoBehaviour_m2134950949
S_b:__ZL12InvokeMethodI18StreamedBinaryReadILb0EEEvRK29SerializationCommandArgumentsR31RuntimeSerializationCommandInfo
yOl:_U3CStartU3Ec__Iterator0_System_Collections_Generic_IEnumeratorU3CobjectU3E_get_Current_m487406959
hOd:__ZN15RaycastCallback14processTouchesEPKN5physx12PxRaycastHitEj
fHa:__ZL45__ManagedRegistrationHelperFunction_Texture2DPv
jkk:_Version_CompareTo_m3146217210
QKi:_TlsClientCertificate_FindParentCertificate_m3844441401
yIl:_Uri_ParseAsUnixAbsoluteFilePath_m1476768041
Ymd:__Z32TransferEnumWithNameForceIntSizeI14SafeBinaryReadN15CollisionModule4ModeEEvRT_RT0_PKc17TransferMetaFlags
CMj:_Array_InternalArray__ICollection_CopyTo_TisKeyValuePair_2_t71524366_m1056941380_gshared
V9e:__ZN5physx2Gu5RTree15exportExtraDataERNS_22PxSerializationContextE
pfk:_Type_get_IsClass_m589177581
qGg:__ZL62NativeTypeAttribute_t2250406315_CustomAttributesCacheGeneratorP21CustomAttributesCache
RYb:__Z29Transfer_Blittable_ArrayFieldI18StreamedBinaryReadILb1EE5RectTIfEEvRT_R9ArrayInfoRK23StaticTransferFieldInfo
SLb:__ZN19ShaderPropertySheet9SetMatrixEN9ShaderLab16FastPropertyNameERK10Matrix4x4fNS_8SetFlagsE
vcb:__Z29GetTextureSizeAllowedMultiple13TextureFormat
ZV:__ZN19StreamedBinaryWriteILb0EE8TransferINSt3__26vectorIN13AnimationClip12Vector3CurveE13stl_allocatorIS5_L18MemLabelIdentifier26ELi16EEEEEEvRT_PKc17TransferMetaFlags
lPe:__ZNK5physx2Sq10AABBPruner7overlapERKNS0_9ShapeDataERNS0_14PrunerCallbackE
aBj:_Decimal_Subtract_m835601464
G2l:_ListPool_1_Clear_m2587502754_gshared
Zhc:__ZZ23InitPlayerLoopCallbacksvEN52InitializationAsyncUploadTimeSlicedUpdateRegistrator7ForwardEv
xSk:__Z73RuntimeInvoker_Boolean_t97287965_RuntimeObject_IPv6AddressU26_t3285609463PFvvEPK10MethodInfoPvPS4_
Dbi:_X509ExtensionCollection_get_IsSynchronized_m2607599544
Vdk:_TimeSpan__ctor_m3689759052_AdjustorThunk
Zxd:__Z25UpdateOrbitalAndRadialTplIL27ParticleSystemCurveEvalMode0ELS0_2ELS0_4EEvRK11MinMaxCurveS3_S3_S3_S3_S3_S3_R23ParticleSystemParticlesjjRKN4math8float3x3ERKNS6_7affineXERKNS6_7_float4E
rqm:_il2cpp_array_element_size
wEe:__ZN5physx6shdfnd5ArrayIPvNS0_19ReflectionAllocatorINS_2Gu30LargePersistentContactManifoldEEEE4copyINS0_15InlineAllocatorILj256ES6_EEEEvRKNS1_IS2_T_EE
n6a:__ZN19ShaderPropertySheet22CopyVectorPropertyFromERKS_i
skg:__ZL62ComVisibleAttribute_t1362837655_CustomAttributesCacheGeneratorP21CustomAttributesCache
mjl:_List_1_System_Collections_IEnumerable_GetEnumerator_m1824431956_gshared
xQa:__ZNSt3__26__treeINS_12__value_typeIN4core12basic_stringIcNS2_20StringStorageDefaultIcEEEEjEENS_19__map_value_compareIS6_S7_NS_4lessIS6_EELb1EEE13stl_allocatorIS7_L18MemLabelIdentifier7ELi16EEE25__emplace_unique_key_argsIS6_JNS_4pairIS6_jEEEEENSH_INS_15__tree_iteratorIS7_PNS_11__tree_nodeIS7_PvEEiEEbEERKT_DpOT0_
WBh:_RectTransform_INTERNAL_set_sizeDelta_m188783163
vg:_glCheckFramebufferStatus
JNm:__ZN6il2cpp2os11EventHandle4WaitEv
Pei:_U3CGetEnumeratorU3Ec__Iterator0_System_Collections_Generic_IEnumeratorU3CTU3E_get_Current_m9057020_gshared
Oqa:__Z43scripting_class_get_method_from_name_filter17ScriptingClassPtrPKciN24ScriptingMethodFiltering18MethodSearchFilterEPK16ScriptingTypePtr
SEf:__Z13RegisterClassIN2UI6CanvasEEvPKc
ssa:__ZN4core8hash_setINS_4pairIKi17ThreadedAwakeDataLb0EEENS_9hash_pairINS_4hashIiEES2_S3_EENS_10equal_pairINSt3__28equal_toIiEES2_S3_EEE4growEv
yka:__ZN19CloudServiceHandler20StartEventDispatcherERKN11UnityEngine15CloudWebService18CloudServiceConfigERNS1_23WebRequestRestHeaderMapE
O2f:_GraphicRaycaster__ctor_m646559428
o5e:__ZN5physx2Cm12DelegateTaskINS_2Sc5SceneEXadL_ZNS3_19updateCCDSinglePassEPNS_10PxBaseTaskEEEE11runInternalEv
sHi:_CipherSuite_get_CipherAlgorithmType_m137858741
r1d:__ZN5physx6string9sprintf_sEPcjPKcz
Bjg:_ObjRefSurrogate__ctor_m455472707
Ncf:__ZThn8_N5physx19TriangleMeshBuilderD1Ev
z9i:_BitArrayEnumerator_get_Current_m4220391712
qgh:__Z37il2cpp_codegen_get_executing_assemblyPK10MethodInfo
X5h:_HttpWebRequest_GetServicePoint_m2640244283
yCh:_Transform_get_parent_m835071599
tsa:__ZN4core8hash_setINS_4pairIKi17ThreadedAwakeDataLb0EEENS_9hash_pairINS_4hashIiEES2_S3_EENS_10equal_pairINSt3__28equal_toIiEES2_S3_EEE4growEi
CRd:__ZN5physx2Gu16intersectRayAABBERKNS_6PxVec3ES3_S3_S3_RfS4_
izb:__ZN9Transform23VirtualRedirectTransferER17RemapPPtrTransfer
v6h:_IPAddress_get_ScopeId_m4237202723
tKa:__ZN9Scripting11UnityEngine12Experimental10PlayerLoop9PreUpdate12CleanupProxyEv
xG:__ZN21AnimationClipPlayable7SetTimeEd
MFl:_ExpressionCollection_get_Item_m3510736379
h1g:__ZL62FontData_t746620069_CustomAttributesCacheGenerator_m_AlignmentP21CustomAttributesCache
wWf:_StandaloneInputModule_get_inputActionsPerSecond_m3946624274
jbk:_UTF8Encoding_InternalGetCharCount_m82458470
DGh:_Vector2__cctor_m2108982652
Bxh:_U3CBlockUntilRecvMsgU3Ec__AnonStorey2_U3CU3Em__0_m2225790220
TWc:__ZZL23RegisterLightPropertiesR22GenericPropertyBindingEN22Wrapper_LightIntensity13GetFloatValueEPv
kIa:__ZN9Scripting11UnityEngine9Rendering20SphericalHarmonicsL29InitProxyEv
upi:_InternalEnumerator_1_MoveNext_m2734554195_AdjustorThunk
Y2e:__ZN5physx30setupFinalizeSolverConstraintsERNS_13PxcNpWorkUnitERKNS_2Gu13ContactBufferERKNS_20PxcCorrelationBufferERKNS_11PxTransformESB_bPhRKNS_13PxcSolverBodyESF_RKNS_17PxcSolverBodyDataESI_ffffff
bym:__ZN14dense_hash_mapI10KeyWrapperIP14Il2CppIUnknownEjN6il2cpp5utils11PointerHashIS1_EENS3_14EqualsComparerINSt3__28equal_toIS2_EEEENS9_9allocatorINS9_4pairIKS3_jEEEEE15set_deleted_keyERSF_
oW:__ZN7mecanim4hand8HandPose8TransferI19StreamedBinaryWriteILb0EEEEvRT_
oke:__ZN5physx7NpScene17releaseBatchQueryEPNS_12PxBatchQueryE
ism:__ZN6il2cpp2gc9AllocatorIP12Il2CppThreadE10deallocateEPvj
UBe:__ZN5physx20NpRigidActorTemplateINS_13PxRigidStaticEE11attachShapeERNS_7PxShapeE
Mmm:__ZN13Il2CppHashMapIPK14Il2CppAssemblyPK22Il2CppMonoAssemblyNameN6il2cpp5utils11PointerHashIS1_EENSt3__28equal_toIS2_EENSA_9allocatorINSA_4pairIK10KeyWrapperIS2_ES5_EEEEEC2EjRKS9_RKSC_
p2e:__ZN5physx26solveVBlockDefaultFrictionEPNS_13PxsSolverCoreEfjjPNS_13PxcSolverBodyEPNS_17PxcSolverBodyDataEjjPNS_25PxcArticulationSolverDescEjPNS_23PxcSolverConstraintDescEjS9_jRNS_6shdfnd5ArrayINS_24PxsConstraintBatchHeaderENSA_19ReflectionAllocatorISC_EEEESG_PNS_2Cm13SpatialVectorEPNS_25PxcThresholdStreamElementEjRj
K0i:_DelegatePInvokeWrapper_AppDomainInitializer_t682969308
EPg:__ZL141SupportedRenderingFeatures_t353898663_CustomAttributesCacheGenerator_SupportedRenderingFeatures_IsMixedLightingModeSupportedByRef_m2282093837P21CustomAttributesCache
Eie:__ZN5physx15NpActorTemplateINS_18PxArticulationLinkEE17resolveReferencesERNS_24PxDeserializationContextE
SS:__ZN14AnimationEvent8TransferI14SafeBinaryReadEEvRT_
jwd:__Z25UpdateOrbitalAndRadialTplIL27ParticleSystemCurveEvalMode1ELS0_1ELS0_1EEvRK11MinMaxCurveS3_S3_S3_S3_S3_S3_R23ParticleSystemParticlesjjRKN4math8float3x3ERKNS6_7affineXERKNS6_7_float4E
Nta:__ZN8Remapper6RemoveEi
IDk:_UnityEvent_1__ctor_m3777630589_gshared
RLe:__ZN5physx19NpRigidBodyTemplateINS_18PxArticulationLinkEE9visualizeERNS_2Cm12RenderOutputEPNS_7NpSceneE
xTe:__ZN5physx11writeBack1DERKNS_23PxcSolverConstraintDescERNS_16PxcSolverContextERNS_17PxcSolverBodyDataES6_
SYi:_Encoding_GetBytes_m3148649984
u4c:__ZN9Scripting27CreateArgumentNullExceptionEPKc
$nf:__ZL36CleanupTextRenderingScriptingClassesv
RQd:__ZThn4_N16RayRTreeCallbackILi0ELb0EED0Ev
wwc:__ZN15ReflectionProbe17UseRendererResultEP13ProbeRenderer
kv:__ZN16HeightMeshBVNode8TransferI18StreamedBinaryReadILb0EEEEvRT_
v7c:__Z34Mesh_CUSTOM_SetArrayForChannelImplP12Il2CppObject30InternalScriptingShaderChannel34InternalScriptingVertexChannelTypeiP11Il2CppArrayi
C$l:_CanvasRenderer_INTERNAL_CALL_EnableRectClipping_m3318097918
Hik:_UInt64_System_IConvertible_ToDecimal_m806594027_AdjustorThunk
LFa:__ZL58__ManagedRegistrationHelperFunction_MaterialEffectPlayablePv
wNf:__ZN11UnityEngine7Connect20RemoteConfigSettings18StaticCallOnUpdateEPS1_
nEk:_UnityEvent_1_GetDelegate_m274387680_gshared
Kui:_Enumerator_get_CurrentValue_m3103267885_gshared
ugl:_List_1__ctor_m3395838871_gshared
Ndj:_CultureInfo_get_Parent_m672689885
mZl:__ZL25UnresolvedVirtualCall_245P12Il2CppObjecti19Color32_t2600501292PK10MethodInfo
JKe:__ZNK5physx2Sc5Scene20getNbParticleSystemsEv
_0:__ZN9Scripting11UnityEngine18AssetBundleRequest9InitProxyEv
uAl:_PKCS12__ctor_m1854440921
L9k:_Array_Resize_TisCustomAttributeNamedArgument_t287865710_m885566878_gshared
Nva:__ZN17TransformInternal19FreeTransformThreadER18TransformHierarchyjj
pD:__ZN9Scripting11UnityEngine12SkeletonBone12CleanupProxyEv
zYj:_DefaultComparer__ctor_m2556554241_gshared
FE:__ZN11UnityEngine9Animation28GenericAnimationBindingCache25RegisterIAnimationBindingEPKN5Unity4TypeEiP17IAnimationBinding
rOe:__ZN5physx2Gu17GetGeomSweepFuncsEv
l8d:__ZN5physx6shdfnd8PoolBaseINS_15PxsArticulationENS0_16AlignedAllocatorILj64ENS0_9AllocatorEEEE17releaseEmptySlabsEv
lmj:_DirectoryInfo__ctor_m481305441
Ebi:_X509ExtensionCollection_get_SyncRoot_m2667861032
A5l:__ZN6il2cpp2vm5Class15GetElementClassEP11Il2CppClass
Qoa:__ZN10MemoryPoolC2E10MemLabelIdbPKciii
zve:__ZN5physx22NpParticleBaseTemplateINS_15PxParticleFluidENS_15NpParticleFluidEE23setParticleReadDataFlagENS_22PxParticleReadDataFlag4EnumEb
dlk:_Collection_1_SetItem_m941095285_gshared
DGf:__ZN14UnityAnalytics25UnregisterGlobalCallbacksEv
P$k:__Z80RuntimeInvoker_Boolean_t97287965_ColorBlockU26_t337120346_ColorBlock_t2139031574PFvvEPK10MethodInfoPvPS4_
Ouc:__Z40ProcessCameraIndexListIsNodeVisibleInOutRK22SceneCullingParametersPK9SceneNodePK4AABBR9IndexList
GLl:_GUIScrollGroup_SetHorizontal_m291416666
X_a:__ZN16GraphicsSettings8TransferI17RemapPPtrTransferEEvRT_
yFf:__ZN2UI6Canvas13UpdateBatchesEb
l8h:_X509BasicConstraintsExtension_Decode_m120598446
oM:__ZNK23AnimationPlayableOutput11DerivesFromE17ScriptingClassPtr
Tab:__ZN7Texture19SupportsAsyncUploadI19StreamedBinaryWriteILb0EEEEbRT_
fVk:__Z49RuntimeInvoker_Boolean_t97287965_Rect_t2360479859PFvvEPK10MethodInfoPvPS4_
W$m:_glGetShaderInfoLog__wrapper
TLh:_ObjectReader_ReadObjectGraph_m340866276
eSg:__ZL101Transform_t3600365921_CustomAttributesCacheGenerator_Transform_INTERNAL_get_localRotation_m1111330565P21CustomAttributesCache
cpe:__ZN5physx2Gu5Debug9visualizeERKNS_13PxBoxGeometryERNS_2Cm12RenderOutputERKNS5_8Matrix34ERKNS_9PxBounds3Eyfj
VPk:__Z51RuntimeInvoker_UInt32_t2560061978_Int16_t2552820387PFvvEPK10MethodInfoPvPS4_
M7b:__ZNK13GfxDeviceGLES12GetWireframeEv
TMl:_DelegatePInvokeWrapper_Action_t1264377477
Uw:__ZN15SerializeTraitsINSt3__26vectorIN22NavMeshProjectSettings15NavMeshAreaDataENS0_9allocatorIS3_EEEEE8TransferI24GenerateTypeTreeTransferEEvRS6_RT_
PKf:__ZN11UnityEngine7Connect13ConfigHandler12GetListenersERKN4core12basic_stringIcNS2_20StringStorageDefaultIcEEEE
TGb:__ZN9GfxDevice18AllocRenderSurfaceEb
H5i:_Char__cctor_m2787437263
c3e:__ZN5physx31setupFinalizeSolverConstraints4EPNS_21PxcSolverContact4DescERNS_18PxcNpThreadContextEPhffRKNS_6shdfnd3aos5Vec4VES9_S9_S9_
KGe:__ZN5physx7NpScene5flushEb
ZZc:__ZN10TagManager32GetSortingLayerUniqueIDFromValueEi
_If:__ZN11UnityEngine7Connect15DeviceInfoEvent7GFXInfoD2Ev
LXf:_AspectRatioFitter_get_rectTransform_m2996235303
Gqa:__ZL27CleanupCoreScriptingClassesv
qej:_DateTimeFormatInfo_get_IsReadOnly_m1173781646
Bfj:_NumberFormatInfo_get_PercentPositivePattern_m1800841633
CFd:__Z19UpdateSingleRow2TplIL27ParticleSystemCurveEvalMode2ELS0_1EEvfRK11MinMaxCurveS3_RK23ParticleSystemParticlesPfbiii
kFe:__ZThn8_N5physx2Sc24ElementInteractionMarker10onActivateEj
u$d:__ZThn8_N5physx3Cct17CapsuleController15getPxControllerEv
dti:_Comparer_1_System_Collections_IComparer_Compare_m1313384821_gshared
ZWh:_LayoutRebuilder_GetHashCode_m1943075341
blh:_GenericTypeParameterBuilder_MakeGenericType_m3048165991
wQc:__Z26AnimationCurve_CUSTOM_InitP12Il2CppObjectP11Il2CppArray
K3m:_glUniform1uiv__wrapper
xmm:__ZN6il2cpp2vm10Reflection7IsEventEP12Il2CppObject
YQm:__ZNSt3__26__treeINS_12__value_typeIPFvvEPK10MethodInfoEENS_19__map_value_compareIS3_S7_NS_4lessIS3_EELb1EEENS_9allocatorIS7_EEE16__insert_node_atEPNS_16__tree_node_baseIPvEERSI_SI_
Ota:__ZN17PersistentManager26GetStreamNameSpaceInternalEi
Y9:__ZN4FMOD6System11createSoundEPKcjP22FMOD_CREATESOUNDEXINFOPPNS_5SoundE
Mo:FUNCTION_TABLE_iiifiiii
ypi:_InternalEnumerator_1_System_Collections_IEnumerator_Reset_m1451164462_AdjustorThunk
Qjf:__ZN13SpeedTreeWind20AdvanceWithoutUpdateEd
E8g:__ZL171U3CLoadAsynchronouslyU3Ec__Iterator0_t2398908524_CustomAttributesCacheGenerator_U3CLoadAsynchronouslyU3Ec__Iterator0_System_Collections_IEnumerator_get_Current_m2028215076P21CustomAttributesCache
Uok:_ReadOnlyCollection_1_System_Collections_Generic_ICollectionU3CTU3E_Add_m1422506275_gshared
Zxj:_DateTime_System_IConvertible_ToDecimal_m1044850612
bgl:_List_1_IndexOf_m2206067159_gshared
Rs:__ZN13dynamic_arrayIiLj0EE9push_backERKi
Jhf:__ZThn128_N5physx7profile8ZoneImplINS_28PxProfileNameProviderForwardEED1Ev
Mpa:__ZN9ShaderLab19CommonPropertyNames13StaticCleanupEPv
bta:__Z31scripting_method_get_returntype18ScriptingMethodPtr
IPe:__ZN5physx2Sq17AABBTreeUpdateMap10invalidateEjjRNS0_8AABBTreeE
fWl:__ZL24UnresolvedVirtualCall_76P12Il2CppObjectPK10MethodInfo
Zgb:__ZN15SerializeTraitsI12LightmapDataE8TransferI24GenerateTypeTreeTransferEEvRS0_RT_
zRi:_SecurityElement_AddAttribute_m311510562
xMa:__ZN9Scripting5Unity11Collections44NativeDisableParallelForRestrictionAttribute12CleanupProxyEv
u2e:__ZN5physx28solveParallelDefaultFrictionERNS_18PxsDynamicsContextEjjPNS_13PxcSolverBodyEPNS_17PxcSolverBodyDataEjjPNS_25PxcArticulationSolverDescEjPNS_23PxcSolverConstraintDescEjS9_jPiSA_SA_SA_SA_SA_PNS_25PxcThresholdStreamElementEjSA_PNS_2Cm13SpatialVectorEPKPNS_11PxsBodyCoreERNSD_10BitMapBaseINS_6shdfnd9AllocatorEEEPKPNS_15PxsArticulationEjPViRNSL_5ArrayINS_24PxsConstraintBatchHeaderENSL_19ReflectionAllocatorISW_EEEES10_RNSV_IjNSX_IjEEEES13_PPNS_12PxsRigidBodyEj
a0m:_glStencilOpSeparate__wrapper
J1c:__ZN4Mesh5SetUvEiPKfjj
Jeb:__ZN7Texture13SetAnisoLimitENS_20AnisotropicFilteringE
yQa:__ZNSt3__26__treeINS_12__value_typeIjN4core12basic_stringIcNS2_20StringStorageDefaultIcEEEEEENS_19__map_value_compareIjS7_NS_4lessIjEELb1EEE13stl_allocatorIS7_L18MemLabelIdentifier7ELi16EEE25__emplace_unique_key_argsIjJNS_4pairIjS6_EEEEENSH_INS_15__tree_iteratorIS7_PNS_11__tree_nodeIS7_PvEEiEEbEERKT_DpOT0_
LG:__ZN21AnimationClipPlayable22PrepareAnimationEventsEfR13dynamic_arrayI22AnimationClipEventInfoLj0EE
A3i:_Attribute_IsDefined_m4069052474
pi:_emscripten_glCompressedTexSubImage2D
Gdc:__ZN13GfxDeviceGLES22MemoryBarrierImmediateEyN2gl17MemoryBarrierTypeE
rm:_abort
qVh:_U3CCaretBlinkU3Ec__Iterator0_Dispose_m860898205
tDa:__ZN6prcoreL26RemapGenericFloatToIntegerI18TexFormatARGBFloat17TexFormatARGB8888EEvPKNS_9InnerInfoE
Hol:_List_1_set_Capacity_m1977188119_gshared
lIm:__ZN6il2cpp6icalls8mscorlib6System10Reflection9MonoField16GetValueInternalEP21Il2CppReflectionFieldP12Il2CppObject
J3c:__Z46GetShaderModelNumericValueFromRequirementsMask18ShaderRequirements
Jak:_UTF7Encoding_InternalGetBytes_m797138468
Brf:_cff_ps_has_glyph_names
Scf:__ZN5physx15writeWordBufferEPKtjbRNS_14PxOutputStreamE
hYj:_Dictionary_2_Resize_m3287623642_gshared
jKm:_GC_write
OVk:__Z98RuntimeInvoker_Boolean_t97287965_PlayableOutputHandle_t4208053793_PlayableOutputHandle_t4208053793PFvvEPK10MethodInfoPvPS4_
dIh:_SoapTypeAttribute_SetReflectionObject_m1691526413
v2f:_Graphic_OnPopulateMesh_m767318148
SB:__ZN17ConstraintManagerD2Ev
WQh:_HMACSHA512_set_ProduceLegacyHmacValues_m3961135292
AVl:__ZL24UnresolvedVirtualCall_43P12Il2CppObjectS0_PK10MethodInfo
HVj:_Dictionary_2_Remove_m4193450060_gshared
tod:__ZN10SizeModule8TransferI17RemapPPtrTransferEEvRT_
HRj:_ASN1_get_Tag_m1032367219
bRl:_StandardEventPayload_set_name_m549984672
kkj:_Int64_TryParse_m3606398488
IJh:_RemotingServices_IsTransparentProxy_m1535738947
F8k:_Array_InternalArray__set_Item_TisMark_t3471605523_m1299772331_gshared
_bd:__Z44Register_UnityEngine_GUIStyle_SetDefaultFontv
GFm:__GLOBAL__sub_I_ThreadImpl_cpp
IWb:__Z18Transfer_BlittableI18StreamedBinaryReadILb1EELb1EiEvRK29SerializationCommandArgumentsR31RuntimeSerializationCommandInfo
rO:__ZN9BlobWrite8TransferI22OffsetPtrArrayTransferIKN4math7_float3EEEEvRT_PKc17TransferMetaFlags
zob:__ZN16MeshSkinningData14GetBoneWeightsEi
xKk:__Z173RuntimeInvoker_Int32_t2950945753_RuntimeObject_Int32_t2950945753_Int32_t2950945753_Int32_t2950945753_RuntimeObject_Int32_t2950945753_SByte_t1669577662_ContextU26_t3937453398PFvvEPK10MethodInfoPvPS4_
mil:_List_1__ctor_m2576108087_gshared
mlm:__ZN15dense_hashtableINSt3__24pairIK10KeyWrapperINS1_IPK12PropertyInfoP11Il2CppClassEEEjEES9_17ReflectionMapHashIS8_EN14dense_hash_mapIS9_jSD_NS9_14EqualsComparerINS0_8equal_toIS8_EEEENS0_9allocatorISB_EEE9SelectKeyESI_SK_E12maybe_shrinkEv
_5d:__ZN5physx2Sc7BodySim37checkSleepReadinessBesidesWakeCounterEv
zXl:__ZL25UnresolvedVirtualCall_150P12Il2CppObject19Vector2_t2156229523S1_fiPK10MethodInfo
RAl:_X509Certificate_get_DSA_m565099499
hXb:__Z18Transfer_BlittableI18StreamedBinaryReadILb1EELb1EsEvRK29SerializationCommandArgumentsR31RuntimeSerializationCommandInfo
t9j:_StringBuilder_Remove_m940064945
Wqb:__ZN14SafeBinaryRead21TransferSTLStyleArrayI13dynamic_arrayI16SplashScreenLogoLj0EEEEvRT_17TransferMetaFlags
yKb:__ZN13dynamic_arrayIN16GeometryJobTasks15GeometryJobTaskELj0EE18resize_initializedEjRKS1_12ResizePolicy
sPh:_DESCryptoServiceProvider_GenerateIV_m683687014
M1j:_GenericComparer_1__ctor_m1900257738_gshared
wFd:__Z19UpdateSingleRow2TplIL27ParticleSystemCurveEvalMode1ELS0_2EEvfRK11MinMaxCurveS3_RK23ParticleSystemParticlesPfbiii
agg:_Context_NotifyDynamicSinks_m1841702879
Peb:__ZL21SetAnisoLimitEnumImplN7Texture20AnisotropicFilteringEb
KKf:__ZN22BaseUnityConnectClient17OnEnterStateReadyEv
Hye:__ZNK5physx22NpParticleBaseTemplateINS_16PxParticleSystemENS_16NpParticleSystemEE15getMaxParticlesEv
Dje:__ZN5physx2Sc16ArticulationCore14setWakeCounterEf
ZNe:__ZN5physx13PxsCCDContextD2Ev
h3h:_Text_get_fontSize_m1677872538
Sel:_List_1_System_Collections_IList_get_Item_m995551621_gshared
aKa:__ZN9Scripting11UnityEngine12Experimental9Rendering15ShadowSplitData9InitProxyEv
lnb:__ZN16BlendShapeVertex8TransferI19StreamedBinaryWriteILb0EEEEvRT_
QQc:__Z29Input_CUSTOM_GetMouseButtonUpi
WXd:__ZN5physx2Gu12selectNormalEhff
xgm:__ZN6il2cpp6icalls8mscorlib6System8MonoType16InternalGetEventEP20Il2CppReflectionTypeP12Il2CppStringi
mef:__Z13RegisterClassI9RigidbodyEvPKc
rJl:_UriScheme_t722425697_marshal_pinvoke_back
ttf:_UNITY_tt_face_load_maxp
RMk:__Z68RuntimeInvoker_Void_t1185182177_IntPtr_t_MonoMethodInfoU26_t91913876PFvvEPK10MethodInfoPvPS4_
dRc:__Z46Input_CUSTOM_INTERNAL_set_compositionCursorPosRK13Vector2fIcall
pG:__ZN7mecanim5human12FullBodyMaskEv
hxe:__ZN5physx3Scb14ParticleSystem16releaseParticlesEjRKNS_16PxStrideIteratorIKjEE
Hmc:__ZN13BatchRenderer15ApplyShaderPassER17ShaderPassContextPK18SharedMaterialDataP6ShaderPN9ShaderLab4PassEi13BatchingFlagsbbPKNS7_10GrabPassesEPK22DeviceRenderStateBlock
Nlb:__ZN19ShaderPropertySheet11ComputeHashEv
K9l:__ZN30dense_hashtable_const_iteratorI10KeyWrapperIPK19Il2CppGenericMethodES4_N6il2cpp8metadata23Il2CppGenericMethodHashEN14dense_hash_setIS4_S7_NS4_14EqualsComparerINS6_26Il2CppGenericMethodCompareEEENSt3__29allocatorIS4_EEE8IdentityESB_SE_EppEv
TJe:__ZN5physx2Sc5Scene21processLostTouchPairsEv
dYb:__ZN4PPtrI6ObjectE8TransferI18StreamedBinaryReadILb1EEEEvRT_
via:__ZN11UnityEngine15CloudWebService20WebRequestRestClient6IsDoneEv
fHl:_Group__ctor_m2980794822
Sxl:_X509CertificateCollection_get_Item_m1033426577
lBk:_CachedInvokableCall_1_Invoke_m502907382_gshared
rFg:__ZL79Enumerable_t538148348_CustomAttributesCacheGenerator_Enumerable_Any_m1084009618P21CustomAttributesCache
mj:_llvm_fabs_f32
_ha:__ZN11UnityEngine15CloudWebService16SessionContainer16GetJsonDataBlockEjRKN4core12basic_stringIcNS2_20StringStorageDefaultIcEEEERS6_PjSA_
sLd:__ZThn28_N14PhysicsManager7onSleepEPPN5physx7PxActorEj
DRj:_ASN1_Decode_m1695284166
hHi:__ZN23GenericVirtFuncInvoker0IP28ValidationResult_t3834298736E6InvokeEPK10MethodInfoP12Il2CppObject
inm:__ZN15dense_hashtableINSt3__24pairIK10KeyWrapperIPK14Il2CppAssemblyEPK22Il2CppMonoAssemblyNameEES6_N6il2cpp5utils11PointerHashIS4_EEN14dense_hash_mapIS6_SA_SF_NS6_14EqualsComparerINS0_8equal_toIS5_EEEENS0_9allocatorISB_EEE9SelectKeyESK_SM_E13set_empty_keyERKSB_
jYe:__ZN5physx22PxcContactConvexConvexERKNS_2Gu13GeometryUnionES3_RKNS_11PxTransformES6_RKfRNS_10PxcNpCacheERNS0_13ContactBufferE
QDj:_Enum_ToString_m3248653065
ulf:__ZN18StreamedBinaryReadILb0EE21TransferSTLStyleArrayI13dynamic_arrayIcLj0EEEEvRT_17TransferMetaFlags
peg:_ChannelServices__cctor_m2475086854
BPd:__ZNK5physx2Gu11ConvexHullV12HillClimbingERKNS_6shdfnd3aos5Vec3VE
NDe:__ZNK5physx2Sc17ParticleSystemSim7getCoreEv
fsa:__ZN14SafeBinaryReadD2Ev
DHj:_SetPropertyUtility_SetStruct_TisFillMethod_t1167457570_m4164776730_gshared
Xwe:__ZN5physx2Sc18ParticleSystemCore10setDampingEf
I6j:_Enumerator_MoveNext_m3859993671_gshared
Rkf:__ZN14SafeBinaryRead21TransferSTLStyleArrayI13dynamic_arrayIN20TextRenderingPrivate8FontImpl13CharacterInfoELj0EEEEvRT_17TransferMetaFlags
xYb:__ZN8Gradient8TransferI18StreamedBinaryReadILb1EEEEvRT_
HDi:_SequentialSearchPrimeGeneratorBase_IsPrimeAcceptable_m1127740833
MXl:__ZL25UnresolvedVirtualCall_163P12Il2CppObject22Navigation_t3049316579S1_PK10MethodInfo
Ybi:_Capture__ctor_m3103117740
vJk:__Z113RuntimeInvoker_Void_t1185182177_RuntimeObject_Int64_t3736567304_RuntimeObject_Int64_t3736567304_Int64_t3736567304PFvvEPK10MethodInfoPvPS4_
J2d:__ZN5physx2Sc10NPhaseCore16deleteFilterPairEPNS0_10FilterPairE
Wzd:__ZN14ParticleSystem15ThreadedCleanupEv
_zh:_RangeInt_get_end_m4128831787_AdjustorThunk
zxm:__ZN6il2cpp6icalls8mscorlib6System4Type15MakeGenericTypeEP20Il2CppReflectionTypeP11Il2CppArray
Xef:_PxCreateBasePhysics
Oj:_SDL_PauseAudio
CYl:__ZL25UnresolvedVirtualCall_207P12Il2CppObject6Guid_tS1_PK10MethodInfo
jbj:_Hashtable_Clone_m3078962909
Oqm:_il2cpp_class_from_type
yhm:__ZN6il2cpp2os4File11GetStdErrorEv
a4l:_NativeHeaderAttribute__ctor_m457462113
RAg:__ZL77Convert_t2465617642_CustomAttributesCacheGenerator_Convert_ToSByte_m516918950P21CustomAttributesCache
u0l:_AnimationLayerMixerPlayable__ctor_m860721801
K6d:__ZN5physx2Sc5Scene28addActiveBreakableConstraintEPNS0_13ConstraintSimE
Lpa:__ZN9ShaderLab19CommonPropertyNames16StaticInitializeEPv
Ile:__ZN5physx6shdfnd8PoolBaseINS_16NpParticleSystemENS0_19ReflectionAllocatorIS2_EEE15disposeElementsEv
bxb:__ZN13MemoryManager31DisallowAllocationsOnThisThreadEv
esi:_Comparer_1__cctor_m2517796511_gshared
RE:__ZN7mecanim9animation18CreateAvatarOutputEPKNS0_14AvatarConstantEbbRNS_6memory9AllocatorE
dif:__ZN5physx7profile11EventBufferINS_24PxDefaultContextProviderENS_6shdfnd6MutexTINS0_26WrapperReflectionAllocatorIhEEEENS0_14ScopedLockImplIS7_EENS_24PxProfileNullEventFilterEE10eventValueEtyx
qLi:_TlsServerCertificateRequest_Update_m2763887540
hvd:__Z14UpdateSpeedTplIL27ParticleSystemCurveEvalMode1EEvRK11MinMaxCurveR23ParticleSystemParticlesjj
Z1h:_Slider_set_maxValue_m2251404465
I2h:_SpriteState_get_pressedSprite_m3868967445_AdjustorThunk
$8:__ZN11AudioSource23VirtualRedirectTransferER24GenerateTypeTreeTransfer
l1c:__ZN7Texture11SetWrapModeE15TextureWrapMode
NLf:__ZN22BaseUnityConnectClient13ResumeSessionEv
s9a:__ZN14Texture2DArray23VirtualRedirectTransferER14SafeBinaryRead
cbh:_MissingMemberException__ctor_m1220732369
upc:__ZNK6Camera21CalculateCanDoShadowsEv
sIe:__ZNK5physx2Sc5Scene17getBroadPhaseCapsERNS_16PxBroadPhaseCapsE
oZk:__Z52RuntimeInvoker_Void_t1185182177_Int32U26_t1369213839PFvvEPK10MethodInfoPvPS4_
wie:__ZN5physx9NpFactory14onActorReleaseEPNS_7PxActorE
Gmh:_Application_InvokeOnBeforeRender_m2875673833
sFm:__ZN6il2cpp2os6Thread12SetStackSizeEj
M8d:__ZN5physx2Sc5Actor15onElementAttachERNS0_7ElementE
qYh:_MaskableGraphic_RecalculateMasking_m183336762
kdl:_Array_InternalArray__get_Item_TisRuntimeObject_m3347010206_gshared
bWk:__Z38RuntimeInvoker_LightmapsMode_t12202505PFvvEPK10MethodInfoPvPS4_
u6f:_TypeBuilder_IsSubclassOf_m3458909121
fhh:_Default_check_arguments_with_score_m3467814020
cmg:__ZL73Enum_t4135868527_CustomAttributesCacheGenerator_Enum_ToObject_m3092348831P21CustomAttributesCache
Iwe:__ZN5physx2Sc18ParticleSystemCore23setSimulationFilterDataERKNS_12PxFilterDataE
GZb:__Z18Transfer_BlittableI18StreamedBinaryReadILb0EELb1EhEvRK29SerializationCommandArgumentsR31RuntimeSerializationCommandInfo
F_i:_X509Certificate__cctor_m198658613
TT:__ZN14SafeBinaryRead21TransferSTLStyleArrayI13dynamic_arrayI11KeyframeTplIfELj0EEEEvRT_17TransferMetaFlags
Jyh:_PlayableHandle_Equals_m1666612586_AdjustorThunk
$Ca:__ZN6prcoreL27StretchGenericFloatBilinearI15TexFormatRFloatEEvPKNS_9InnerInfoE
BOe:__ZN5physx6shdfnd8internal8HashBaseINS0_4PairIKNS_2Sq13PrunerPayloadEjEES5_NS0_4HashIS5_EENS1_11HashMapBaseIS5_jS9_NS0_9AllocatorEE6GetKeyESB_Lb1EE15reserveInternalEj
uEg:__ZL139ServicePointManager_t170559685_CustomAttributesCacheGenerator_ServicePointManager_t170559685____CheckCertificateRevocationList_PropertyInfoP21CustomAttributesCache
j5:__ZNK11AudioSource19GetFilterComponentsERNSt3__26vectorIPN4FMOD3DSPENS0_9allocatorIS4_EEEEb
iJ:__Z24ProcessAnimationMixBeginP35AnimationPlayableEvaluationConstantP32AnimationPlayableEvaluationInputP33AnimationPlayableEvaluationOutput
Sml:_List_1_set_Item_m2057272351_gshared
Lib:__ZN19StreamedBinaryWriteILb0EE21TransferSTLStyleArrayI13dynamic_arrayI8Vector2fLj0EEEEvRT_17TransferMetaFlags
ddb:__Z14PadImageBorderR14ImageReferenceii
Ojm:__ZN15dense_hashtableINSt3__24pairIK10KeyWrapperINS1_IPK10MethodInfoP11Il2CppClassEEEjEES9_17ReflectionMapHashIS8_EN14dense_hash_mapIS9_jSD_NS9_14EqualsComparerINS0_8equal_toIS8_EEEENS0_9allocatorISB_EEE9SelectKeyESI_SK_E4findERSA_
Ucm:__ZN6il2cpp2vm13MetadataCache28GetFieldDefaultValueForFieldEPK9FieldInfo
VJj:_Array_IndexOf_TisUIVertex_t4057497605_m3336763564_gshared
isk:__ZN21InterfaceFuncInvoker1I22OrderBlock_t1585977831iE6InvokeEjP11Il2CppClassP12Il2CppObjecti
MJ:__ZN27AnimationLayerMixerPlayableD2Ev
XZf:_ColorBlock_Equals_m518833916_AdjustorThunk
nSe:__ZN5physx2Gu22gjkRelativePenetrationINS0_9TriangleVENS0_8CapsuleVEEEjRKT_RKT0_RKNS_6shdfnd3aos15PsMatTransformVERKNSB_6FloatVERNSB_5Vec3VESJ_SJ_RSF_PhSL_Rh
w8j:_List_1_GetEnumerator_m2838255531_gshared
aQm:__ZN6il2cpp2os9FastMutexC2Ev
wKd:__ZN9Rigidbody14SetIsKinematicEb
pii:_InternalEnumerator_1_System_Collections_IEnumerator_get_Current_m1514266661_AdjustorThunk
B3:__ZN12AudioManager39HandlePendingAudioConfigurationCallbackEv
mHa:__ZL43__ManagedRegistrationHelperFunction_Vector3Pv
Nk:_emscripten_glIsFramebuffer
cUj:_RSAManaged_EncryptValue_m799827583
Ivc:__ZN12_GLOBAL__N_16qAtan2Eff
KGk:__Z61RuntimeInvoker_UInt32_t2560061978_RuntimeObject_RuntimeObjectPFvvEPK10MethodInfoPvPS4_
_ck:_ThreadAbortException__ctor_m1955533141
Rk:_JS_Sound_SetLoopPoints
SOm:__ZN6il2cpp2vm26MetadataAllocGenericMethodEv
MGj:_Array_InternalArray__ICollection_Remove_TisUInt16_t2177724958_m1766181761_gshared
Wfc:__ZN19ConstantBuffersGLES12RecordRenderEv
cOe:__ZN5physx13ActorAABBTaskD2Ev
pEk:_UnityEvent_1__ctor_m3675246889_gshared
jgd:__ZN9JSONWrite8TransferI10RectOffsetEEvRT_PKc17TransferMetaFlags
Wcb:__ZN4crnd12symbol_codec11decode_bitsEj
d0k:__Z59RuntimeInvoker_Boolean_t97287965_KeyValuePair_2_t3842366416PFvvEPK10MethodInfoPvPS4_
AFi:_EncryptedPrivateKeyInfo__ctor_m3415744930
Bpf:_cf2_doFlex
F7h:_AsnEncodedData__ctor_m3792312694
cNl:_AesManaged_GenerateIV_m1368817386
bUc:__ZN21FixedBehaviourManagerD0Ev
u0a:__ZN10Matrix3x4f8TransferI24GenerateTypeTreeTransferEEvRT_
O2:__ZN4FMOD6System12createReverbEPPNS_6ReverbE
oIm:__ZN6il2cpp2vm6String21InitializeEmptyStringEP11Il2CppClass
KDd:__ZL17DrawMeshParticlesILb1EL25ParticleSystemRenderSpace1EEvRK26ParticleSystemTempMeshDataRK22ParticleSystemTempDataRK23ParticleSystemParticlesRK31ParticleSystemParticlesTempDataRK26ParticleSystemRendererDataRK21ParticleSystemModulesPfPv
DJ:__ZN7mecanim19ValueArrayBlendNodeILb1EEEvRKNS_10ValueArrayERKNS_14ValueArrayMaskERS1_RS4_RNS_16ValueArrayWeightEf
uOh:_CodeAccessPermission_GetHashCode_m880096813
dxb:__Z16MarkDependenciesR27GarbageCollectorThreadStatej
sgh:_AssemblyConfigurationAttribute__ctor_m3236176989
S2l:_ObjectPool_1_get_countInactive_m526975942_gshared
rVl:__ZL24UnresolvedVirtualCall_34P12Il2CppObjectPK10MethodInfo
KIh:_RemotingServices_DisposeIdentity_m2605848806
YBa:__ZNK9Transform11GetPositionEv
nle:__ZN5physx12NpConstraint8requiresERNS_23PxProcessPxBaseCallbackE
Tnh:_Bounds_set_size_m4127623202
Cgj:_GuidParser_Reset_m2640004655
u0d:__ZN5physx3Cct13HandleManager3AddEPv
z$c:__ZN31CanvasBatchIntermediateRenderer11AddSubBatchERK16DrawBuffersRangePK19ShaderPropertySheet
lXc:__ZN19RenderEventsContextC2Ei
Tfa:__Z6simd4fRKf
PRg:__ZL67SceneManager_t2787271929_CustomAttributesCacheGenerator_sceneLoadedP21CustomAttributesCache
cfj:_GregorianCalendar_GetEra_m2369958449
tl:_emscripten_glEnable
Xji:_InternalEnumerator_1_System_Collections_IEnumerator_get_Current_m2982675020_gshared
UCd:__ZNK14ParticleSystem16GetParticleCountEv
mQa:__ZN10TagManager23VirtualRedirectTransferER14SafeBinaryRead
N2g:__ZL51RawImage_t3182918964_CustomAttributesCacheGeneratorP21CustomAttributesCache
v7e:__ZNK5physx2Sc15ClothFabricCore9getNbSetsEv
tok:_Collection_1_System_Collections_IList_get_Item_m2931804586_gshared
qIh:_ObjRef_get_EnvoyInfo_m1782007847
oVj:_Dictionary_2_System_Collections_IDictionary_GetEnumerator_m751864982_gshared
tza:__ZN14PlayableOutput26ClearInvalidSourcePlayableEv
qsc:__Z15InitLightMeshesv
t8f:_MonoCMethod_ToString_m3992577062
J3l:_RaycastHit_get_collider_m1464180279
zHe:__ZNK5physx7NpScene26getNbContactDataBlocksUsedEv
io:FUNCTION_TABLE_iifiii
kTd:__ZN5physx2Gu29computeCapsule_HeightFieldMTDERKNS_21PxHeightFieldGeometryERKNS_11PxTransformERNS0_8CapsuleVEffbjRNS_10PxSweepHitE
_4l:__ZNK15dense_hashtableINSt3__24pairIK10KeyWrapperIPK22Il2CppGenericParameterEP11Il2CppClassEES6_N6il2cpp5utils11PointerHashIS4_EEN14dense_hash_mapIS6_S9_SE_NS6_14EqualsComparerINS0_8equal_toIS5_EEEENS0_9allocatorISA_EEE9SelectKeyESJ_SL_E10test_emptyEj
YCe:__ZNK5physx2Cm12DelegateTaskINS_7NpSceneEXadL_ZNS2_14executeCollideEPNS_10PxBaseTaskEEEE7getNameEv
M8e:__ZN5physx2Gu11HeightField15exportExtraDataERNS_22PxSerializationContextE
I0a:__Z13TransferArrayILi4Ei19StreamedBinaryWriteILb0EEEjRAT__T0_PKcRT1_
yvk:_ReadOnlyCollection_1_System_Collections_IList_Contains_m2904046095_gshared
Eeb:__ZN15QualitySettings8TransferI19StreamedBinaryWriteILb0EEEEvRT_
XVg:__ZL56GUISkin_t1244372282_CustomAttributesCacheGenerator_m_boxP21CustomAttributesCache
ggj:_SortKey_GetHashCode_m3547067087
zXh:_LayoutUtility_U3CGetFlexibleHeightU3Em__7_m2991026842
RUb:__Z18Transfer_BlittableI19StreamedBinaryWriteILb0EELb1E8Vector2fEvRK29SerializationCommandArgumentsR31RuntimeSerializationCommandInfo
dpf:_cf2_arrstack_init
tdl:_Array_InternalArray__get_Item_TisResourceCacheItem_t51292791_m1306056717_gshared
kYk:__Z157RuntimeInvoker_Void_t1185182177_RuntimeObject_RuntimeObject_RuntimeObject_RuntimeObject_RuntimeObject_RuntimeObject_RuntimeObject_RuntimeObject_RuntimeObjectPFvvEPK10MethodInfoPvPS4_
ZSf:_EventSystem_get_pixelDragThreshold_m1103650852
BGg:__ZL60StaticAccessorType_t186341701_CustomAttributesCacheGeneratorP21CustomAttributesCache
$ma:__Z15CleanLogHandler7LogTypePKcz
peh:_NumberFormatter_NumberToString_m2481532188
dHc:__ZN9ShaderLab19SerializedSubShader8TransferI19StreamedBinaryWriteILb0EEEEvRT_
Jne:__ZN5physx10NpMaterialC2ERKNS_2Sc12MaterialCoreE
i0h:_ScrollRect_InternalGetBounds_m599803667
gwi:_Enumerator_MoveNext_m76191888_gshared
bca:__ZN14AudioBehaviour15ThreadedCleanupEv
f$e:__ZN5physx9PxTaskMgr10resolveRowEjb
QMa:__ZN9Scripting5Unity11Collections8LowLevel6Unsafe41NativeContainerIsAtomicWriteOnlyAttribute9InitProxyEv
s1b:__ZN6Camera17RemoveImageFilterERK11ImageFilter
cLb:__ZNSt3__218__insertion_sort_3IR25ValueParameterArraySorterPN20GpuProgramParameters14ValueParameterEEEvT0_S6_T_
xQg:__ZL90Display_t1387065949_CustomAttributesCacheGenerator_Display_GetRenderingExtImpl_m2069813991P21CustomAttributesCache
vsd:__ZN14EmissionModule15AccumulateBurstER27ParticleSystemEmissionStateRK11MinMaxCurvef
paj:_Comparer__cctor_m3311686689
KNl:_U3CUpdateCountdownBarU3Ec__Iterator0_Reset_m1268897741
bFf:__ZZN2UI11CanvasGroup15InitializeClassEvEN38FunctorImpl_117kTransformParentChanged4CallEPviR11MessageData
uXf:_UIBehaviour_OnDidApplyAnimationProperties_m2143584361
Uzd:__ZN11ShapeModule17MainThreadCleanupEv
Cqd:__ZN9SubModule5ResetEv
lMd:__ZN8Collider12GetIsTriggerEv
js:__ZN12NavMeshAgent13SetBaseOffsetEf
QIl:_Uri__ctor_m3040793867
Cz:__ZN12NavMeshQuery20UpdateSlicedFindPathEiPi
V5h:_HttpWebRequest_get_Address_m2672661563
Xek:_TimeZone__ctor_m1831364098
Rlm:__ZNK10KeyWrapperINSt3__24pairIPK9EventInfoP11Il2CppClassEEE14EqualsComparerINS0_8equal_toIS7_EEEclERKS8_SE_
zji:_InternalEnumerator_1_get_Current_m3500427238_AdjustorThunk
kGf:__ZN2UI26InitializeDeviceForOverlayEi
R6e:__ZNK5physx13NpClothFabric13getRestvaluesEPfj
YCi:_Kernel_PlusEq_m136676638
voa:__Z27LogRepeatingStringWithFlagsRKN4core12basic_stringIcNS_20StringStorageDefaultIcEEEE15LogMessageFlagsi
WPd:__ZN5physx2Gu16_gjkLocalRayCastINS0_9TriangleVENS0_11ConvexHullVEEEbRT_RT0_RKNS_6shdfnd3aos6FloatVERKNS9_5Vec3VESF_RSA_RSD_SH_f
bEj:_Enum_IsDefined_m1442314461
zck:_Thread__cctor_m817723615
fTl:_AudioExtensionManager_RegisterBuiltinDefinitions_m2742744104
RG:__ZN17AnimationPlayable28ComputeNeedsBindingRebuildedEv
WF:__ZN17AnimationPlayable23RequestAllocateBindingsEv
V6d:__ZN5physx6shdfnd8PoolBaseINS_2Cm5BlockIPvLj32EEENS0_19ReflectionAllocatorIS5_EEE17releaseEmptySlabsEv
Wzk:_Predicate_1_EndInvoke_m3884403745_gshared
sUe:__ZN5physx23PxsBroadPhaseContextSap21batchUpdateFewUpdatesEjRPNS_17PxcBroadPhasePairERjS4_
dYi:_DecoderReplacementFallbackBuffer_Fallback_m1261056214
WYd:__ZN5physx3Cct17getSceneTimestampEPKNS0_30InternalCBData_FindTouchedGeomE
Ykc:__ZNSt3__227__insertion_sort_incompleteIRPFbP10GUIElementS2_EPS2_EEbT0_S7_T_
kch:_Binder_get_DefaultBinder_m950908649
ymi:_InternalEnumerator_1__ctor_m31115849_gshared
Nzg:__ZL59ArgumentException_t132251570_CustomAttributesCacheGeneratorP21CustomAttributesCache
HLf:__ZN18UnityConnectClient33OnPlayerSessionStateChangedStaticEPS_jyy
O_:__ZN25RuntimeAnimatorController12CleanupClassEv
uXk:__Z109RuntimeInvoker_Boolean_t97287965_Vector3_t3722313464_Vector3_t3722313464_Single_t1397266774_Int32_t2950945753PFvvEPK10MethodInfoPvPS4_
UNi:_RSA_ToXmlString_m2922661427
fja:__ZNK11UnityEngine15CloudWebService23WebRequestUploadHandler11GetProgressEv
kbc:__ZN7ApiGLES4LoadE16GfxDeviceLevelGL
Sme:__ZN5physx9NpPhysics15createAggregateEjb
HVg:__ZL61GUIContent_t3050628031_CustomAttributesCacheGenerator_m_ImageP21CustomAttributesCache
Qcb:__ZN4crnd12crn_unpacker22decode_color_endpointsEv
Yr:__ZL19ProjectToPolyDetailPK11NavMeshTilePK11NavMeshPolyRK8Vector3fPf
fBm:__ZN15dense_hashtableI10KeyWrapperIP18Il2CppGenericClassES3_N6il2cpp8metadata22Il2CppGenericClassHashEN14dense_hash_setIS3_S6_NS3_14EqualsComparerINS5_25Il2CppGenericClassCompareEEENSt3__29allocatorIS3_EEE8IdentityESA_SD_E15insert_noresizeERKS3_
PYc:__ZZL31RegisterOtherRendererPropertiesR22GenericPropertyBindingEN30Wrapper_RendererReceiveShadows13GetFloatValueEPv
gPa:__ZN8Vector4f8TransferI18StreamedBinaryReadILb0EEEEvRT_
CNd:__ZN9Rigidbody5ResetEv
hFj:_Array_InternalArray__ICollection_Contains_TisSlot_t384495010_m688761886_gshared
tcb:__ZN17SharedTextureDataC2E10MemLabelIdii13TextureFormatjiibb
YZk:__Z114RuntimeInvoker_RuntimeObject_RuntimeObject_Int32_t2950945753_Int32_t2950945753_Int32_t2950945753_Int32_t2950945753PFvvEPK10MethodInfoPvPS4_
v4b:__ZN8Material11SetPassFastEPN9ShaderLab4PassER17ShaderPassContextP6Shaderib
qLf:__ZN11UnityEngine7Connect20BasePersistentValues10SaveValuesER9JSONWrite
Vlk:_Collection_1_IsFixedSize_m3748602684_gshared
$xj:_DateTime_System_IConvertible_ToDouble_m2116720007
dEi:_BitConverterLE_GetUIntBytes_m795219058
Jqh:_Display_GetSystemExtImpl_m2808197389
Odk:_WaitHandle_WaitOne_m2577152516
hOh:_SByte_Parse_m2899090751
hqd:__ZN11ShapeModule18MultiModeParameterIN25IParticleSystemProperties8PropertyIfNS1_5ClampILi0ELi360EEEEEE8TransferI19StreamedBinaryWriteILb0EEEEvRT_
Xvg:__ZL56ObjectManager_t1653064325_CustomAttributesCacheGeneratorP21CustomAttributesCache
rJa:__ZN9Scripting11UnityEngine20ManagedStreamHelpers12CleanupProxyEv
C_g:__ZL94AxisEventData_t2331243652_CustomAttributesCacheGenerator_AxisEventData_get_moveDir_m2423724085P21CustomAttributesCache
Cwg:__ZL46DSA_t2386879874_CustomAttributesCacheGeneratorP21CustomAttributesCache
ofi:_ArrayReadOnlyList_1_GetEnumerator_m1835926958_gshared
Y_e:__ZN5physx9PxTaskMgr12addReferenceEj
b3c:__Z14ScaleCurveTimeR17AnimationCurveTplIfEf
Swa:__ZN20GlobalCachingManager7DisposeEv
$lc:__Z12SetupLODFadeR9GfxDeviceR17ShaderPassContextf
S8a:__ZNK14PlayableOutput7GetTypeEv
$gd:__ZN9JSONWrite8TransferI13dynamic_arrayI4AABBLj0EEEEvRT_PKc17TransferMetaFlags
Kng:__ZL69Type_t_CustomAttributesCacheGenerator_Type_GetConstructors_m576905011P21CustomAttributesCache
xy:__ZNSt3__27__sort4IR17DetailNodeZSorterP16DetailMeshBVNodeEEjT0_S5_S5_S5_T_
dsc:__ZL24CollectForwardObjectsJobP27CollectForwardObjectsHeader
Nnl:_List_1_get_Item_m1378751541_gshared
$id:__ZN8JSONRead21TransferSTLStyleArrayI13dynamic_arrayIdLj0EEEEvRT_17TransferMetaFlags
zuc:__Z13IsNodeVisibleRK9SceneNodeRK4AABBRK22SceneCullingParameters
wKj:_Array_InternalArray__IndexOf_TisLabelFixup_t858502054_m1491765395_gshared
IJk:__Z44RuntimeInvoker_RuntimeTypeHandle_t3027515415PFvvEPK10MethodInfoPvPS4_
gri:__ZN21InterfaceFuncInvoker1IibE6InvokeEjP11Il2CppClassP12Il2CppObjectb
P6f:__ZN30GenericInterfaceActionInvoker1IP20Delegate_t1188392813E6InvokeEPK10MethodInfoP12Il2CppObjectS1_
YOj:_SortKeyBuffer_AppendCJKExtension_m2591091991
zHd:__ZN11ShapeModuleC2E10MemLabelId
dbk:_UTF8Encoding_GetByteCount_m4153686982
R5m:_emscripten_glStencilMask__wrapper
kIk:__Z49RuntimeInvoker_Void_t1185182177_Double_t594665363PFvvEPK10MethodInfoPvPS4_
A9l:__ZN15dense_hashtableI10KeyWrapperIPK19Il2CppGenericMethodES4_N6il2cpp8metadata23Il2CppGenericMethodHashEN14dense_hash_setIS4_S7_NS4_14EqualsComparerINS6_26Il2CppGenericMethodCompareEEENSt3__29allocatorIS4_EEE8IdentityESB_SE_EC2ERKSH_j
abm:__ZN15dense_hashtableINSt3__24pairIK10KeyWrapperIN6il2cpp5utils13dynamic_arrayIPK10Il2CppTypeLj4EEEEPFvvEEESA_NS3_8metadata19Il2CppSignatureHashEN14dense_hash_mapISA_SD_SG_NSA_14EqualsComparerINSF_22Il2CppSignatureCompareEEENS0_9allocatorISE_EEE9SelectKeyESK_SM_EC2EjRKSG_RKSK_RKSO_
YUa:__ZN15RenderNodeQueue7CleanupEv
oHg:__ZL66RuntimePlatform_t4159857903_CustomAttributesCacheGenerator_XBOX360P21CustomAttributesCache
dCb:__ZNK17ArchiveFileSystem8PositionERK13FileEntryData
DJd:__ZN16NovodexAllocator8allocateEjPKcS1_i
zrc:__Z17PrepareShadowMapsRK11CullResultsRK11ActiveLightRK10MinMaxAABB
IAl:_DeriveBytes_DeriveIV_m973925711
Nij:_Int32_System_IConvertible_ToSByte_m3133688512
sRf:__ZN9Scripting11UnityEngine12Experimental23SubsystemDescriptorBase9InitProxyEv
zvk:_ReadOnlyCollection_1_System_Collections_IList_IndexOf_m848971554_gshared
pUl:_AudioSampleProvider_get_id_m2692334523
$rc:__ZN9ShaderLab10GrabPassesD2Ev
tab:__ZN14Texture2DArray13UploadTextureEv
aYh:_MaskableGraphic_UpdateCull_m2805101913
$tf:_tt_cmap14_done
dvb:__ZN18AwakeFromLoadQueue25RegisterObjectInstanceIDsEv
ndf:__ZN5physx21PxProfileNameProviderD2Ev
cSh:_InputField_UpdateLabel_m1837760870
Mzi:_Transform_1_EndInvoke_m332304766_gshared
vWf:_StandaloneInputModule_set_forceModuleActive_m2237222402
RJ:__ZNK27AnimationLayerMixerPlayable11DerivesFromE17ScriptingClassPtr
Ylf:__ZN20TextRenderingPrivate19NativeTextGenerator15InsertCharacterEiPj
kIe:__ZN5physx2Sc5Scene22removeBroadPhaseRegionEj
XKk:__Z77RuntimeInvoker_Void_t1185182177_RuntimeObject_SByte_t1669577662_RuntimeObjectPFvvEPK10MethodInfoPvPS4_
DLk:__Z81RuntimeInvoker_Void_t1185182177_RuntimeObject_SByte_t1669577662_SByte_t1669577662PFvvEPK10MethodInfoPvPS4_
M0d:__ZN5physx2Cm12RenderBuffer5clearEv
Zsh:_SpriteBone_t303320096_marshal_pinvoke_back
Yte:__ZNK5physx2Sc9ClothCore21getStiffnessFrequencyEv
ech:_MonoType_get_attributes_m1332507727
VKl:_GUIContent_ClearStaticCache_m1205116045
h2g:__ZL66InputField_t3762917431_CustomAttributesCacheGenerator_m_CaretWidthP21CustomAttributesCache
zmd:__ZN24OptimizedPolynomialCurve19BuildOptimizedCurveERK17AnimationCurveTplIfEf
CQe:__ZN5physx13PxsCCDContext14postCCDAdvanceEPNS_10PxBaseTaskE
GSi:_WindowsIdentity_Dispose_m3466258450
yI:__ZN17AnimationPlayableD0Ev
JVb:__Z18Transfer_BlittableI19StreamedBinaryWriteILb0EELb0EyEvRK29SerializationCommandArgumentsR31RuntimeSerializationCommandInfo
NKh:_BinaryCommon__cctor_m2978407547
hla:__GLOBAL__sub_I_Runtime_Burst_0_cpp
cqc:__Z19GetReflectionSampleRK23ReflectionProbesContextRK22ActiveReflectionProbesRK27PerObjectLightCullingOutputRK10RenderNodejP16ReflectionSample
AYc:__ZN28ReflectionProbeAnchorManager23HandleAnchorDestructionEPK15TransformAccessj
Log:__ZL47ASN1_t2114160832_CustomAttributesCacheGeneratorP21CustomAttributesCache
Lvm:__ZN6il2cpp6icalls8mscorlib6System2IO6MonoIO20GetFileSystemEntriesEP12Il2CppStringS6_iiPi
nOf:__ZL65__ManagedRegistrationHelperFunction_UnityWebRequestAsyncOperationPv
OEk:_IndexedSet_1__ctor_m2250384602_gshared
e_j:_DefaultComparer__ctor_m1306123661_gshared
uhk:_UInt16_TryParse_m4139137016
h6c:__Z41MonoBehaviour_Set_Custom_PropUseGUILayoutP12Il2CppObjecth
hFm:__ZN6il2cpp5utils13dynamic_arrayIPNS_2os6ThreadELj4EE9push_backEv
hIa:__ZN9Scripting11UnityEngine15ResourceRequest12CleanupProxyEv
v$g:__ZL102PointerEventData_t3807901092_CustomAttributesCacheGenerator_PointerEventData_get_clickTime_m3061953952P21CustomAttributesCache
JYi:_Encoding__ctor_m2997749867
Duh:_ManagedStreamHelpers_ManagedStreamSeek_m3158782053
DHl:_ExpressionAssertion_Compile_m2166597834
aMb:__ZN16ScriptingManagerD0Ev
UTi:_Single_System_IConvertible_ToSByte_m1208276900_AdjustorThunk
RKi:_TlsClientCertificate_ProcessAsSsl3_m3265529850
fJm:__ZN6il2cpp6icalls8mscorlib6System7Convert24InternalFromBase64StringEP12Il2CppStringb
TWe:__ZNK5physx10BPWorkTask7getNameEv
cje:__ZN5physx2Sc8ShapeSim16onResetFilteringEv
Qxd:__Z25UpdateOrbitalAndRadialTplIL27ParticleSystemCurveEvalMode0ELS0_1ELS0_0EEvRK11MinMaxCurveS3_S3_S3_S3_S3_S3_R23ParticleSystemParticlesjjRKN4math8float3x3ERKNS6_7affineXERKNS6_7_float4E
vzm:__ZN30dense_hashtable_const_iteratorINSt3__24pairIK10KeyWrapperINS1_IPKcS4_EEEiEES6_24NamespaceAndNamePairHashN14dense_hash_mapIS6_iS9_NS6_14EqualsComparerI26NamespaceAndNamePairEqualsEENS0_9allocatorIS8_EEE9SelectKeyESD_SF_EppEv
H8c:__Z44Register_UnityEngine_Component_get_transformv
MHg:__ZL81Camera_t4157153871_CustomAttributesCacheGenerator_Camera_GetAllCameras_m668492922P21CustomAttributesCache
wP:__ZN12_GLOBAL__N_120ProcessPlayableGraphERN8Animator11AnimatorJobER35AnimationPlayableEvaluationConstantR32AnimationPlayableEvaluationInputR33AnimationPlayableEvaluationOutputPFvS4_R17AnimationPlayableEPFvS4_S6_S8_EPFvS8_S4_S6_S8_fESE_MS9_FvPS3_PS5_PS7_E
mlg:__ZL48Double_t594665363_CustomAttributesCacheGeneratorP21CustomAttributesCache
pgj:_TextInfo_ToLower_m2744057472
F6d:__ZN5physx2Sc16ActorInteractionD2Ev
ohc:__ZN17ArchiveFileSystem12MountArchiveEPKcS1_
h8l:__ZN14dense_hash_mapI10KeyWrapperIP9FieldInfoEiN6il2cpp5utils11PointerHashIS1_EENS3_14EqualsComparerINSt3__28equal_toIS2_EEEENS9_9allocatorINS9_4pairIKS3_iEEEEE15set_deleted_keyERSF_
p1j:_EqualityComparer_1_System_Collections_IEqualityComparer_Equals_m3977314386_gshared
nfd:__Z18Transfer_BlittableI9JSONWriteLb1E8Vector4fEvRK29SerializationCommandArgumentsR31RuntimeSerializationCommandInfo
Jqa:__Z11RequireTypePKcS0_S0_
vcj:_CCGregorianCalendar_year_from_fixed_m463929682
JAf:__ZN2UI13CanvasManagerD0Ev
yLi:_TlsServerHello_Update_m3935081401
Dmh:_Debug_get_unityLogger_m2239795986
Kje:__ZN5physx2Sc16ArticulationCore26setExternalDriveIterationsEj
bpk:_ReadOnlyCollection_1_System_Collections_IEnumerable_GetEnumerator_m2123446296_gshared
OEi:_MD2Managed_Initialize_m2341076836
wvk:_ReadOnlyCollection_1_System_Collections_IList_Add_m4240023232_gshared
zHb:__ZN9GfxDevice15ImmediateVertexEfff
RKg:__ZL56PreLateUpdate_t3194249939_CustomAttributesCacheGeneratorP21CustomAttributesCache
vgb:__ZNK16LightmapSettings22GetTypeVirtualInternalEv
a_a:__ZN16GraphicsSettings13AwakeFromLoadE17AwakeFromLoadMode
cnm:__ZN30dense_hashtable_const_iteratorINSt3__24pairIK10KeyWrapperIPK14Il2CppAssemblyEPK22Il2CppMonoAssemblyNameEES6_N6il2cpp5utils11PointerHashIS4_EEN14dense_hash_mapIS6_SA_SF_NS6_14EqualsComparerINS0_8equal_toIS5_EEEENS0_9allocatorISB_EEE9SelectKeyESK_SM_EppEv
Fs:__ZN6Object13AwakeFromLoadE17AwakeFromLoadMode
G7b:__ZN13GfxDeviceGLES15SetStencilStateEPK18DeviceStencilStatei
Snj:__ZN28GenericInterfaceFuncInvoker3IiP22ByteU5BU5D_t4116647657iiE6InvokeEPK10MethodInfoP12Il2CppObjectS1_ii
M4i:_Buffer_BlockCopyInternal_m418318694
kTm:_cycle
BPg:__ZL138SupportedRenderingFeatures_t353898663_CustomAttributesCacheGenerator_SupportedRenderingFeatures_get_supportedLightmapBakeTypes_m1596512019P21CustomAttributesCache
XIm:__ZN6il2cpp2vm8Profiler7GCEventE13Il2CppGCEvent
XJk:__Z76RuntimeInvoker_Void_t1185182177_RuntimeObject_RuntimeFieldHandle_t1871169219PFvvEPK10MethodInfoPvPS4_
Slk:_Collection_1_ConvertItem_m4023613763_gshared
ZAl:_PKCS12_Finalize_m507756088
kEh:_Texture_CreateNonReadableException_m1462630389
ce:_emscripten_glUniform1iv
kKb:__ZN13ComputeShader14SetBufferParamEjRKN9ShaderLab16FastPropertyNameE15ComputeBufferIDb
Xck:_Thread_get_ManagedThreadId_m1068113671
rEb:__ZN16MemoryFileSystemD2Ev
mKk:__Z150RuntimeInvoker_Int32_t2950945753_RuntimeObject_Int32_t2950945753_Int32_t2950945753_RuntimeObject_Int32_t2950945753_Int32_t2950945753_Int32_t2950945753PFvvEPK10MethodInfoPvPS4_
N3i:_BitConverter_DoubleToInt64Bits_m3574395137
Ysj:_DateTime_Parse_m3729096069
ril:_List_1_System_Collections_IList_Add_m1540114404_gshared
qqh:_Debug_LogException_m2248249292
agi:_InternalEnumerator_1_System_Collections_IEnumerator_Reset_m81420524_AdjustorThunk
q_a:__ZN16GraphicsSettings27SetLightsUseLinearIntensityEb
e7c:__Z37Register_UnityEngine_Camera_get_depthv
Iol:_List_1_get_Count_m576380744_gshared
KYc:__ZZN8Renderer15InitializeClassEvEN32FunctorImpl_146kCullSceneChanged4CallEPviR11MessageData
Z8g:_StringReader_Read_m3322058819
Eeg:_CrossAppDomainChannel_get_ChannelPriority_m3418073750
D_j:_EqualityComparer_1__ctor_m1860346363_gshared
YUh:_Selectable_StartColorTween_m3618813981
_Ve:__ZNK5physx16PxsBroadPhaseMBP18getNumDeletedPairsEv
wSf:_BaseInputModule_HandlePointerExitAndEnter_m1705532066
E6f:_EventInfo__ctor_m3033129999
fhf:__ZN5physx7profile8ZoneImplINS_28PxProfileNameProviderForwardEE10startEventEty
qVl:__ZL24UnresolvedVirtualCall_33P12Il2CppObjectiS0_S0_PK10MethodInfo
WQe:__ZN5physx10PxsCCDPair17sweepAdvanceToToiEfb
LOc:__ZN15ApplicationInfo16GetInstallerNameEv
WAc:__Z23ConvertIntegerToTypePtrItEbPvR14SafeBinaryRead
ZBj:_Delegate_CombineImpl_m3572135514
l_c:__Z13RegisterClassI15EditorExtensionEvPKc
qeh:_NumberFormatter_IntegerToString_m1679294587
ePi:_SHA256Managed_AddLength_m1060552216
Jsk:_ReadOnlyCollection_1_System_Collections_IList_RemoveAt_m422909114_gshared
iQ:__ZN7mecanim5human29HumanGetGoalOrientationOffsetENS0_4GoalE
te:_emscripten_glStencilFunc
eie:__ZN5physx6shdfnd8PoolBaseINS_2Cm5BlockIhLj384EEENS0_19ReflectionAllocatorIS4_EEE17releaseEmptySlabsEv
Y4e:__ZN5physx16PxsIslandManager11freeBuffersEv
RUl:__ZL23UnresolvedVirtualCall_6P12Il2CppObjectiPK10MethodInfo
KVl:__ZL24UnresolvedVirtualCall_53P12Il2CppObjectPK10MethodInfo
jU:__ZN13dynamic_arrayI11KeyframeTplI8Vector3fELj0EE18resize_initializedEj12ResizePolicy
ujf:__ZN5Unity12PhysicsQuery21OverlapBoxUserCollectERK8Vector3fS3_RK11Quaternionfi23QueryTriggerInteractionRN8IPhysics12IUserCollectE
sIc:__ZN9ShaderLab20SerializedSubProgram14AddMatrixParamEPKcii15ShaderParamTypei
Ae:_glGetActiveUniformBlockName
L_g:__ZL90PointerEventData_t3807901092_CustomAttributesCacheGenerator_U3CpointerIdU3Ek__BackingFieldP21CustomAttributesCache
WI:__ZN7mecanim13CopyValueMaskILb0EEEvPKNS_14ValueArrayMaskEPS1_
THk:__Z67RuntimeInvoker_Int32_t2950945753_RuntimeObject_Int32U26_t1369213839PFvvEPK10MethodInfoPvPS4_
YHl:_Parser_IsIgnoreCase_m2210120858
x1e:__ZL28removeBrokenEdgesFromIslandsPKjjS0_jS0_RKN5physx11NodeManagerERNS1_11EdgeManagerERNS1_13IslandManagerERNS1_2Cm10BitMapBaseINS1_6shdfnd9AllocatorEEEPSD_
fBd:__ZN31CollisionModulePropertyBindings13GetFloatValueERK14ParticleSystemi
vRi:_SecurityPermission_IsSubsetOf_m545000671
Kcm:__ZN6il2cpp2vm13MetadataCache28GetGenericContainerFromIndexEi
xVa:__ZNK4PPtrI5FlareEcvPS0_Ev
y4:__ZN4FMOD7Channel20set3DConeOrientationEP11FMOD_VECTOR
Yn:FUNCTION_TABLE_iiifii
Shh:_AssemblyBuilder_not_supported_m1735277432
yoi:_InternalEnumerator_1_MoveNext_m1344185775_AdjustorThunk
XCm:__ZN6il2cpp2vm12GenericClass11SetupEventsEP11Il2CppClass
d5b:__ZN19RuntimeSceneManager18LoadSceneAsyncIntoER10UnitySceneRKN4core12basic_stringIcNS2_20StringStorageDefaultIcEEEENS_11LoadingModeEb
xuf:_tt_cmap12_get_info
Vaj:_Hashtable_get_Keys_m625158339
Fym:__ZN6il2cpp2vm15ReboxIReferenceEP14Il2CppIUnknownP11Il2CppClass
$mk:_Collection_1_Contains_m1707523067_gshared
c6j:_Enumerator__ctor_m2029608698_AdjustorThunk
nDm:__ZN6il2cpp2os5posix15PosixWaitObjectD2Ev
y1l:__ZN6il2cpp6icalls8mscorlib6System7Decimal14decimalCompareEP19il2cpp_decimal_reprS5_
GVj:_Dictionary_2_OnDeserialization_m4209543208_gshared
FJm:__ZThn4_N6il2cpp2vm13CachedCCWBaseINS0_13ManagedObjectEE7ReleaseEv
mde:__ZN5physx26PxcFsComputeJointLoadsSimdERKNS_9PxcFsDataEPKNS_12PxcFsInertiaEPNS_6shdfnd3aos6Mat33VEPKfjjNS_21PxcFsScratchAllocatorE
PCe:__ZN5physx6shdfnd8SyncImpl7getSizeEv
NNi:_RNGCryptoServiceProvider_GetNonZeroBytes_m1918423726
CTk:__Z100RuntimeInvoker_Void_t1185182177_RuntimeObject_Int32_t2950945753_Int32_t2950945753_UInt16_t2177724958PFvvEPK10MethodInfoPvPS4_
Wwd:__Z25UpdateOrbitalAndRadialTplIL27ParticleSystemCurveEvalMode2ELS0_3ELS0_2EEvRK11MinMaxCurveS3_S3_S3_S3_S3_S3_R23ParticleSystemParticlesjjRKN4math8float3x3ERKNS6_7affineXERKNS6_7_float4E
I2m:_glCopyTexImage2D__wrapper
Qzg:__ZL62ArithmeticException_t4283546778_CustomAttributesCacheGeneratorP21CustomAttributesCache
pOd:__ZN5physx11PxHitBufferINS_12PxRaycastHitEED0Ev
Z_f:_FloatTween_TweenValue_m52237061
G4b:__Z18ClearByDrawingQuad13GfxClearFlagsRK10ColorRGBAffjR17ShaderPassContext
GCa:__ZN6prcoreL17RemapGenericFloatI14TexFormatRHalf15TexFormatRFloatEEvPKNS_9InnerInfoE
aUk:__Z69RuntimeInvoker_Color_t2555686324_Color_t2555686324_Single_t1397266774PFvvEPK10MethodInfoPvPS4_
Oeh:_NumberFormatter_FormatExponential_m2139559983
FNk:__Z155RuntimeInvoker_Void_t1185182177_RuntimeObject_SByte_t1669577662_SByte_t1669577662_Int64U26_t200113976_ObjectU26_t2146539884_SerializationInfoU26_t419328957PFvvEPK10MethodInfoPvPS4_
mza:__ZN15DirectorManager21RebuildStageCallbacksEv
Y4b:__ZN19RuntimeSceneManager9LoadSceneERKN4core12basic_stringIcNS0_20StringStorageDefaultIcEEEES6_S6_RK9UnityGUIDiNS_11LoadingModeE
Fmh:_Application_Internal_ApplicationQuit_m2936209313
oac:__ZN7ApiGLES10DrawArraysE16GfxPrimitiveTypejjj
zgi:_InternalEnumerator_1_MoveNext_m154749640_gshared
JVd:__ZN5physx3Cct13BoxController15getPxControllerEv
R9:__ZN10SampleClip13LoadBaseSoundEv
_Qd:__ZN5physx2Gu22gjkRelativePenetrationINS0_17ShrunkConvexHullVES2_EEjRKT_RKT0_RKNS_6shdfnd3aos15PsMatTransformVERKNSA_6FloatVERNSA_5Vec3VESI_SI_RSE_PhSK_Rh
p_:__ZN18StreamedBinaryReadILb0EE21TransferSTLStyleArrayI22OffsetPtrArrayTransferIN7mecanim8skeleton4NodeEEEEvRT_17TransferMetaFlags
w$i:_SmallXmlParser_SkipWhitespaces_m4243606597
pdj:_CompareInfo_IndexOf_m2631915198
MPb:__ZN14SafeBinaryRead21TransferSTLStyleArrayI13dynamic_arrayI10Matrix4x4fLj0EEEEvRT_17TransferMetaFlags
Nhg:_MethodCall__ctor_m3669645
o5i:_Byte_CompareTo_m4285128861
PTf:_TriggerEvent__ctor_m87299207
TRk:__Z48RuntimeInvoker_ExchangeAlgorithmType_t1320888206PFvvEPK10MethodInfoPvPS4_
xRf:__ZN9Scripting11UnityEngine12Experimental27Internal_SubsystemInstances12CleanupProxyEv
yHc:__ZNSt3__26__treeINS_12__value_typeIN4core12basic_stringIcNS2_20StringStorageDefaultIcEEEEiEENS_19__map_value_compareIS6_S7_NS_4lessIS6_EELb1EEENS_9allocatorIS7_EEE25__emplace_unique_key_argsIS6_JNS_4pairIS6_iEEEEENSG_INS_15__tree_iteratorIS7_PNS_11__tree_nodeIS7_PvEEiEEbEERKT_DpOT0_
lda:__Z57AudioSource_CUSTOM_INTERNAL_CALL_ClearExtensionPropertiesP12Il2CppObjectRK12PropertyName
hW:__ZN7mecanim9animation4Clip8TransferI19StreamedBinaryWriteILb0EEEEvRT_
QCm:__ZN15dense_hashtableINSt3__24pairIK10KeyWrapperIP12Il2CppObjectEN6il2cpp2gc9CachedCCWEEES5_NS7_5utils11PointerHashIS3_EEN14dense_hash_mapIS5_S9_SD_NS5_14EqualsComparerINS0_8equal_toIS4_EEEENS0_9allocatorISA_EEE9SelectKeyESI_SK_E15insert_noresizeERKSA_
RDd:__ZL17DrawMeshParticlesILb0EL25ParticleSystemRenderSpace3EEvRK26ParticleSystemTempMeshDataRK22ParticleSystemTempDataRK23ParticleSystemParticlesRK31ParticleSystemParticlesTempDataRK26ParticleSystemRendererDataRK21ParticleSystemModulesPfPv
W5e:__ZN5physx2Sc19ParticlePacketShapeC2ERNS0_17ParticleSystemSimEjPNS_16PxvParticleShapeE
E_j:_EqualityComparer_1__cctor_m3962593840_gshared
O8a:__ZN22DeviceMVPMatricesStateC2ER9GfxDevice
vud:__Z9UpdateTplIL27ParticleSystemCurveEvalMode1EEvRK11MinMaxCurveS3_S3_R23ParticleSystemParticlesjjRKN4math8float3x3ERKNS6_7_float4E
Ume:__ZN5physx9NpPhysics18createTriangleMeshERNS_13PxInputStreamE
jo:FUNCTION_TABLE_iiiiifiiiif
Hn:FUNCTION_TABLE_iifii
puh:_Logger_set_logEnabled_m1180597166
I9i:_Comparer_Compare_m3984347512
R1e:__ZN5physx2Cm12DelegateTaskINS_2Sc5SceneEXadL_ZNS3_14updateDynamicsEPNS_10PxBaseTaskEEEED0Ev
Mom:__ZN6il2cpp2vm10Reflection12HasAttributeEP9FieldInfoP11Il2CppClass
iKa:__ZN9Scripting11UnityEngine12Experimental9Rendering11CullResults9InitProxyEv
Ec:invoke_viiifi
RRc:__Z13RegisterClassI6SpriteEvPKc
cag:_MonoProperty_GetCustomAttributes_m3619796755
Hgm:__ZNSt3__214__split_bufferIP11Il2CppClassRNS_9allocatorIS2_EEEC2EjjS5_
eaf:__ZN5physx6shdfnd5ArrayIPNS_7PxActorENS0_19ReflectionAllocatorIS3_EEE8recreateEj
Sig:_MethodDictionary_System_Collections_IEnumerable_GetEnumerator_m4169036899
B$i:__ZN23InterfaceActionInvoker2IP8String_tP12Il2CppObjectE6InvokeEjP11Il2CppClassS3_S1_S3_
Vvk:_ReadOnlyCollection_1_System_Collections_Generic_IListU3CTU3E_get_Item_m3666607533_gshared
Ywl:_RIPEMD160Managed_JJJ_m4161373884
qeg:_CrossContextChannel__ctor_m3755842292
KYj:_DefaultComparer_Equals_m3257444875_gshared
Kf:_JS_Sound_SetPosition
G3a:__ZN19RenderBufferManager13GetTempBufferEii17DepthBufferFormat19RenderTextureFormatj22RenderTextureReadWrite14VRTextureUsagei23RenderTextureMemoryless
ssl:_Collection_1_System_Collections_IList_get_IsFixedSize_m4038894826_gshared
vcm:__ZL13GetSharedInstPK17Il2CppGenericInst
n$g:__ZL98PointerEventData_t3807901092_CustomAttributesCacheGenerator_PointerEventData_get_delta_m1062010255P21CustomAttributesCache
cZa:__Z27ConvertSubMeshesToTrianglesIjEvR13dynamic_arrayI7SubMeshLj0EERS0_IhLj0EE
V7l:__ZNK15dense_hashtableINSt3__24pairIK10KeyWrapperIPKcEP11Il2CppClassEES5_N6il2cpp5utils11StringUtils12StringHasherIS4_EEN14dense_hash_mapIS5_S8_SE_NS5_14EqualsComparerINSB_13VmStringUtils21CaseSensitiveComparerEEENS0_9allocatorIS9_EEE9SelectKeyESJ_SL_E3endEv
lJf:__ZN22BaseUnityConnectClient17SaveSessionValuesEv
Chi:_InternalEnumerator_1_get_Current_m476140818_gshared
lqe:__ZNK5physx7NpCloth14getNbParticlesEv
P2d:__ZN5physx2Sc10NPhaseCore24releaseShapeInstancePairEPNS0_19ShapeInstancePairLLEjj
Wjl:_List_1_Sort_m4240158523_gshared
uHh:_WaitForEndOfFrame__ctor_m1381314187
gsc:__Z24SetupActiveLightsContextR21ActiveLightingContextRK12ActiveLightsRK11CullResultsP14ShadowMapCacheRK10MinMaxAABB
GXf:_AnimationTriggers_set_disabledTrigger_m933056574
yKc:__Z38Sprite_CUSTOM_INTERNAL_get_textureRectP12Il2CppObjectP5RectTIfE
KU:__ZNSt3__26vectorIN13AnimationClip15QuaternionCurveE13stl_allocatorIS2_L18MemLabelIdentifier26ELi16EEE7reserveEj
Lgl:_List_1_Add_m238442097_gshared
OMc:__ZN9TextAsset7SetTextERKN4core12basic_stringIcNS0_20StringStorageDefaultIcEEEE
KTa:__ZN6Camera8TransferI24GenerateTypeTreeTransferEEvRT_
ZYl:__ZL25UnresolvedVirtualCall_230P12Il2CppObjectPK10MethodInfo
Qa:invoke_iiiiiiif
La:invoke_iiiiiiii
_7k:_Array_InternalArray__set_Item_TisByte_t1134296376_m3104140039_gshared
prd:__ZN14qsort_internal30FindAndMovePivotToLastPositionIPPKN9SubModule14SubEmitterDataEiPFbS4_S4_EEEvT_S8_T0_T1_
vUe:__ZN5physx21SapPostUpdateWorkTaskD0Ev
kBh:_Rect_ToString_m447614148
kBl:_PKCS12_GetBytes_m415958948
nJi:_Context_get_HandshakeState_m2425796590
Wjc:__ZN8Renderer17PendingAddToSceneEv
Nie:__ZN5physx7NpActor18releaseConstraintsERNS_12PxRigidActorE
S0d:__ZN5physx6shdfnd5ArrayINS_11PxDebugLineENS0_19ReflectionAllocatorIS2_EEE8recreateEj
z6m:b125
y6m:b124
B6m:b127
A6m:b126
D6m:b129
lLc:__Z52Register_UnityEngine_RectTransform_INTERNAL_get_rectv
Iye:__ZNK5physx22NpParticleBaseTemplateINS_16PxParticleSystemENS_16NpParticleSystemEE20getMaxMotionDistanceEv
tqa:__Z21PostprocessStacktracePKcRN4core12basic_stringIcNS1_20StringStorageDefaultIcEEEE
Euh:_ManagedStreamHelpers_ManagedStreamLength_m2930872960
XKc:__Z43RectTransform_CUSTOM_INTERNAL_get_anchorMinP12Il2CppObjectP13Vector2fIcall
AAe:__ZNK5physx14NpRigidDynamic25getContactReportThresholdEv
boj:_FileStreamAsyncResult_CBWrapper_m1670848754
$Nc:__Z47Register_UnityEngine_Camera_get_allCamerasCountv
Tue:__ZN5physx22NpParticleBaseTemplateINS_15PxParticleFluidENS_15NpParticleFluidEE16releaseParticlesEv
pE:__ZN16MecanimAnimation25RegisterIAnimationBindingEPKN5Unity4TypeEiP17IAnimationBinding
P1c:__ZNSt3__26vectorIj13stl_allocatorIjL18MemLabelIdentifier1ELi16EEE6assignIPKtEENS_9enable_ifIXaasr21__is_forward_iteratorIT_EE5valuesr16is_constructibleIjNS_15iterator_traitsIS9_E9referenceEEE5valueEvE4typeES9_S9_
NO:__ZN7mecanim9animation16EvaluateAvatarIKEPKNS0_14AvatarConstantEPKNS0_11AvatarInputEPNS0_12AvatarOutputEPNS0_12AvatarMemoryEPNS0_15AvatarWorkspaceEb
bL:__ZN26AnimatorControllerPlayable10GetIntegerEiRi
b4c:__Z12Base64EncodePKhjRN4core12basic_stringIcNS1_20StringStorageDefaultIcEEEEiRKS5_
nAc:__Z29StdTemplateConversionFunctionIsiEbPvR14SafeBinaryRead
y1e:__Z22updateIslandsToProcessRKN5physx2Cm10BitMapBaseINS_6shdfnd9AllocatorEEEPKjRKNS_11NodeManagerERS4_
gjc:__ZN12InputManager13InputEndFrameEv
Ufm:__ZNSt3__26__treeIP11Il2CppClassNS_4lessIS2_EENS_9allocatorIS2_EEE25__emplace_unique_key_argsIS2_JRKS2_EEENS_4pairINS_15__tree_iteratorIS2_PNS_11__tree_nodeIS2_PvEEiEEbEERKT_DpOT0_
bwh:_Object_get_name_m4211327027
lsm:__ZN6il2cpp2vm6Thread5SetupEP12Il2CppThread
RFm:__ZNSt3__26vectorIN6il2cpp2os10ThreadImpl10APCRequestENS_9allocatorIS4_EEE21__push_back_slow_pathIS4_EEvOT_
xMd:__ZN8Collider30GetRelativePositionAndRotationERK9TransformR10Matrix4x4f
aRe:__ZN5physx35PxcSweepEstimateAnyShapeHeightfieldERKNS_11PxsCCDShapeES2_PKNS_12PxsRigidBodyES5_RKNS_11PxTransformES8_f
sqk:_ReadOnlyCollection_1_System_Collections_IList_get_IsReadOnly_m1248651675_gshared
evi:_Enumerator_System_Collections_IDictionaryEnumerator_get_Key_m2500634048_gshared
d1d:__ZN5physx3Cct13BoxControllerC2ERKNS_16PxControllerDescERNS_9PxPhysicsEPNS_7PxSceneE
g4l:_NativeNameAttribute__ctor_m3296876808
i_l:_TextGenerator_t3211863866_marshal_pinvoke_back
oUm:___munmap
$Tj:_RSAManaged_get_PublicOnly_m595121416
Bg:_localtime_r
vkc:__ZN22RenderingCommandBuffer13GetAndCheckRTE24BuiltinRenderTextureTypeRKN9ShaderLab16FastPropertyNameEPKcPP13RenderTexture
qtd:__ZN14ParticleSystem13KillParticlesILb1EEEvRjbR24ParticleSystemUpdateDataR23ParticleSystemParticlesjPj
ndg:_InterfaceTypeAttribute__ctor_m3307583035
yki:_InternalEnumerator_1_System_Collections_IEnumerator_Reset_m3619766341_AdjustorThunk
GEd:__Z16UpdateSpritesTplIL27ParticleSystemCurveEvalMode3EEvfRK11MinMaxCurveS3_RK23ParticleSystemParticlesPf
Zla:__Z19free_alloc_internalPv10MemLabelId
bvg:__ZL56ReturnMessage_t1376985608_CustomAttributesCacheGeneratorP21CustomAttributesCache
O5l:__ZNSt3__26vectorIjNS_9allocatorIjEEE6resizeEj
SD:__ZN9Scripting11UnityEngine10Animations18PositionConstraint9InitProxyEv
Eg:_strftime
X3a:__ZN7Texture33SetStoredColorSpaceNoDirtyNoApplyE17TextureColorSpace
hcg:_ResourceSet__ctor_m3618395942
IAj:_Decimal_System_IConvertible_ToDouble_m3125524987_AdjustorThunk
gva:__ZN12FileAccessorD2Ev
NTa:__ZN10ColorRGBAf8TransferI18StreamedBinaryReadILb0EEEEvRT_
rZa:__ZN14VertexDataInfoC2Ev
BEm:__ZN6il2cpp2gc16GarbageCollector14CollectALittleEv
eQg:__ZL87Sprite_t280657092_CustomAttributesCacheGenerator_Sprite_INTERNAL_get_border_m3728071101P21CustomAttributesCache
T$c:__ZNK9HPlayable15GetPlayableTypeEv
v3k:__Z117RuntimeInvoker_Void_t1185182177_CustomAttributeTypedArgumentU5BU5DU26_t2503877664_Int32_t2950945753_Int32_t2950945753PFvvEPK10MethodInfoPvPS4_
WXb:__ZL17Transfer_GUIStyleI18StreamedBinaryReadILb1EELb1EEvRK29SerializationCommandArgumentsR31RuntimeSerializationCommandInfo
mtd:__ZNSt3__227__insertion_sort_incompleteIR31SortCollisionEventsByGameObjectP22ParticleCollisionEventEEbT0_S5_T_
mZh:_RectMask2D_IsRaycastLocationValid_m1652308696
woa:__ZNSt3__26__treeINS_12__value_typeIPKciEENS_19__map_value_compareIS3_S4_15compare_tstringIS3_ELb1EEENS_9allocatorIS4_EEE21__emplace_unique_implIJNS_4pairIPciEEEEENSD_INS_15__tree_iteratorIS4_PNS_11__tree_nodeIS4_PvEEiEEbEEDpOT_
ngm:__ZN6il2cpp6icalls8mscorlib6SystemL9IsPrivateEPK12PropertyInfo
tBl:_X501_ToString_m1148552872
Yoh:_Color__ctor_m2943235014_AdjustorThunk
gRe:__ZNK5physx18PxcConvexTriangles16getPolygonNormalEj
$Bh:_RectTransform_add_reapplyDrivenProperties_m1374850920
Hpa:__ZN9shadertag10InitializeEv
W$k:__Z69RuntimeInvoker_Void_t1185182177_Int32_t2950945753_Color32_t2600501292PFvvEPK10MethodInfoPvPS4_
ggf:__ZN5physx24NpPtrTableStorageManager8canReuseEjj
Cjf:__GLOBAL__sub_I_Modules_Terrain_Public_1_cpp
Beb:__ZN15QualitySettings14QualitySetting8TransferI24GenerateTypeTreeTransferEEvRT_
IPm:__ZN6il2cpp5utils6Memory11AlignedFreeEPv
IYl:__ZL25UnresolvedVirtualCall_213P12Il2CppObjectS0_aPK10MethodInfo
Dxm:__ZN6il2cpp6icalls8mscorlib6System13Globalization11CultureInfo25construct_datetime_formatEP17Il2CppCultureInfo
qFe:__ZN5physx2Sc27ConstraintProjectionManager33processConstraintForGroupBuildingEPNS0_13ConstraintSimERNS0_20ScratchAllocatorListIS3_Lj64EEE
VHi:_Context_get_ClientWriteKey_m3174706656
n_g:__ZL77ExecuteEvents_t3484638744_CustomAttributesCacheGenerator_U3CU3Ef__mgU24cache7P21CustomAttributesCache
FSh:_InputField_get_textComponent_m948764648
Ryf:__Z28Font_Get_Custom_PropMaterialP12Il2CppObject
KId:__ZL34CleanupModule_PerformanceReportingv
nwj:_Convert_ToSingle_m835189399
RJc:__ZN22BlockMemoryCacheWriter14LockCacheBlockEjPPhS1_
qbd:__ZNSt3__218__insertion_sort_3IRPFbPKN5IMGUI9GUIWindowES4_EPPS2_EEvT0_SA_T_
YOh:_CryptographicUnexpectedOperationException__ctor_m69881930
Gxe:__ZN5physx22NpParticleBaseTemplateINS_15PxParticleFluidENS_15NpParticleFluidEED2Ev
bsl:_Collection_1_SetItem_m1218178236_gshared
INl:_U3CUpdateCountdownBarU3Ec__Iterator0_System_Collections_IEnumerator_get_Current_m4096357917
uDe:__ZN5physx2Cm29ConstraintImmediateVisualizer19visualizeDoubleConeERKNS_11PxTransformEfb
JPg:__ZL60MovedFromAttribute_t481952341_CustomAttributesCacheGeneratorP21CustomAttributesCache
mD:__ZN9Scripting11UnityEngine21StateMachineBehaviour9InitProxyEv
_id:__Z22TransferField_NonArrayI8JSONRead27Converter_SimpleNativeClassI8GUIStyleEEvRK23StaticTransferFieldInfoR31RuntimeSerializationCommandInfoRT0_
sWd:__ZN5physx6shdfnd5ArrayINS_13PxExtendedBoxENS0_19ReflectionAllocatorIS2_EEE8recreateEj
SKa:__ZN9Scripting11UnityEngine26ExcludeFromPresetAttribute9InitProxyEv
_6d:__ZN5physx6shdfnd5ArrayIPvNS0_19ReflectionAllocatorINS_2Cm5BlockIS2_Lj16EEEEEE4copyINS0_15InlineAllocatorILj256ES7_EEEEvRKNS1_IS2_T_EE
jh:_llvm_eh_typeid_for
Lt:__ZN8FreeListI17OffMeshConnectionE4GrowEj
hVg:__ZL79Event_t2956885303_CustomAttributesCacheGenerator_Event_get_modifiers_m995073384P21CustomAttributesCache
g3m:_glGetUniformLocation__wrapper
NJh:_RemotingServices_FindInterfaceMethod_m2125212568
nM:__ZNK23AnimationPlayableOutput7GetTypeEv
YFe:__ZN5physx7NpScene19getActiveTransformsERjh
Xpj:_StreamWriter__cctor_m1229272693
F$c:__ZN13RendererScene38UpdatePreviousFrameDataForRendererTypeEii12RendererType
Q2d:__ZN5physx2Sc10NPhaseCore39pool_deleteParticleElementRbElementPairEPNS0_35ParticleElementRbElementInteractionEjj
MDj:_Enum_System_IConvertible_ToSByte_m779472798
WPe:__ZN5physx6shdfnd8internal8HashBaseIjjNS0_4HashIjEENS1_11HashSetBaseIjS4_NS0_9AllocatorELb0EE6GetKeyES6_Lb0EE6createERKjRb
vhi:_InternalEnumerator_1_MoveNext_m1543390728_gshared
l_b:__Z18Transfer_BlittableI18StreamedBinaryReadILb0EELb1E8Vector4fEvRK29SerializationCommandArgumentsR31RuntimeSerializationCommandInfo
BOb:__ZNSt3__26vectorI17ScriptingFieldPtr13stl_allocatorIS1_L18MemLabelIdentifier1ELi16EEE21__push_back_slow_pathIRKS1_EEvOT_
dgj:_SortKey_get_OriginalString_m1428586816
_$k:__Z51RuntimeInvoker_Void_t1185182177_Vector4_t3319028937PFvvEPK10MethodInfoPvPS4_
Vkf:__ZN14SafeBinaryRead21TransferSTLStyleArrayI13dynamic_arrayIN4core17string_with_labelILi35EEELj0EEEEvRT_17TransferMetaFlags
rXl:__ZL25UnresolvedVirtualCall_142P12Il2CppObject17Color_t2555686324faaaPK10MethodInfo
$Jk:__Z67RuntimeInvoker_Void_t1185182177_SByte_t1669577662_SByte_t1669577662PFvvEPK10MethodInfoPvPS4_
vYj:_Dictionary_2_U3CCopyToU3Em__0_m2023886030_gshared
o0k:__Z64RuntimeInvoker_Boolean_t97287965_RefEmitPermissionSet_t484390987PFvvEPK10MethodInfoPvPS4_
r5m:_glBindVertexArray__wrapper
Bcf:__ZN5physx6shdfnd5ArrayINS_11RTreeNodeNQENS0_19ReflectionAllocatorIS2_EEE19resizeUninitializedEj
cT:__ZN13dynamic_arrayIN11UnityEngine9Animation14GenericBindingELj0EE18resize_initializedEj12ResizePolicy
L3d:__ZNK5physx2Sc16InteractionScene18getLLIslandManagerEv
ILh:_SerializationInfo__ctor_m2923079689
e7a:__ZN8Material8TransferI14SafeBinaryReadEEvRT_
FQe:__ZN5physx17PxcNpMemBlockPool34acquireExceptionalConstraintMemoryEj
vbb:__ZN12CubemapArray17UploadToGfxDeviceEv
hZ:__ZN19StreamedBinaryWriteILb0EE21TransferSTLStyleArrayI22OffsetPtrArrayTransferI9OffsetPtrIN7mecanim9animation17BlendTreeConstantEEEEEvRT_17TransferMetaFlags
Syk:_Func_2__ctor_m1150804732_gshared
fij:_Int32_JumpOverWhite_m208298144
m8l:__ZN15dense_hashtableINSt3__24pairIK10KeyWrapperIP9FieldInfoEiEES5_N6il2cpp5utils11PointerHashIS3_EEN14dense_hash_mapIS5_iSB_NS5_14EqualsComparerINS0_8equal_toIS4_EEEENS0_9allocatorIS7_EEE9SelectKeyESG_SI_E4swapERSL_
RRe:__ZN5physxL23PxcSweepConvexTrianglesERKNS_11PxsCCDShapeES2_RKNS_11PxTransformES5_S5_S5_fRNS_6PxVec3ES7_RNS_10PxcNpCacheERNS_18PxcNpThreadContextERKNS_2Cm23FastVertex2ShapeScalingERNS_2Gu9TriangleVEf
qoe:__ZNK5physx7NpShape16getPlaneGeometryERNS_15PxPlaneGeometryE
T1k:__Z53RuntimeInvoker_Int32_t2950945753_UIVertex_t4057497605PFvvEPK10MethodInfoPvPS4_
h4m:_emscripten_glGetUniformiv__wrapper
yJm:__ZN6il2cpp2vm13ManagedObject14QueryInterfaceERK10Il2CppGuidPPv
AU:__ZNSt3__26vectorI24CompressedAnimationCurve13stl_allocatorIS1_L18MemLabelIdentifier26ELi16EEE6assignINS_11__wrap_iterIPS1_EEEENS_9enable_ifIXaasr21__is_forward_iteratorIT_EE5valuesr16is_constructibleIS1_NS_15iterator_traitsISB_E9referenceEEE5valueEvE4typeESB_SB_
Lcf:__ZN5physx27InternalTriangleMeshBuilder14fillRemapTableEv
f5:__ZN11AudioSource4StopEb
lbe:__ZN5physx6shdfnd8PoolBaseINS_13NpRigidStaticENS0_19ReflectionAllocatorIS2_EEE17releaseEmptySlabsEv
gOm:__ZN6il2cpp2os14WindowsRuntime13DeleteHStringEP15Il2CppHString__
CLb:__ZN18GlslGpuProgramGLESD2Ev
wyc:__ZN13RenderTexture14SetVolumeDepthEi
qhf:__ZThn116_NK5physx7profile8ZoneImplINS_28PxProfileNameProviderForwardEE10hasClientsEv
_Ze:__ZN5physx2Gu20pcmContactCapsuleBoxERKNS0_13GeometryUnionES3_RKNS_11PxTransformES6_RKfRNS0_5CacheERNS0_13ContactBufferE
USk:__Z86RuntimeInvoker_Void_t1185182177_UInt16_t2177724958_SByte_t1669577662_SByte_t1669577662PFvvEPK10MethodInfoPvPS4_
fIc:__Z22LoadGpuProgramFromDataPKhS0_Rj
Ejd:__ZN10Matrix4x4f8TransferI8JSONReadEEvRT_
LZb:__Z15Transfer_StringI18StreamedBinaryReadILb0EELb0EEvRK29SerializationCommandArgumentsR31RuntimeSerializationCommandInfo
YYh:_PositionAsUV1_ModifyMesh_m4231919476
Kaj:_Hashtable__ctor_m1941859523
Apc:__Z26FindForwardLightsForObjectR13dynamic_arrayIhLj0EEPK11CulledLightjRK12ActiveLightsRK10RenderNodePK19ShaderPropertySheetbRK23FindForwardLightsParamsf
UGa:__ZL44__ManagedRegistrationHelperFunction_GPUFencePv
S$h:_ScrollRect_set_horizontalScrollbarSpacing_m2209919081
rec:__ZN25TransformFeedbackSkinning31CleanupTransformFeedbackShadersEv
Ofk:_Type_GetTypeCodeInternal_m1968182887
rUa:__Z22scripting_object_unbox18ScriptingObjectPtr
Lcg:_CriticalFinalizerObject__ctor_m3245424448
Chg:_AsyncResult_get_NextSink_m1844209137
_lf:__ZNK20TextRenderingPrivate8FontImpl19GetCharacterAdvanceEjijfPj
cMj:_Array_InternalArray__ICollection_Add_TisUriScheme_t722425697_m3142345403_gshared
NSm:_fmt_u
Ebl:_Dictionary_2_Do_CopyTo_TisDictionaryEntry_t3123975638_TisDictionaryEntry_t3123975638_m1126292988_gshared
Dib:__ZN10VertexData8TransferI18StreamedBinaryReadILb0EEEEvRT_
$ae:__ZN5physx2Sc5Scene9addStaticERNS0_10StaticCoreEPKPvjj
PRm:__ZN6il2cpp8metadata25Il2CppGenericClassCompare7CompareEPK18Il2CppGenericClassS4_
Mch:_MonoType_get_Assembly_m4290914179
t_:__ZN6Avatar8TransferI19StreamedBinaryWriteILb0EEEEvRT_
QIc:__ZN9ShaderLab7ProgramC2E10MemLabelIdi10ShaderType
Hyc:__ZN14PreloadManager16UpdatePreloadingEv
tSa:__ZN12BaseRendererD2Ev
Z$a:__ZN14SafeBinaryRead21TransferSTLStyleArrayI19StaticArrayTransferIiLi4EEEEvRT_17TransferMetaFlags
NMc:__ZNSt3__26vectorI4PPtrI10MonoScriptE13stl_allocatorIS3_L18MemLabelIdentifier79ELi16EEE6insertENS_11__wrap_iterIPKS3_EERS9_
EMe:__ZN5physx2Sc5Scene9addShapesEPKPvjjRNS0_8RigidSimEPNS_12PxsRigidBodyERPNS0_8ShapeSimEPNS_9PxBounds3E
X8k:_Array_InternalArray__set_Item_TisUILineInfo_t4195266810_m2313892078_gshared
Qni:_InternalEnumerator_1_System_Collections_IEnumerator_Reset_m3355902602_AdjustorThunk
wyh:_PlayableAsset__ctor_m2395156306
N$g:__ZL79StandaloneInputModule_t2760469101_CustomAttributesCacheGenerator_m_SubmitButtonP21CustomAttributesCache
QYe:__ZN5physx23PxcPCMContactConvexMeshERKNS_2Gu13GeometryUnionES3_RKNS_11PxTransformES6_RKfRNS_10PxcNpCacheERNS0_13ContactBufferE
v2:__ZN15AudioMixerGroup8TransferI14SafeBinaryReadEEvRT_
TBc:__ZNK21UnityDefaultAllocatorI17LowLevelAllocatorE8ContainsEPKv
Eem:__ZNSt3__213__vector_baseI6pollfdNS_9allocatorIS1_EEED2Ev
uNh:_RuntimeTypeHandle_Equals_m2857439487
ti:_emscripten_get_main_loop_timing
Edg:_SafeHandle_Finalize_m3866180675
pWc:__ZN19SkinnedMeshRenderer22GetBonesPerVertexCountEv
Aeb:__ZN24GenerateTypeTreeTransfer21TransferSTLStyleArrayINSt3__26vectorIN15QualitySettings14QualitySettingENS1_9allocatorIS4_EEEEEEvRT_17TransferMetaFlags
Yz:__Z13RegisterClassI12NavMeshAgentEvPKc
Eoj:_MemoryStream_ToArray_m3911744835
Fui:_Enumerator_System_Collections_IDictionaryEnumerator_get_Entry_m859540448_AdjustorThunk
t_k:__Z72RuntimeInvoker_Boolean_t97287965_RaycastHitU26_t2429360258_RuntimeObjectPFvvEPK10MethodInfoPvPS4_
Kxc:__ZN23ManagedAttributeManager52CallManagedGetParentTypeDisallowingMultipleInclusionE17ScriptingClassPtr
kqb:__Z10AddGUIAxesR13dynamic_arrayI9InputAxisLj0EE
BRm:__ZN6il2cpp2os5Event4WaitEjb
Vfk:_Type_GetHashCode_m1947148725
bOk:__Z91RuntimeInvoker_Void_t1185182177_RuntimeObject_RuntimeObject_RuntimeObject_SByte_t1669577662PFvvEPK10MethodInfoPvPS4_
nyb:__ZNK2UI13RectTransform22GetTypeVirtualInternalEv
Rld:__ZNK15PolynomialCurve18EvaluateIntegratedERKN4math7_float4E
Uyi:__ZN28GenericInterfaceFuncInvoker2IP12Il2CppObjectS1_bE6InvokeEPK10MethodInfoS1_S1_b
dq:getTempRet0
xSi:_StrongName_get_Version_m4243032012
Nki:_InternalEnumerator_1_MoveNext_m2234422530_gshared
YAd:__ZN26SizeModulePropertyBindings13GetFloatValueERK14ParticleSystemi
Whm:__ZN6il2cpp2gc19AppendOnlyGCHashMapINSt3__24pairIPK14Il2CppAssemblyP11Il2CppClassEEP24Il2CppReflectionAssembly17ReflectionMapHashIS9_ENS2_8equal_toIS9_EEE10CopyValuesEPv
QSf:_BaseRaycaster_OnEnable_m2678466030
Urh:_UnityEventBase__ctor_m1851535676
abl:_Array_Sort_TisVector4_t3319028937_m2797285308_gshared
MKi:_HandshakeMessage_Update_m2417837686
Llk:_Collection_1_RemoveAt_m1496527686_gshared
NLg:__ZL58ProfilerEndFrame_t852348665_CustomAttributesCacheGeneratorP21CustomAttributesCache
y3l:_Physics_RaycastAll_m3796226007
hvm:__ZN6il2cpp6icalls8mscorlib6System9ThreadingL21lookup_cached_cultureEP12Il2CppThreadi
S8c:__Z40LineRenderer_CUSTOM_SetPosition_InjectedP12Il2CppObjectiRK8Vector3f
prh:_NetFxCoreExtensions_CreateDelegate_m751211712
QXl:__ZL25UnresolvedVirtualCall_167P12Il2CppObjectaPK10MethodInfo
dtc:__ZN18DeferredRenderLoopD2Ev
z0l:_AnimationLayerMixerPlayable__cctor_m4086299972
rNa:__ZNK16TypeTreeIterator4NameEv
tbl:_Array_swap_TisUICharInfo_t75501106_m3934244159_gshared
Tlg:__ZL40UIntPtr_t_CustomAttributesCacheGeneratorP21CustomAttributesCache
Gua:__ZN15FileSystemEntry3SetEPKc
U3e:__ZN5physx6shdfnd5ArrayIPNS_13PxcNpMemBlockENS0_19ReflectionAllocatorIS3_EEE6resizeEjRKS3_
IXf:_AspectRatioFitter_get_aspectMode_m3735191157
EAe:__ZN5physx14NpRigidDynamic8requiresERNS_23PxProcessPxBaseCallbackE
ypk:_ReadOnlyCollection_1_System_Collections_Generic_IListU3CTU3E_Insert_m568455025_gshared
f4:__ZN20SoundChannelInstance15ParameterBuffer5ApplyEPN4FMOD7ChannelE
o6h:_IPv6Address__ctor_m4117281080
Jvj:_Convert_ToInt64_m2075293963
Xlf:__ZN20TextRenderingPrivate19NativeTextGenerator9InsertTabEv
dXm:_sbrk
hud:__Z13DragUpdateTplIL27ParticleSystemCurveEvalMode2EEvRK11MinMaxCurvebbR23ParticleSystemParticlesjjRKN4math7_float4E
Hnh:_Bounds_GetHashCode_m1844059663
kul:_Collection_1_System_Collections_Generic_ICollectionU3CTU3E_get_IsReadOnly_m1032650589_gshared
S1:__ZL49__ManagedRegistrationHelperFunction_AudioSettingsPv
Ygf:__ZN5physx7profile8ZoneImplINS_28PxProfileNameProviderForwardEE21setProfileZoneManagerEPNS_20PxProfileZoneManagerE
LKf:__ZN11UnityEngine15PlatformWrapper24GetRuntimePlatformStringEv
dj:_glIsEnabled
Dxb:__ZN15CacheWriterBaseD2Ev
N_d:__ZN5physx3Cct17CapsuleController15setFootPositionERKNS_14PxExtendedVec3E
pTd:__ZN5physx2Gu33PCMCapsuleVsMeshContactGeneration13generateEEMTDERKNS_6shdfnd3aos5Vec3VES6_RKNS3_6FloatVES6_jS6_S6_PNS0_21MeshPersistentContactERj
Xhh:_DerivedType__ctor_m1853298054
yOb:__Z25scripting_class_get_image17ScriptingClassPtr
Hke:__ZN18MultiQueryCallbackIN5physx10PxSweepHitEED0Ev
pib:__ZN10SpriteBone8TransferI24GenerateTypeTreeTransferEEvRT_
mfl:_List_1_RemoveAt_m2730968292_gshared
Usb:__ZNSt3__26vectorIN4core12basic_stringIcNS1_20StringStorageDefaultIcEEEE13stl_allocatorIS5_L18MemLabelIdentifier13ELi16EEEC2INS_11__wrap_iterIPS5_EEEET_SE_RKS8_PNS_9enable_ifIXaasr21__is_forward_iteratorISE_EE5valuesr16is_constructibleIS5_NS_15iterator_traitsISE_E9referenceEEE5valueEvE4typeE
hj:_emscripten_glDrawElementsInstanced
ZK:__ZN26AnimatorControllerPlayable27SetupStateMachineBehavioursEv
aIj:_Array_InternalArray__IEnumerable_GetEnumerator_TisSlot_t3975888750_m1869932007_gshared
XIg:__ZL48Mathf_t3464937446_CustomAttributesCacheGeneratorP21CustomAttributesCache
EHg:__ZL79Camera_t4157153871_CustomAttributesCacheGenerator_Camera_RaycastTry_m3913529496P21CustomAttributesCache
kWh:_LayoutGroup_get_preferredWidth_m3816902260
c2a:__ZN18JobBatchDispatcherD2Ev
iyb:__ZN9Transform17MainThreadCleanupEv
lMm:_GC_clear_hdr_marks
XFd:__Z17UpdateSprites2TplIL27ParticleSystemCurveEvalMode1ELS0_4EEvfRK11MinMaxCurveS3_RK23ParticleSystemParticlesPf
Cof:_cff_fd_select_get
A4m:_emscripten_glTexParameteri__wrapper
_2h:_Text_set_resizeTextForBestFit_m4095249125
x8h:_OidEnumerator_MoveNext_m3138911739
B0k:__Z53RuntimeInvoker_Boolean_t97287965_Keyframe_t4206410242PFvvEPK10MethodInfoPvPS4_
sj:_emscripten_glGetShaderiv
sPl:_PlayerHealth_Start_m3292611012
y5:__ZN4FMOD6System10getVersionEPj
P4e:__ZN5physx2Sc7BodySim10sleepCheckEffb
CBf:__ZN2UI6Canvas23VirtualRedirectTransferER24GenerateTypeTreeTransfer
h1h:_Selectable_set_animationTriggers_m2970345687
Dlk:_Collection_1_CopyTo_m4271769704_gshared
oVc:__ZZN19SkinnedMeshRenderer15InitializeClassEvEN47PostLateUpdateUpdateAllSkinnedMeshesRegistrator7ForwardEv
ghd:__ZN9JSONWrite8TransferIN4math12int2_storageEEEvRT_PKc17TransferMetaFlags
Hkf:__ZN13TextRendering4Font13AwakeFromLoadE17AwakeFromLoadMode
vdj:_CompareInfo_LastIndexOf_m2688553706
ADj:_Enum__ctor_m3602080049
N5m:_emscripten_glCullFace__wrapper
Fum:__ZNSt3__213__vector_baseIN6il2cpp2vm22EmbeddedResourceRecordENS_9allocatorIS3_EEED2Ev
wGb:__ZN9GfxDevice21ReleaseSharedMeshDataEP14SharedMeshData
GVf:_MouseState__ctor_m1467839005
OIl:_Uri_IsDomainAddress_m2867513594
Vrb:__ZNSt3__27__sort5IRNS_6__lessINS_4pairIPKN5Unity4TypeE7Hash128EES8_EEPS8_EEjT0_SC_SC_SC_SC_T_
pAg:__ZL79Convert_t2465617642_CustomAttributesCacheGenerator_Convert_ToDouble_m2949593046P21CustomAttributesCache
G0f:_Dropdown_CreateItem_m2954407740
sLm:_GC_unreachable_finalize_mark_proc
fzh:_PlayerConnectionInternal_PollInternal_m3759016321
U9h:_X509Chain_ProcessCrlExtensions_m236234529
zg:___syscall192
QMm:_maybe_finalize
Z6l:__ZN6il2cpp2vm5Class40GetInterfaceInvokeDataFromVTableSlowPathEPK12Il2CppObjectPK11Il2CppClassj
p3g:__ZL85ScrollRect_t4137855814_CustomAttributesCacheGenerator_m_HorizontalScrollbarVisibilityP21CustomAttributesCache
mod:__ZN11ShapeModule18MultiModeParameterIN25IParticleSystemProperties8PropertyIfNS1_5ClampILi0ELi360EEEEEE8TransferI24GenerateTypeTreeTransferEEvRT_
_Kc:__Z43RectTransform_CUSTOM_INTERNAL_get_anchorMaxP12Il2CppObjectP13Vector2fIcall
vje:__ZN5physx14NpShapeManagerC2Ev
ZIh:_RealProxy_get_ObjectIdentity_m2790771985
uJh:_RemotingConfiguration_RegisterChannelTemplate_m3105688054
auj:_Decimal_Parse_m942471224
$Wa:__ZN8Material28UpdateHashesOnPropertyChangeEN9ShaderLab16FastPropertyNameE
ctl:_Collection_1_System_Collections_IList_get_Item_m1368877441_gshared
fCi:_Locale_GetText_m3520169047
MNc:__Z53Register_UnityEngine_SortingLayer_GetLayerValueFromIDv
ZDi:_ASN1_GetBytes_m1968380955
kMg:__ZL85RectOffset_t1369453676_CustomAttributesCacheGenerator_RectOffset_set_right_m807318764P21CustomAttributesCache
rNb:__Z18Transfer_BlittableI14SafeBinaryReadLb1E8Vector4fEvRK29SerializationCommandArgumentsR31RuntimeSerializationCommandInfo
tQf:__ZN13RuntimeStaticINSt3__26vectorI23UnityVRDeviceDefinition13stl_allocatorIS2_L18MemLabelIdentifier90ELi16EEEELb0EE13StaticDestroyEPv
d9:__ZN11AudioSource12AddToManagerEv
EF:__ZN8Animator23VirtualRedirectTransferER19StreamedBinaryWriteILb0EE
JM:__ZN11UnityEngine9Animation32CreateAnimatorGenericBindingsOptERKNS0_20AnimationSetBindingsER9TransformPKN7mecanim9animation14AvatarConstantEPKNS0_21AvatarBindingConstantEbRNS6_6memory9AllocatorER8Animator
Twk:_ReadOnlyCollection_1_get_Count_m3746330764_gshared
s8:__ZN18StreamedBinaryReadILb0EE21TransferSTLStyleArrayI22OffsetPtrArrayTransferIN5audio5mixer13GroupConstantEEEEvRT_17TransferMetaFlags
VXm:dynCall_vdddddd
nGc:__ZN24GenerateTypeTreeTransfer21TransferSTLStyleArrayINSt3__26vectorIN9ShaderLab14SerializedPassENS1_9allocatorIS4_EEEEEEvRT_17TransferMetaFlags
r7d:__ZN5physx6shdfnd8internal8HashBaseIPNS_2Sc13ConstraintSimES5_NS0_4HashIS5_EENS1_11HashSetBaseIS5_S7_NS0_9AllocatorELb1EE6GetKeyES9_Lb1EE6createERKS5_Rb
hqa:__ZL32MarkLevelGameManagerDependenciesR27GarbageCollectorThreadState
w9b:__ZNK13GfxDeviceGLES26HasActiveRandomWriteTargetEv
SWl:__ZL25UnresolvedVirtualCall_115P12Il2CppObjectsaaaPK10MethodInfo
gfe:__ZNK5physx15NpActorTemplateINS_18PxArticulationLinkEE7getNameEv
Ong:__ZL54_MemberInfo_t3922476713_CustomAttributesCacheGeneratorP21CustomAttributesCache
R0m:_glGetActiveUniformsiv__wrapper
s7a:__ZN14SafeBinaryRead8TransferINSt3__24pairIN9ShaderLab16FastPropertyNameE10ColorRGBAfEEEEvRT_PKc17TransferMetaFlags
WVd:__ZNK5physx3Cct10Controller16getInternalStateERNS_17PxControllerStateE
uZc:__Z17BuildSmoothCornerILb0EEvjRPhRKN4math8float4x4EPK15LineBuilderDataRKfSA_RK11ColorRGBA32
Csa:__ZN13MonoBehaviour19SetupScriptingCacheE17ScriptingClassPtrP10MonoScript
Xem:__ZNSt3__214__split_bufferIP12Il2CppThreadRNS_9allocatorIS2_EEED2Ev
SP:__Z20AnimationEventToMonoRK14AnimationEventR18MonoAnimationEvent
Ju:__ZN15SerializeTraitsI15NavMeshTileDataE8TransferI14SafeBinaryReadEEvRS0_RT_
JYc:__ZZN8Renderer15InitializeClassEvEN28FunctorImpl_145kLayerChanged4CallEPviR11MessageData
S_f:_FloatTween_set_targetValue_m3604919944_AdjustorThunk
f7i:_ArrayList_get_IsReadOnly_m913775115
uVf:_PointerEventData_get_dragging_m746831934
Ffk:_Type_get_TypeHandle_m160082026
ELe:__ZN5physx10PxsContext15setScratchBlockEPvj
vvk:_ReadOnlyCollection_1_System_Collections_IEnumerable_GetEnumerator_m2781605075_gshared
bKa:__ZN9Scripting11UnityEngine12Experimental9Rendering15ShadowSplitData12CleanupProxyEv
Yya:__ZZN15DirectorManager15InitializeClassEvEN52PreLateUpdateDirectorUpdateAnimationBeginRegistrator7ForwardEv
KEj:_Array_get_swapper_TisCustomAttributeNamedArgument_t287865710_m4254011335_gshared
K2f:_Graphic_RegisterDirtyMaterialCallback_m106898453
_Kl:_GUILayoutEntry_get_margin_m3174861737
VOa:__ZN4PPtrI6SpriteE8TransferI14SafeBinaryReadEEvRT_
V_j:_EqualityComparer_1_System_Collections_IEqualityComparer_Equals_m1672604045_gshared
lsl:_Collection_1_System_Collections_IList_Add_m2739652888_gshared
rtm:__ZN15dense_hashtableINSt3__24pairIK10KeyWrapperIP11Il2CppClassES4_EES5_N6il2cpp8metadata16SZArrayClassHashEN14dense_hash_mapIS5_S4_SA_NS5_14EqualsComparerINS9_19SZArrayClassCompareEEENS0_9allocatorIS7_EEE9SelectKeyESE_SG_E16reset_thresholdsEv
Ell:_List_1_GetEnumerator_m2095602005_gshared
p2d:__ZN5physx2Cm27getDynamicGlobalPoseAlignedERKNS_11PxTransformES3_S3_RS1_
wq:__ZN15NavMeshSettings13AwakeFromLoadE17AwakeFromLoadMode
czm:__ZNK15dense_hashtableINSt3__24pairIK10KeyWrapperINS1_IPKcS4_EEEiEES6_24NamespaceAndNamePairHashN14dense_hash_mapIS6_iS9_NS6_14EqualsComparerI26NamespaceAndNamePairEqualsEENS0_9allocatorIS8_EEE9SelectKeyESD_SF_E13find_positionERS7_
EFc:__ZNSt3__26vectorIN9ShaderLab14SerializedPassENS_9allocatorIS2_EEE8__appendEj
taf:__ZN5physx6shdfnd5ArrayIPvNS0_19ReflectionAllocatorIN17PxcPoolMallocData10PoolData32EEEE15growAndPushBackERKS2_
TEc:__ZNSt3__26vectorIN9ShaderLab20SerializedSubProgram13BufferBindingENS_9allocatorIS3_EEEC2INS_11__wrap_iterIPS3_EEEET_SB_RKS5_PNS_9enable_ifIXaasr21__is_forward_iteratorISB_EE5valuesr16is_constructibleIS3_NS_15iterator_traitsISB_E9referenceEEE5valueEvE4typeE
i6k:__Z37RuntimeInvoker_Enumerator_t3436819725PFvvEPK10MethodInfoPvPS4_
Vyh:_PlayableOutputHandle_op_Equality_m388301694
NWi:_Encoding_get_ISOLatin1_m2107621369
LWc:__ZZL23RegisterLightPropertiesR22GenericPropertyBindingEN20Wrapper_LightColorb213GetFloatValueEPv
mDi:_BigInteger_op_Inequality_m2697143438
YIg:__ZL89Mathf_t3464937446_CustomAttributesCacheGenerator_Mathf_SmoothDamp_m394423605____maxSpeed4P21CustomAttributesCache
Hzh:_Quaternion_LookRotation_Injected_m3680180073
Nlg:__ZL72IntPtr_t_CustomAttributesCacheGenerator_IntPtr_op_Inequality_m3063970704P21CustomAttributesCache
L2b:__ZNK25PathNamePersistentManager30PathIDToFileIdentifierInternalEi
Gdb:__ZN9Texture2D23VirtualRedirectTransferER18StreamedBinaryReadILb0EE
ayj:_DateTime_System_IConvertible_ToDouble_m2116720007_AdjustorThunk
x9i:_BitArrayEnumerator__ctor_m2359341397
e5j:_Enumerator_MoveNext_m1177880931_gshared
kri:_DefaultComparer__ctor_m3288720761_gshared
O8l:__ZN15dense_hashtableINSt3__24pairIK10KeyWrapperIPK19Il2CppGenericMethodEPK26Il2CppGenericMethodIndicesEES6_N6il2cpp8metadata23Il2CppGenericMethodHashEN14dense_hash_mapIS6_SA_SE_NS6_14EqualsComparerINSD_26Il2CppGenericMethodCompareEEENS0_9allocatorISB_EEE9SelectKeyESI_SK_E5clearEv
g1k:__Z102RuntimeInvoker_Int32_t2950945753_RuntimeObject_Vector2_t2156229523_Int32_t2950945753_Int32_t2950945753PFvvEPK10MethodInfoPvPS4_
Z7l:__ZN30dense_hashtable_const_iteratorINSt3__24pairIK10KeyWrapperIPKcEP11Il2CppClassEES5_N6il2cpp5utils11StringUtils12StringHasherIS4_EEN14dense_hash_mapIS5_S8_SE_NS5_14EqualsComparerINSB_13VmStringUtils21CaseSensitiveComparerEEENS0_9allocatorIS9_EEE9SelectKeyESJ_SL_E30advance_past_empty_and_deletedEv
OSg:__ZL73g_UnityEngine_TextRenderingModule_Assembly_CustomAttributesCacheGeneratorP21CustomAttributesCache
hta:__ZN16ScriptingManager27NativeTypeForScriptingClassE17ScriptingClassPtr
Eik:_UInt64_System_IConvertible_ToDateTime_m3434604642
Afk:_Type_get_IsSerializable_m1040556850
jtf:_get_sfnt_table
Y9k:_Array_Resize_TisUIVertex_t4057497605_m1219201596_gshared
Oqg:__ZL55StreamWriter_t1266378904_CustomAttributesCacheGeneratorP21CustomAttributesCache
oFl:_Parser_ResolveReferences_m1518052352
AUb:__Z29Transfer_Blittable_ArrayFieldI24GenerateTypeTreeTransferiEvRT_R9ArrayInfoRK23StaticTransferFieldInfo
iac:__ZThn10632_N13GfxDeviceGLES25SetStereoConstantPlatformEijRK8Vector4f
qfb:__ZN8Renderer20RendererAddedToSceneEv
Huc:__ZL22ScheduleSceneNodesJobsP25ScheduleSceneNodesJobDataj
jUe:__ZN5physx22concludeContactCoulombERKNS_23PxcSolverConstraintDescERNS_16PxcSolverContextE
kl:_emscripten_set_canvas_size
O1f:_Graphic_SetVerticesDirty_m2124914069
Cve:__ZNK5physx15NpParticleFluid12getStiffnessEv
ydj:_CultureInfo__ctor_m3285927757
$Xh:_MaskableGraphic_get_rootCanvasRect_m3492154629
dhd:__ZN9JSONWrite8TransferI13dynamic_arrayI11QuaternionfLj0EEEEvRT_PKc17TransferMetaFlags
WId:__ZN9Scripting11UnityEngine9Physics2D9InitProxyEv
T9k:_Array_Resize_TisRaycastResult_t3360306849_m1811054291_gshared
ZUc:__ZN12MeshRenderer27PrepareSingleRendererUpdateER13RendererSceneRS_10MemLabelId
fqk:_ReadOnlyCollection_1_System_Collections_Generic_ICollectionU3CTU3E_get_IsReadOnly_m3152485890_gshared
kFc:__ZNSt3__26vectorIN9ShaderLab20SerializedSubProgramENS_9allocatorIS2_EEE8__appendEj
kma:__ZN20DynamicHeapAllocatorI17LowLevelAllocatorE8AllocateEji
dHf:__ZN11UnityEngine9Analytics15UserCustomEvent12ToJsonStringER9JSONWrite
wMl:_Locale_GetText_m2427493201
Kmc:__ZN20DynamicPropertySheet15SetVectorQueuedERKN9ShaderLab16FastPropertyNameERK8Vector4fN19ShaderPropertySheet8SetFlagsE
YN:__ZN7mecanim9animation22EvaluateAvatarRetargetEPKNS0_14AvatarConstantEPKNS0_11AvatarInputEPNS0_12AvatarOutputEPNS0_12AvatarMemoryEPNS0_15AvatarWorkspaceEb
_ni:_InternalEnumerator_1_System_Collections_IEnumerator_Reset_m996811230_AdjustorThunk
V0a:__ZN14RenderSettings23VirtualRedirectTransferER19StreamedBinaryWriteILb0EE
bWg:__ZL59GUISkin_t1244372282_CustomAttributesCacheGenerator_m_windowP21CustomAttributesCache
Efd:__ZL26Transfer_SimpleNativeClassI9JSONWrite10RectOffsetLb0EEvRK29SerializationCommandArgumentsR31RuntimeSerializationCommandInfo
MLm:_GC_push_conditional
WGf:__ZN21UnityAnalyticsManager23VirtualRedirectTransferER24GenerateTypeTreeTransfer
hlb:__ZN17GenericDynamicVBO10AllocateVBEjR21DynamicVBOChunkHandle
HIi:_ClientContext_get_SslStream_m1583577309
oYe:__ZL27PxcTestFacesSepAxesBackfaceRKN5physx2Gu13PolygonalDataES3_RKNS_2Cm8Matrix34ES7_RKNS4_23FastVertex2ShapeScalingESA_S7_RKNS_6PxVec3ERfRSB_RjPjSG_fSD_
kAj:_DBNull_ToString_m3638608738
UAm:__ZN30dense_hashtable_const_iteratorI10KeyWrapperIP18Il2CppGenericClassES3_N6il2cpp8metadata22Il2CppGenericClassHashEN14dense_hash_setIS3_S6_NS3_14EqualsComparerINS5_25Il2CppGenericClassCompareEEENSt3__29allocatorIS3_EEE8IdentityESA_SD_EppEv
u9i:_BitArray_Clone_m3537018332
kLh:_ObjectRecord_UnchainFixup_m3191243952
rzl:_TlsStream_get_CanWrite_m16389328
REf:__Z15GetUIModuleSpecv
mWk:__Z65RuntimeInvoker_RuntimeObject_RuntimeObject_Vector3U26_t3464235976PFvvEPK10MethodInfoPvPS4_
tkf:__ZN9Scripting11UnityEngine8UIVertex9InitProxyEv
Jl:_glMapBufferRange
ydb:__ZN9Texture2D8TransferI18StreamedBinaryReadILb0EEEEvRT_
PQc:__Z31Input_CUSTOM_GetMouseButtonDowni
g0c:__ZN13PlayableGraph4PlayEv
Pqe:__ZNK5physx7NpCloth23getExternalAccelerationEv
Vyb:__ZNK9Transform16GetLocalPositionEv
nYi:_EncoderExceptionFallbackBuffer_get_Remaining_m1573636148
Pch:_MonoType_get_BaseType_m1098640416
aub:__ZN13LoadOperation19IntegrateTimeSlicedEi
Kzl:_TlsStream_Read_m3392972801
KEh:_TouchScreenKeyboard_get_status_m3936201565
JVe:__ZN5physx16PxsBroadPhaseMBP9updatePPUEPNS_10PxBaseTaskE
G9b:__ZN13GfxDeviceGLES22DispatchComputeProgramE12ObjectHandleI18ComputeProgram_TagPvE15ComputeBufferIDj
ahc:__ZN20DefaultGfxDeviceImpl32InitStereoGlobalsBuffersPlatformEiijPKv
b9j:_Latin1Encoding_GetString_m254210343
cwb:__Z17TransformAABBSlowRK4AABBRK10Matrix4x4fRS_
H2i:_Array_combsort_m4052486289
e6i:_Char_System_IConvertible_ToUInt16_m2449138174
v6:__ZN24AudioScriptBufferManager27InitialCompleteDomainReloadEv
Kfl:_List_1_System_Collections_ICollection_get_SyncRoot_m314215814_gshared
KDc:__ZN9ShaderLab21SerializedShaderState8TransferI14SafeBinaryReadEEvRT_
BEj:_Environment_GetWindowsFolderPath_m1738399646
pql:_Queue_1_System_Collections_Generic_IEnumerableU3CTU3E_GetEnumerator_m2263220760_gshared
Hnl:_List_1_Sort_m378918663_gshared
r9e:__ZN5physx2Gu13RTreeMidphaseC2Ev
f_j:_DefaultComparer_GetHashCode_m77036565_gshared
Cpf:_cf2_stack_pushInt
dR:__ZN7mecanim9animation20DestroyLayerConstantEPNS0_13LayerConstantERNS_6memory9AllocatorE
QN:__ZN8Animator19FireAnimationEventsERNS_11AnimatorJobE
Lxe:__ZN5physx6shdfnd8PoolBaseINS_16NpParticleSystemENS0_19ReflectionAllocatorIS2_EEE12allocateSlabEv
T7f:_Module_GetCustomAttributes_m76573271
QOh:_CryptoConfig_EncodeOID_m2635914623
V7a:__ZN15SerializeTraitsINSt3__24pairIN4core12basic_stringIcNS2_20StringStorageDefaultIcEEEES6_EEE8TransferI24GenerateTypeTreeTransferEEvRS7_RT_
D2m:b89
C2m:b88
s2m:b81
r2m:b80
Tec:__ZN7ApiGLES19CreateSparseTextureEjj14GraphicsFormatiiiiRiS1_S1_
Xta:__ZN18ResourceImageGroup7CleanupEv
z2m:b85
c5d:__ZN5physx2Gu36closestPtPointTetrahedronTesselationEPNS_6shdfnd3aos5Vec3VES4_S4_RjRS3_S6_
B2m:b87
aXi:_String_CharCopy_m3838781968
Zu:__ZN11Quaternionf8TransferI24GenerateTypeTreeTransferEEvRT_
DYe:__ZN5physx25PxcPCMContactSphereConvexERKNS_2Gu13GeometryUnionES3_RKNS_11PxTransformES6_RKfRNS_10PxcNpCacheERNS0_13ContactBufferE
Hjg:_RemotingSurrogateSelector_GetSurrogate_m3900875713
RSk:__Z69RuntimeInvoker_Boolean_t97287965_UInt16_t2177724958_Int16_t2552820387PFvvEPK10MethodInfoPvPS4_
f6e:__ZN5physx2Cm18DelegateFanoutTaskINS_2Sc5SceneEXadL_ZNS3_20particlePostShapeGenEPNS_10PxBaseTaskEEEED0Ev
Nsk:_ReadOnlyCollection_1_System_Collections_IList_get_IsReadOnly_m3626439112_gshared
UGi:_CertificateValidationCallback_Invoke_m1014111289
u3a:__ZN8Playable19SetOutputConnectionEPS_i
gnk:__ZN23InterfaceActionInvoker2Ii19Vector2_t2156229523E6InvokeEjP11Il2CppClassP12Il2CppObjectiS0_
KXa:__Z20RenderMultipleMeshesRK15RenderNodeQueueRK18RenderMultipleData16VertexInputMasks
xw:__ZN14SafeBinaryRead21TransferSTLStyleArrayINSt3__26vectorIN22NavMeshProjectSettings15NavMeshAreaDataENS1_9allocatorIS4_EEEEEEvRT_17TransferMetaFlags
xm:_glDeleteShader
c4:__ZN11SoundHandle8Instance15UpdateLoadStateEv
OCa:__ZN6prcoreL17RemapGenericFloatI15TexFormatRGHalf16TexFormatRGFloatEEvPKNS_9InnerInfoE
Nal:_Array_Sort_TisUICharInfo_t75501106_m128665067_gshared
Prf:_otv_GSUB_validate
vOi:_RSAPKCS1SignatureDeformatter_SetHashAlgorithm_m1602190713
EDj:_Enum_System_IConvertible_ToByte_m1219166845
Mle:__ZN5physx6shdfnd8PoolBaseINS_10NpMaterialENS0_19ReflectionAllocatorIS2_EEE15disposeElementsEv
vVj:_Dictionary_2_CopyToCheck_m45332585_gshared
lll:_List_1_System_Collections_ICollection_get_IsSynchronized_m3630704857_gshared
ihh:_ConstructorInfo__cctor_m1016079270
DEh:_Touch_get_type_m960232264_AdjustorThunk
BKf:__ZN11UnityEngine15PlatformWrapper20IsRootedOrJailbrokenEv
XIc:__Z27scripting_add_internal_callPKcPKv
jZk:__Z38RuntimeInvoker_ContentType_t1787303396PFvvEPK10MethodInfoPvPS4_
t0i:_AppDomain_Load_m4174353770
_Bm:__GLOBAL__sub_I_GarbageCollector_cpp
oXa:__Z17GetPlayerSettingsv
hXd:__ZL21ContactReductionAllInRN5physx2Gu13ContactBufferEjjRKNS_7PxMat33EPKNS_6PxVec3EPKh
CZl:__ZL25UnresolvedVirtualCall_261P12Il2CppObject19Vector3_t3722313464PK10MethodInfo
wO:__ZN34BlobWriteTransferSTLStyleArrayImplI22OffsetPtrArrayTransferIiEEclERS1_17TransferMetaFlagsR9BlobWrite
L8f:_MonoField_get_FieldHandle_m3729647377
Y9c:__ZN9Scripting11UnityEngine3GUI9InitProxyEv
p$h:_ScrollRect_get_content_m2477524320
Nui:_Enumerator_MoveNext_m1556953412_AdjustorThunk
_F:__ZN26AnimatorControllerPlayable18SetLayerAutoWeightEv
Yb:invoke_vffff
NHl:_Literal_GetAnchorInfo_m810577400
JKm:_GC_alloc_large
Mpd:__ZN20ExternalForcesModule8TransferI19StreamedBinaryWriteILb0EEEEvRT_
dGf:__ZN2UI14CanvasRenderer12SyncMaterialENS0_8SyncFlagE
gqj:_StreamWriter_Write_m1660535366
F2k:__Z66RuntimeInvoker_Void_t1185182177_Int32_t2950945753_Link_t3209266973PFvvEPK10MethodInfoPvPS4_
MPm:__ZN6il2cpp2vm9Parameter30GetDefaultParameterValueObjectEPK10MethodInfoPK13ParameterInfoPb
cbk:_UTF8Encoding_GetByteCount_m4152118078
Y6h:_ServicePoint_set_UseNagleAlgorithm_m1374731041
kTj:_KeyPairPersistence__CanSecure_m3516574278
MOk:__Z95RuntimeInvoker_Void_t1185182177_RuntimeObject_RuntimeObject_Int32_t2950945753_SByte_t1669577662PFvvEPK10MethodInfoPvPS4_
oRh:_MD5CryptoServiceProvider_Dispose_m3502499818
gml:_List_1_System_Collections_Generic_ICollectionU3CTU3E_get_IsReadOnly_m1454568134_gshared
Tfe:__ZN5physx19NpRigidBodyTemplateINS_18PxArticulationLinkEE16setRigidBodyFlagENS_15PxRigidBodyFlag4EnumEb
fvl:_Collection_1_System_Collections_IList_get_Item_m2422562729_gshared
iVk:__Z87RuntimeInvoker_Void_t1185182177_RuntimeObject_StringU26_t181565287_StringU26_t181565287PFvvEPK10MethodInfoPvPS4_
J1a:__ZN12LightManager28IsLightTransformDataUpToDateEPK5Light
cW:__ZN14AnimationEvent8TransferI19StreamedBinaryWriteILb0EEEEvRT_
bV:__ZN7mecanim9animation9DenseClip8TransferI24GenerateTypeTreeTransferEEvRT_
Jmg:__ZL74RuntimeArray_CustomAttributesCacheGenerator_Array_BinarySearch_m3171087170P21CustomAttributesCache
img:__ZL72Enum_t4135868527_CustomAttributesCacheGenerator_Enum_ToObject_m122225012P21CustomAttributesCache
Xtf:_UNITY_tt_face_done_kern
_Hi:_SecurityParameters_get_ServerWriteMAC_m3430427271
CWg:__ZL90GUIStyle_t3956901511_CustomAttributesCacheGenerator_GUIStyle_get_stretchHeight_m4172805773P21CustomAttributesCache
WZg:__ZL68g_UnityEngine_StandardEvents_Assembly_CustomAttributesCacheGeneratorP21CustomAttributesCache
qef:__Z13RegisterClassI15CapsuleColliderEvPKc
sfi:_ArrayReadOnlyList_1_RemoveAt_m2104218585_gshared
pwd:__Z25UpdateOrbitalAndRadialTplIL27ParticleSystemCurveEvalMode1ELS0_2ELS0_4EEvRK11MinMaxCurveS3_S3_S3_S3_S3_S3_R23ParticleSystemParticlesjjRKN4math8float3x3ERKNS6_7affineXERKNS6_7_float4E
tib:__ZN12BoneWeights48TransferI24GenerateTypeTreeTransferEEvRT_
rIj:_Array_InternalArray__IEnumerable_GetEnumerator_TisParameterModifier_t1461694466_m3675077728_gshared
SFa:__ZL49__ManagedRegistrationHelperFunction_PreLateUpdatePv
P2g:__ZL60RawImage_t3182918964_CustomAttributesCacheGenerator_m_UVRectP21CustomAttributesCache
Ink:__ZN21InterfaceFuncInvoker1I19Vector3_t3722313464iE6InvokeEjP11Il2CppClassP12Il2CppObjecti
B3b:__Z19scripting_gc_enablev
Ooi:_InternalEnumerator_1_get_Current_m2907722321_gshared
_hc:__ZZ23InitPlayerLoopCallbacksvEN41InitializationPlayerUpdateTimeRegistrator7ForwardEv
e4c:__ZN11UTF16StringC2ERKS_10MemLabelId
fif:__ZN5physx7profile11EventBufferINS_24PxDefaultContextProviderENS_6shdfnd6MutexTINS0_26WrapperReflectionAllocatorIhEEEENS0_14ScopedLockImplIS7_EENS_24PxProfileNullEventFilterEE9stopEventEty
Szc:__Z29StdTemplateConversionFunctionIihEbPvR14SafeBinaryRead
Zpi:_InternalEnumerator_1_get_Current_m3792939945_AdjustorThunk
oEf:__Z55Register_UnityEngine_CanvasRenderer_DisableRectClippingv
XD:__ZN9Scripting11UnityEngine10Animations16ConstraintSource12CleanupProxyEv
Mek:_TimeSpan_Subtract_m1264203589_AdjustorThunk
r7f:_MethodBase__ctor_m1907868998
t2g:__ZL118U3CCaretBlinkU3Ec__Iterator0_t2589889038_CustomAttributesCacheGenerator_U3CCaretBlinkU3Ec__Iterator0_Reset_m1547565867P21CustomAttributesCache
hHb:__ZN9GfxDevice22UploadTextureCubeArrayE9TextureIDPKhjii14GraphicsFormati18TextureUploadFlags
jji:_InternalEnumerator_1_System_Collections_IEnumerator_get_Current_m888718134_gshared
HKk:__Z175RuntimeInvoker_Void_t1185182177_SByte_t1669577662_SByte_t1669577662_SByte_t1669577662_SByte_t1669577662_SByte_t1669577662_SByte_t1669577662_SByte_t1669577662_SByte_t1669577662PFvvEPK10MethodInfoPvPS4_
pJj:_Array_compare_TisRaycastResult_t3360306849_m822404090_gshared
Vxh:_Object_Destroy_m3118546832
_ok:_ReadOnlyCollection_1_System_Collections_Generic_IListU3CTU3E_set_Item_m519295790_gshared
yyj:_DateTime_FromTicks_m4059645178_AdjustorThunk
Scl:_Array_InternalArray__get_Item_TisClientCertificateType_t1004704908_m2297379651_gshared
ufg:_ConfigHandler_ParseTime_m1787834288
ZHc:__ZN9ShaderLab7Program27CreateFromSerializedProgramERKNS_17SerializedProgramE10ShaderTypeiP16PropertyNamesSetPK6Shader
IGj:_Array_InternalArray__ICollection_Remove_TisX509ChainStatus_t133602714_m3635989134_gshared
ogh:_Assembly_Load_m3487507613
u1:__ZNSt3__27__sort4IRNS_6__lessIN4core12basic_stringIcNS2_20StringStorageDefaultIcEEEES6_EEPS6_EEjT0_SA_SA_SA_T_
uYm:dynCall_viiiifii
Imm:__ZN6il2cpp2gc19AppendOnlyGCHashMapINSt3__24pairIPK11Il2CppImageP11Il2CppClassEEP22Il2CppReflectionModule17ReflectionMapHashIS9_ENS2_8equal_toIS9_EEEC2Ev
nra:__Z20GetPersistentManagerv
fxf:_UNITY_TT_Set_Var_Design
IQi:_X509Certificate__ctor_m1008109281
Ina:__ZN21SystemInfoStringCache16StaticInitializeEPv
nAg:__ZL80Convert_t2465617642_CustomAttributesCacheGenerator_Convert_ToDecimal_m1695757674P21CustomAttributesCache
i1h:_Selectable_get_targetGraphic_m559777690
Rsl:_Collection_1__ctor_m3380123530_gshared
I3d:__ZN5physx2Sc7BodySim18internalWakeUpBaseEf
zpk:_ReadOnlyCollection_1_System_Collections_Generic_ICollectionU3CTU3E_Remove_m1100818788_gshared
fCm:__ZNK10KeyWrapperIP12Il2CppObjectE14EqualsComparerINSt3__28equal_toIS1_EEEclERKS2_S9_
NEc:__ZNSt3__26vectorIN9ShaderLab20SerializedSubProgram15StructParameterENS_9allocatorIS3_EEE6assignIPS3_EENS_9enable_ifIXaasr21__is_forward_iteratorIT_EE5valuesr16is_constructibleIS3_NS_15iterator_traitsISA_E9referenceEEE5valueEvE4typeESA_SA_
eah:_UnexceptionalStreamWriter_Write_m363195622
uIf:__ZN9Scripting11UnityEngine9Analytics21AnalyticsSessionState12CleanupProxyEv
a1b:__ZNK13MonoBehaviour7GetNameEv
wxf:_ft_var_load_item_variation_store
jxb:__ZN19ScriptingInvocation28AdjustArgumentsToMatchMethodEv
VEk:_IndexedSet_1_Contains_m1525966688_gshared
hr:__ZN12NavMeshAgent23VirtualRedirectTransferER17RemapPPtrTransfer
H3:__Z15_CheckFMODError11FMOD_RESULTPKciS1_
_vm:__ZN6il2cpp6icalls8mscorlib6SystemL16ThrowInvalidCastEPK11Il2CppClassS5_
p0j:_EqualityComparer_1_get_Default_m79107703_gshared
AQh:_HMAC_KeySetup_m661741544
TBg:__ZL61MonoEnumInfo_t3694469084_CustomAttributesCacheGenerator_cacheP21CustomAttributesCache
R8j:_Latin1Encoding__ctor_m498920120
TAf:__ZN2UI11CanvasGroup23VirtualRedirectTransferER17RemapPPtrTransfer
Npm:__ZN6il2cpp2vm4Type19GetGenericParameterEPK10Il2CppType
Jpj:_StreamReader_Peek_m2272511193
lqd:__ZN11ShapeModule5ResetEv
xDf:__Z51Register_UnityEngine_CanvasGroup_get_blocksRaycastsv
_Be:__ZN5physx20NpRigidActorTemplateINS_13PxRigidStaticEE15exportExtraDataERNS_22PxSerializationContextE
cuf:_tt_cmap14_char_var_index
Ckk:_Collection_1_System_Collections_IList_Add_m1403891193_gshared
N7e:__ZN5physx13BigConvexData5VLoadERNS_13PxInputStreamE
t_h:_Scrollbar_Set_m607000118
jgk:_Type_GetConstructor_m1195697116
Sd:_glBeginQuery
wJj:__ZN21InterfaceFuncInvoker2Ii19Vector2_t2156229523S0_E6InvokeEjP11Il2CppClassP12Il2CppObjectS0_S0_
$X:__ZN18AnimatorController19TransferRuntimeDataI24GenerateTypeTreeTransferEEvRT_
ONe:__ZN5physx11NodeManager6resizeEj
U_l:_Canvas_get_scaleFactor_m3314757802
Pjc:__ZN6Camera12RenderStereoENS_10RenderFlagE8CullFlagPNS_24PerformEyeRenderFunctionE
UAb:__ZN20LocalFileSystemPosix10ToAbsoluteEPKc
m$a:__ZN20TierGraphicsSettings8TransferI19StreamedBinaryWriteILb0EEEEvRT_
T4m:b111
iwb:__Z23CollectSceneGameObjectsR13dynamic_arrayIiLj0EE
KIm:__ZN6il2cpp2vm13ComObjectBase16DisconnectObjectEj
Lld:__ZN15PolynomialCurve10BuildCurveERK17AnimationCurveTplIfEf
S1j:_GenericComparer_1__ctor_m3652072706_gshared
cn:f0
$q:__ZN6Object17MainThreadCleanupEv
H_a:__Z32TransferEnumWithNameForceIntSizeI14SafeBinaryRead7HDRModeEvRT_RT0_PKc17TransferMetaFlags
NTm:_getcwd
KPa:__ZN25ThreadsafeLinearAllocatorD2Ev
P3c:__ZL50GetAndClearChangedTransformsForMultilpleSystemsJobP45GetChangedTransformsForMultipleSystemsJobDatajPK23TransformAccessReadOnlyPKyj
oPe:__ZN5physx2Sq10AABBPruner11preallocateEj
ivb:__Z21SendMessageToEveryoneRK17MessageIdentifier11MessageData
Axa:__ZN21BillboardBatchManager16StaticInitializeEPv
Ftj:_DateTime_AbsoluteDays_m4235097773
dpa:__ZN12_GLOBAL__N_138ArchiveRedirectFileSystemStaticDestroyEPv
zng:__ZL126U3CGetEnumeratorU3Ec__Iterator0_t1202911786_CustomAttributesCacheGenerator_U3CGetEnumeratorU3Ec__Iterator0_Dispose_m2078994225P21CustomAttributesCache
SFk:__Z74RuntimeInvoker_RuntimeObject_RuntimeObject_RuntimeObject_SByte_t1669577662PFvvEPK10MethodInfoPvPS4_
Jng:__ZL69Type_t_CustomAttributesCacheGenerator_Type_GetConstructor_m1195697116P21CustomAttributesCache
G$f:_DefaultControls_CreateScrollView_m3842770629
QId:__ZL55__ManagedRegistrationHelperFunction_PhysicsJobOptions2DPv
sbb:__ZN12CubemapArray34UpdateFileTextureUploadInstructionEP26FileAssetUploadInstructionj
NEe:__ZN5physx2Sc19ShapeInstancePairLLC2ERNS0_8ShapeSimES3_RNS0_9ActorPairENS_7PxFlagsINS_10PxPairFlag4EnumEtEE
Zqg:__ZL94EnumBuilder_t2400448213_CustomAttributesCacheGenerator_EnumBuilder_GetConstructors_m3294436155P21CustomAttributesCache
O3k:__Z55RuntimeInvoker_TableRange_t3332867892_Int32_t2950945753PFvvEPK10MethodInfoPvPS4_
bmi:_InternalEnumerator_1_MoveNext_m1020308708_gshared
Sec:__Z23CreateSparseTextureGLES9TextureIDii14GraphicsFormati
vsf:_otv_Anchor_validate
Sef:__ZN5physx19PxVisualDebuggerExt16createConnectionEPNS_8debugger4comm20PvdConnectionManagerEPKcNS_7PxFlagsINS_30PxVisualDebuggerConnectionFlag4EnumEjEE
a9i:_SynchronizedArrayListWrapper_CopyTo_m4207791406
eKa:__ZN9Scripting11UnityEngine12Experimental9Rendering21RenderPipelineManager9InitProxyEv
Kek:_TimeSpan_Negate_m1889505500_AdjustorThunk
ftk:_ReadOnlyCollection_1_System_Collections_ICollection_CopyTo_m2715087453_gshared
BYg:__ZL84Canvas_t3310196443_CustomAttributesCacheGenerator_Canvas_get_scaleFactor_m3314757802P21CustomAttributesCache
Vxi:_Transform_1__ctor_m2810088858_gshared
sEb:__ZN16MemoryFileSystemD0Ev
Zfe:__ZN5physx19NpRigidBodyTemplateINS_18PxArticulationLinkEE27setMaxDepenetrationVelocityEf
yte:__ZN5physx2Sc9ClothCore16setStretchConfigENS_22PxClothFabricPhaseType4EnumERKNS_20PxClothStretchConfigE
wRa:__ZN14SafeBinaryRead23IsVersionSmallerOrEqualEi
ELf:__ZN11UnityEngine7Connect20RemoteConfigSettings7SetJSONER8JSONReadb
Upd:__ZN9SubModule8TransferI19StreamedBinaryWriteILb0EEEEvRT_
cQl:_AnalyticsEventTracker_Awake_m2780522130
Wef:_PxCreateFoundation
Wcm:__ZN6il2cpp2vm13MetadataCache37GetParameterDefaultValueDataFromIndexEi
yu:__ZNSt3__213__vector_baseI14HeightMeshData13stl_allocatorIS1_L18MemLabelIdentifier77ELi16EEED2Ev
Tqm:_il2cpp_class_get_assemblyname
CPk:__Z50RuntimeInvoker_SByte_t1669577662_SByte_t1669577662PFvvEPK10MethodInfoPvPS4_
t2f:_Graphic_OnFillVBO_m1026749972
B5l:__ZN6il2cpp2vm5Class15GetEnumBaseTypeEP11Il2CppClass
fKi:_Context_set_WriteSequenceNumber_m942577065
we:_glVertexAttrib4fv
Rai:_X509CertificateEnumerator_Reset_m4026698923
eJm:__ZNK6il2cpp5utils13VmStringUtils23CaseInsensitiveComparerclERKNSt3__212basic_stringIcNS3_11char_traitsIcEENS3_9allocatorIcEEEEPKc
OYf:_CanvasScaler_SetScaleFactor_m3006968999
T5k:__Z78RuntimeInvoker_Boolean_t97287965_Navigation_t3049316579_Navigation_t3049316579PFvvEPK10MethodInfoPvPS4_
Tbb:__ZNK9Texture2D16GetNpotTexelSizeEv
Tdh:_NumberFormatter_Init_m3576155222
SBb:__ZL33FileEntryInfoListToFolderContentsRKN4core12basic_stringIcNS_20StringStorageDefaultIcEEEERK19dynamic_block_arrayI13FileEntryInfoLj32EERNSt3__23setIS3_NSB_4lessIS3_EENSB_9allocatorIS3_EEEE
kXh:_LayoutUtility_GetLayoutProperty_m714717302
Clm:__ZN24dense_hashtable_iteratorINSt3__24pairIK10KeyWrapperINS1_IPK12PropertyInfoP11Il2CppClassEEEjEES9_17ReflectionMapHashIS8_EN14dense_hash_mapIS9_jSD_NS9_14EqualsComparerINS0_8equal_toIS8_EEEENS0_9allocatorISB_EEE9SelectKeyESI_SK_E30advance_past_empty_and_deletedEv
Mjk:__ZN23InterfaceActionInvoker1IP39UnhandledExceptionEventArgs_t2886101344E6InvokeEjP11Il2CppClassP12Il2CppObjectS1_
YSf:_EventSystem_set_sendNavigationEvents_m983981895
Rud:__Z20EvaluateSlowThreadedRK11MinMaxCurveRNS_5CacheERKN4math7_float4ES7_
Pwj:__ZN21InterfaceFuncInvoker1ItP12Il2CppObjectE6InvokeEjP11Il2CppClassS1_S1_
jGb:__ZN9GfxDevice22GetDefaultVertexBufferE26GfxDefaultVertexBufferTypej
nFj:_Array_InternalArray__ICollection_Contains_TisInt64_t3736567304_m2911357929_gshared
I4b:__Z17BeginSplashScreenb
rvl:_Collection_1_Remove_m3022471627_gshared
cUm:___fseeko_unlocked
FKa:__ZN9Scripting11UnityEngine12Experimental9Playables21TexturePlayableOutput12CleanupProxyEv
sfh:_Object_ToString_m1740002499
WTm:_sscanf
AWi:_String_CreateString_m2329023138
W0d:__ZN5physx3Cct17CapsuleControllerC2ERKNS_16PxControllerDescERNS_9PxPhysicsEPNS_7PxSceneE
zmb:__ZN14SafeBinaryRead21TransferSTLStyleArrayINSt3__26vectorI17BlendShapeChannelNS1_9allocatorIS3_EEEEEEvRT_17TransferMetaFlags
X9k:_Array_Resize_TisUILineInfo_t4195266810_m3763058392_gshared
kOh:_SByte_ToString_m3584531119_AdjustorThunk
aHc:__ZN9ShaderLab16SerializedShader8TransferI19StreamedBinaryWriteILb0EEEEvRT_
lRl:_TrackableProperty_GetHashCode_m3407865350
OE:__ZN7mecanim9animation18CreateAvatarMemoryEPKNS0_14AvatarConstantERNS_6memory9AllocatorE
nvj:_Convert_ToInt32_m1876369743
MCi:_ModulusRing__ctor_m2420310199
Ktj:_Convert_ToDateTime_m626620011
FZj:_DefaultComparer__ctor_m3289136477_gshared
gvi:_Enumerator_System_Collections_IDictionaryEnumerator_get_Key_m2500634048_AdjustorThunk
aGd:__Z17UpdateSprites2TplIL27ParticleSystemCurveEvalMode2ELS0_4EEvfRK11MinMaxCurveS3_RK23ParticleSystemParticlesPf
gP:__ZN7mecanim8skeleton16SkeletonPoseCopyIN4math4trsXENS2_7affineXEEEvPKNS0_13SkeletonPoseTIT_EEPNS5_IT0_EE
DVb:__Z18Transfer_BlittableI19StreamedBinaryWriteILb0EELb0EaEvRK29SerializationCommandArgumentsR31RuntimeSerializationCommandInfo
C8j:_List_1_Remove_m3037048099_gshared
tcc:__ZN18GfxFramebufferGLES18GetFramebufferNameERK20GfxRenderTargetSetup
wIa:__ZN9Scripting11UnityEngine9Transform9InitProxyEv
d6h:_IPAddress__ctor_m921977496
yUh:_InputField_MoveDown_m1455948167
rad:__Z30Event_Get_Custom_PropCharacterP12Il2CppObject
iza:__ZN13PlayableGraph27SchedulePlayableDestructionERK9HPlayable
Grf:_cff_get_mm_var
qZd:__ZN5physx6shdfnd5ArrayINS_12PxDebugPointENS0_19ReflectionAllocatorIS2_EEE15growAndPushBackERKS2_
T$m:_glGetFramebufferAttachmentParameteriv__wrapper
neg:_ChannelServices_GetCurrentChannelInfo_m3041604116
sWc:__ZN13HandleManager16RegisterPodArrayEjPPhS0_S0_
npi:_InternalEnumerator_1__ctor_m2635640285_AdjustorThunk
vOb:__Z22scripting_array_length17ScriptingArrayPtr
d9g:_SynchronizedReader_Peek_m148942882
QFh:__ZN25GenericVirtActionInvoker2IP8String_tP19Action_1_t819399007E6InvokeEPK10MethodInfoP12Il2CppObjectS1_S3_
bNd:__ZN8Collider13AwakeFromLoadE17AwakeFromLoadMode
Kzk:_Predicate_1_Invoke_m2308795536_gshared
Cab:__ZN14SafeBinaryRead20TransferTypelessDataEjPvi
S_m:b34
vEm:__ZN15dense_hashtableINSt3__24pairIK10KeyWrapperIPcES3_EES4_N6il2cpp5utils15PassThroughHashIS3_EEN14dense_hash_mapIS4_S3_SA_NS4_14EqualsComparerINS0_8equal_toIS3_EEEENS0_9allocatorIS6_EEE9SelectKeyESF_SH_E3endEv
xyf:_Horizontal_Sweep_Init
dXa:__Z19GetActiveColorSpacev
dpd:__ZN17SizeBySpeedModule8TransferI18StreamedBinaryReadILb0EEEEvRT_
ytf:_UNITY_tt_face_load_kern
n8f:_MonoMethodInfo_GetDeclaringType_m2924452727
c6b:__ZN13sorted_vectorINSt3__24pairIiN17InstancingBatcher12PropertyTypeEEEN10vector_mapIiS3_NS0_4lessIiEE13stl_allocatorIS4_L18MemLabelIdentifier1ELi16EEE13value_compareESA_E21sort_clear_duplicatesEv
uoa:__Z6StrCmpPKcS0_
f$h:_Scrollbar_OnInitializePotentialDrag_m3588541308
PIc:__Z21CheckGpuProgramUsable20ShaderGpuProgramType
jUc:__ZN13ProduceHelperI14Texture2DArrayLb0EE7ProduceE10MemLabelId18ObjectCreationMode
uGm:__ZN6il2cpp2os9Directory20GetFileSystemEntriesERKNSt3__212basic_stringIcNS2_11char_traitsIcEENS2_9allocatorIcEEEESA_iiPi
t1i:_Array_System_Collections_IList_Add_m1063688101
lie:__ZN5physx6shdfnd5ArrayIPvNS0_19ReflectionAllocatorINS_2Cm5BlockIhLj128EEEEEE4copyINS0_15InlineAllocatorILj256ES7_EEEEvRKNS1_IS2_T_EE
Olf:__ZN20TextRenderingPrivate19NativeTextGenerator5SetupEv
Drc:__ZNK15SharedLightData24GetFinalShadowResolutionEv
REl:_PatternCompiler_EmitAlternationEnd_m2444359097
MQg:__ZL91GameObject_t1113636619_CustomAttributesCacheGenerator_GameObject_get_activeSelf_m1767405923P21CustomAttributesCache
Sle:__ZN5physx6shdfnd8PoolBaseINS_16NpConnectorArrayENS0_19ReflectionAllocatorIS2_EEE15disposeElementsEv
irb:__ZN12AspectRatios8TransferI18StreamedBinaryReadILb0EEEEvRT_
Ref:__ZN14PhysicsManager19CreatePvdConnectionEv
jKc:__ZN10GameObject14CopyPropertiesERS_
Vbd:__Z44Register_UnityEngine_GUIStyle_get_fixedWidthv
lGj:_Array_InternalArray__ICollection_Remove_TisLink_t544317964_m1280781374_gshared
SFm:__ZNSt3__214__split_bufferIN6il2cpp2os10ThreadImpl10APCRequestERNS_9allocatorIS4_EEEC2EjjS7_
L3i:_BitConverter_DoubleWordsAreSwapped_m1474345095
o8i:_FixedSizeArrayListWrapper_set_Capacity_m4221053039
xUm:_rand
v0m:_emscripten_glFramebufferRenderbuffer__wrapper
g2c:__ZN13MeshScripting10CreateMeshE21ScriptingObjectOfTypeI4MeshE
F2l:_ListPool_1__cctor_m3480273184_gshared
$ke:__ZNK5physx12NpConstraint9getActorsERPNS_12PxRigidActorES3_
ZUk:__Z56RuntimeInvoker_Void_t1185182177_PropertyName_t3749835189PFvvEPK10MethodInfoPvPS4_
DI:__ZN17AnimationPlayable22PrepareAnimationEventsEfR13dynamic_arrayI22AnimationClipEventInfoLj0EE
bUf:__ZN23InterfaceActionInvoker1IP25BaseEventData_t3903027533E6InvokeEjP11Il2CppClassP12Il2CppObjectS1_
uPb:__ZN14SafeBinaryRead21TransferSTLStyleArrayINSt3__26vectorI17AnimationCurveTplIfE13stl_allocatorIS4_L18MemLabelIdentifier1ELi16EEEEEEvRT_17TransferMetaFlags
T8i:_SynchronizedArrayListWrapper_Contains_m3809499313
wLi:_HandshakeMessage_Compare_m2214647946
naf:__ZN5physx6shdfnd8PoolBaseIN17PxcPoolMallocData10PoolData16ENS0_19ReflectionAllocatorIS3_EEE15disposeElementsEv
BKd:__ZN9Rigidbody23UpdateInterpolationNodeEv
Okm:__ZN15dense_hashtableINSt3__24pairIK10KeyWrapperINS1_IPK11Il2CppImageP11Il2CppClassEEEjEES9_17ReflectionMapHashIS8_EN14dense_hash_mapIS9_jSD_NS9_14EqualsComparerINS0_8equal_toIS8_EEEENS0_9allocatorISB_EEE9SelectKeyESI_SK_E12expand_arrayEjN21dense_hash_map_traits17integral_constantIbLb0EEE
EIb:__ZN9GfxDevice30ResolveComputeProgramResourcesE12ObjectHandleI18ComputeProgram_TagPvER19ComputeShaderKernelR13dynamic_arrayI15ComputeShaderCBLj0EERS6_I18ComputeShaderParamLj0EEb
OQh:_HMACSHA256__ctor_m346174875
hph:_Color_op_Multiply_m2887457390
upl:_List_1_Remove_m2092443302_gshared
auc:__Z22PrepareOptimizedPlanesPK5PlaneiPKN4math7_float4E
Yii:_InternalEnumerator_1__ctor_m1559487635_gshared
Vka:__ZN11UnityEngine15CloudWebService17WebFileDownloaderINS0_20WebRequestRestClientENS0_23WebRequestRestHeaderMapEE10InitializeERKN4core12basic_stringIcNS5_20StringStorageDefaultIcEEEE
yxa:__ZN17UniqueIDGenerator15CreatePureIndexEv
rSc:__Z48InitializeRectTransformAnimationBindingInterfacev
PFe:__ZN5physx7NpScene8addActorERNS_7PxActorE
Htb:__ZNSt3__26vectorIN15ResourceManager10DependencyE13stl_allocatorIS2_L18MemLabelIdentifier52ELi16EEE6assignINS_11__wrap_iterIPS2_EEEENS_9enable_ifIXaasr21__is_forward_iteratorIT_EE5valuesr16is_constructibleIS2_NS_15iterator_traitsISC_E9referenceEEE5valueEvE4typeESC_SC_
Q4l:__ZN15dense_hashtableINSt3__24pairIK10KeyWrapperIPK22Il2CppGenericParameterEP11Il2CppClassEES6_N6il2cpp5utils11PointerHashIS4_EEN14dense_hash_mapIS6_S9_SE_NS6_14EqualsComparerINS0_8equal_toIS5_EEEENS0_9allocatorISA_EEE9SelectKeyESJ_SL_E14squash_deletedEv
h6a:__ZN9ShaderLabL27GetDesiredRenderTextureDescEPK6Camera
bxg:__ZL131RSACryptoServiceProvider_t2683512874_CustomAttributesCacheGenerator_RSACryptoServiceProvider_t2683512874____PublicOnly_PropertyInfoP21CustomAttributesCache
z7k:_Array_InternalArray__Insert_TisMark_t3471605523_m2854535880_gshared
E1c:__ZN4Mesh24UpdateSubMeshVertexRangeEi
WWc:__ZZL23RegisterLightPropertiesR22GenericPropertyBindingEN18Wrapper_LightRange13SetFloatValueEPvf
YTg:__ZL52HumanBone_t2465339518_CustomAttributesCacheGeneratorP21CustomAttributesCache
ojg:_MethodReturnDictionary__cctor_m278392388
zlc:__ZNK9Transform18TransformDirectionERK8Vector3f
k6e:__ZN5physx21PxsBodyTransformVault6updateEv
CCb:__ZNK17ArchiveFileSystem12GetAssetGUIDERK13FileEntryData
o4g:__ZL80CanvasScaler_t2767979955_CustomAttributesCacheGenerator_m_ReferencePixelsPerUnitP21CustomAttributesCache
gsf:_otv_MarkLigPos_validate
SQj:_PrimalityTests_RabinMillerTest_m1471415870
NWd:__ZL29GeomMTDCallback_CapsuleConvexRN5physx6PxVec3ERfRKNS_10PxGeometryERKNS_11PxTransformES5_S8_
Lkh:_GenericTypeParameterBuilder_GetCustomAttributes_m580748276
CZc:__Z49InitializeLineParametersAnimationBindingInterfacev
zQl:_AnalyticsTracker_get_TP_m2800669040
Fbm:__ZN15dense_hashtableINSt3__24pairIK10KeyWrapperIPK11Il2CppClassEPKcEES6_N6il2cpp5utils11PointerHashIS3_EEN14dense_hash_mapIS6_S9_SE_NS6_14EqualsComparerINS0_8equal_toIS5_EEEENS0_9allocatorISA_EEE9SelectKeyESJ_SL_E12resize_deltaEjj
gWm:__ZNK10__cxxabiv120__si_class_type_info27has_unambiguous_public_baseEPNS_19__dynamic_cast_infoEPvi
Rw:__ZNSt3__26vectorIN22NavMeshProjectSettings15NavMeshAreaDataENS_9allocatorIS2_EEE8__appendEj
RCi:_Kernel_LeftShift_m4140742987
bgh:_Assembly_GetManifestResourceInternal_m1224391897
SXa:__Z30AddDefaultStreamsToMeshBuffersR9GfxDeviceR11MeshBuffersj17ShaderChannelMaskS3_
Goa:__ZL16GetInterfaceImpl18UnityInterfaceGUID
MU:__ZNSt3__26vectorIN13AnimationClip15QuaternionCurveE13stl_allocatorIS2_L18MemLabelIdentifier26ELi16EEE10deallocateEv
_2c:__Z15AngularDistanceRK11QuaternionfS1_
TIm:__ZN6il2cpp6icalls8mscorlib6System15MonoCustomAttrs27GetCustomAttributesInternalEP12Il2CppObjectP20Il2CppReflectionTypeb
knc:__ZN13dynamic_arrayI11CulledLightLj0EE6insertEPS0_PKS0_S4_
Cxf:_UNITY_TT_Set_MM_Blend
MVc:__ZN26SkinnedMeshRendererManager22InvalidatePreparationsER10GameObject
xxl:_InternalAsyncResult_get_FromWrite_m4228047810
QMk:__Z53RuntimeInvoker_MonoEventInfo_t346866618_RuntimeObjectPFvvEPK10MethodInfoPvPS4_
omk:_Collection_1_CopyTo_m955200729_gshared
eVd:__ZNK5physx3Cct13BoxController11getPositionEv
_4b:__ZN14PreloadManager35WaitForAllAsyncOperationsToCompleteEv
d7l:__ZN13Il2CppHashMapIP9FieldInfoiN6il2cpp5utils11PointerHashIS0_EENSt3__28equal_toIS1_EENS6_9allocatorINS6_4pairIK10KeyWrapperIS1_EiEEEEEC2EjRKS5_RKS8_
fze:__ZN5physx14NpRigidDynamicC2ERKNS_11PxTransformE
UYg:__ZL103UISystemProfilerApi_t2230074258_CustomAttributesCacheGenerator_UISystemProfilerApi_AddMarker_m495483138P21CustomAttributesCache
LOd:__Z27sweepCCTBox_HeightFieldGeomRKN5physx10PxGeometryERKNS_11PxTransformERKNS_2Gu3BoxERKNS_6PxVec3EfRNS_10PxSweepHitENS_7PxFlagsINS_9PxHitFlag4EnumEtEEf
xqa:__ZNK18ScriptingObjectPtr17ToScriptingStringEv
D3:__ZL31InitializeAudioScriptingClassesv
Ukc:__Z14SortGUIByDepthP10GUIElementS0_
OXi:_DecoderExceptionFallback_GetHashCode_m1820789965
psd:__Z19UpdateProceduralTplIL27ParticleSystemCurveEvalMode0EEvRK20DualMinMaxPolyCurvesR23ParticleSystemParticlesPfRKN4math7_float4E
yZb:__ZN18StreamedBinaryReadILb1EE21TransferSTLStyleArrayI13dynamic_arrayIhLj0EEEEvRT_17TransferMetaFlags
exh:_PlayerConnection_OnEnable_m4286555589
IRk:__Z69RuntimeInvoker_UInt32_t2560061978_Int32_t2950945753_SByte_t1669577662PFvvEPK10MethodInfoPvPS4_
_P:__ZN12_GLOBAL__N_120ProcessRootMotionMixER33AnimationPlayableEvaluationOutputR35AnimationPlayableEvaluationConstantR32AnimationPlayableEvaluationInputS1_f
xJl:_UriParser__cctor_m3655686731
vWd:__ZN5physx3Cct9SweepTest18updateTouchedGeomsEPKNS0_30InternalCBData_FindTouchedGeomERKNS0_13UserObstaclesERKNS_17PxExtendedBounds3ERKNS_19PxControllerFiltersERKNS_6PxVec3E
nuh:_LineRenderer_SetPosition_Injected_m293725056
aXh:_LayoutRebuilder_U3Cs_RebuildersU3Em__0_m589488547
Hif:_PxCloseExtensions
w5k:__Z53RuntimeInvoker_KeyValuePair_2_t71524366_RuntimeObjectPFvvEPK10MethodInfoPvPS4_
uBb:__ZNK20LocalFileSystemPosix21GetAvailableDiskSpaceEPKcRy
q1:__ZNSt3__26__treeIiNS_4lessIiEENS_9allocatorIiEEE7destroyEPNS_11__tree_nodeIiPvEE
uob:__Z15ApplyBlendShapeRK10BlendShapeRK13dynamic_arrayI16BlendShapeVertexLj0EEfRK12SkinMeshInfoPh
WFb:__ZNK9GfxDevice14GetWorldMatrixEv
gem:_RemoteConfigSettings_t1247263429_marshal_pinvoke
sFh:_Transform_set_parent_m786917804
oUl:_AudioSampleProvider_InternalSetScriptingPtr_m3742743270
a2h:_Slider_get_value_m739683640
Szb:__Z19scripting_array_new17ScriptingClassPtrjj
vvj:_Convert_ToInt32_m2128774575
uaa:__ZN11SoundHandle13CreateChannelEb
v2j:_GenericEqualityComparer_1_Equals_m1942949784_gshared
cdk:_WaitCallback_BeginInvoke_m3012509827
sFc:__ZNSt3__26vectorIN9ShaderLab20SerializedSubProgram16TextureParameterENS_9allocatorIS3_EEE6assignIPS3_EENS_9enable_ifIXaasr21__is_forward_iteratorIT_EE5valuesr16is_constructibleIS3_NS_15iterator_traitsISA_E9referenceEEE5valueEvE4typeESA_SA_
gam:__ZN13Il2CppHashMapIN6il2cpp5utils13dynamic_arrayIPK10Il2CppTypeLj4EEEPFvvENS0_8metadata19Il2CppSignatureHashENS9_22Il2CppSignatureCompareENSt3__29allocatorINSC_4pairIK10KeyWrapperIS6_ES8_EEEEEC2EjRKSA_RKSB_
vll:__ZN21InterfaceFuncInvoker0I22UILineInfo_t4195266810E6InvokeEjP11Il2CppClassP12Il2CppObject
aKk:__Z122RuntimeInvoker_Void_t1185182177_RuntimeObject_RuntimeObject_ContractionU5BU5DU26_t2277527001_Level2MapU5BU5DU26_t359320357PFvvEPK10MethodInfoPvPS4_
onm:__ZN15dense_hashtableINSt3__24pairIK10KeyWrapperIPK22Il2CppGenericParameterEPK24MonoGenericParameterInfoEES6_N6il2cpp5utils11PointerHashIS4_EEN14dense_hash_mapIS6_SA_SF_NS6_14EqualsComparerINS0_8equal_toIS5_EEEENS0_9allocatorISB_EEE9SelectKeyESK_SM_E15set_deleted_keyERKSB_
iOh:_SByte_TryParse_m2431806379
q8l:__ZNK15dense_hashtableINSt3__24pairIK10KeyWrapperIP9FieldInfoEiEES5_N6il2cpp5utils11PointerHashIS3_EEN14dense_hash_mapIS5_iSB_NS5_14EqualsComparerINS0_8equal_toIS4_EEEENS0_9allocatorIS7_EEE9SelectKeyESG_SI_E8min_sizeEjj
BCg:__ZL64ObjectDisposedException_t21392786_CustomAttributesCacheGeneratorP21CustomAttributesCache
t2a:__ZN6prcoreL11inner_clearILj2EEEvPhjjj
SMa:__ZN9Scripting5Unity11Collections8LowLevel6Unsafe24NativeContainerAttribute9InitProxyEv
MPh:_DSACryptoServiceProvider_get_KeySize_m786836990
eRk:__Z74RuntimeInvoker_RuntimeObject_RuntimeObject_SByte_t1669577662_RuntimeObjectPFvvEPK10MethodInfoPvPS4_
Cr:__ZNK14NavMeshManager25GetLoadedNavMeshDataCountEv
kte:__ZNK5physx2Sc9ClothCore20getNbCollisionPlanesEv
hh:_emscripten_exit_fullscreen
SAf:__ZN2UI11CanvasGroup23VirtualRedirectTransferER18StreamedBinaryReadILb0EE
aVe:__ZNK5physx23PxsBroadPhaseContextSap7getTypeEv
o8e:__ZNK5physx13GuMeshFactory17getNbHeightFieldsEv
b9k:_Array_qsort_TisBoolean_t97287965_TisBoolean_t97287965_m214793583_gshared
Q3j:_Enumerator_System_Collections_IEnumerator_Reset_m1564381721_gshared
$ef:__ZN14PhysicsManager19CreateDynamicsSceneEbb14BroadphaseType16ContactPairsModeRK4AABBi
xSc:__ZZL31RegisterRectTransformPropertiesR22GenericPropertyBindingEN39Wrapper_RectTransformAnchoredPositiony113GetFloatValueEPv
mfh:_Object_MemberwiseClone_m1474068832
bFm:__ZN6il2cpp6icalls8mscorlib6System6String19InternalAllocateStrEi
ekd:__Z29Transfer_Blittable_ArrayFieldI8JSONRead11QuaternionfEvRT_R9ArrayInfoRK23StaticTransferFieldInfo
b2i:_Array_SetValue_m282347242
CPe:__ZNK5physx2Gu12OBBAABBTestsILb1EEclENS_6shdfnd3aos5Vec3VES5_
_Nc:__Z45Register_UnityEngine_Camera_get_targetDisplayv
hZc:__ZNK24RendererAnimationBinding15GenerateBindingERKN4core12basic_stringIcNS0_20StringStorageDefaultIcEEEEbRN11UnityEngine9Animation14GenericBindingE
E6h:_IPv6Address__ctor_m3704187391
H1a:__Z15GetFlareManagerv
MOc:__ZN15ApplicationInfo24GetApplicationIdentifierEv
q1c:__ZN4Mesh15AppendTrianglesERNSt3__26vectorIj13stl_allocatorIjL18MemLabelIdentifier1ELi16EEEEjRK13dynamic_arrayI7SubMeshLj0EEPK14SharedMeshDatab
RVd:__ZN5physx3Cct9SweepTestD2Ev
SNa:__ZN9Behaviour8TransferI18StreamedBinaryReadILb0EEEEvRT_
SE:__ZN8Animator13GetAvatarRootEv
zZd:__ZN26IntersectAnyVsMeshCallbackILi0ELb0EED2Ev
ySm:___toread
P2b:__ZNSt3__26vectorI10vector_mapIiiNS_4lessIiEE13stl_allocatorINS_4pairIiiEEL18MemLabelIdentifier38ELi16EEES4_IS9_LS7_38ELi16EEE26__swap_out_circular_bufferERNS_14__split_bufferIS9_RSA_EE
nCi:_BigInteger_get_Rng_m3283260184
JWm:___cxa_is_pointer_type
_$:__ZN8Animator22ScriptingStringToCRC32ERK11ICallString
jDg:__ZL55EventHandler_t1348719766_CustomAttributesCacheGeneratorP21CustomAttributesCache
fVc:__ZN26SkinnedMeshRendererManager7CleanupEv
Tdc:__ZN4gles20DestroyRenderSurfaceEP7ApiGLESP17RenderSurfaceGLES
$cl:_Array_InternalArray__get_Item_TisKeyValuePair_2_t2530217319_m2886833132_gshared
qZb:__ZN18StreamedBinaryReadILb1EE21TransferSTLStyleArrayI13dynamic_arrayIN4math12int3_storageELj0EEEEvRT_17TransferMetaFlags
DFa:__ZL50__ManagedRegistrationHelperFunction_UnityEventBasePv
GPc:__Z34Transform_CUSTOM_SetAsFirstSiblingP12Il2CppObject
dim:__ZNK15dense_hashtableINSt3__24pairIK10KeyWrapperINS1_IPK14Il2CppAssemblyP11Il2CppClassEEEjEES9_17ReflectionMapHashIS8_EN14dense_hash_mapIS9_jSD_NS9_14EqualsComparerINS0_8equal_toIS8_EEEENS0_9allocatorISB_EEE9SelectKeyESI_SK_E10test_emptyEj
yYd:__ZN12_GLOBAL__N_141SphereMeshContactGenerationCallback_ScaleD0Ev
Qpd:__ZN21RotationBySpeedModule8TransferI19StreamedBinaryWriteILb0EEEEvRT_
V_d:__ZN5physx3Cct17CapsuleController16setContactOffsetEf
VJk:__Z63RuntimeInvoker_Void_t1185182177_RuntimeObject_SByte_t1669577662PFvvEPK10MethodInfoPvPS4_
cIg:__ZL57SetupCoroutine_t2062820429_CustomAttributesCacheGeneratorP21CustomAttributesCache
nUh:_InputField_Delete_m3471899192
CBg:__ZL79Convert_t2465617642_CustomAttributesCacheGenerator_Convert_ToUInt64_m1627266664P21CustomAttributesCache
jug:__ZL91UrlAttribute_t221584584_CustomAttributesCacheGenerator_UrlAttribute_IsContextOK_m1228378186P21CustomAttributesCache
gJh:_RemotingConfiguration_get_ProcessId_m2180277012
JYl:__ZL25UnresolvedVirtualCall_214P12Il2CppObjectS0_iPK10MethodInfo
rha:__ZN11UnityEngine15CloudWebService17SessionEventQueue14ParseEventDataERKN4core12basic_stringIcNS2_20StringStorageDefaultIcEEEE
Bke:__ZN12GeomQueryAnyIN5physx10PxSweepHitEE7geomHitERKNS0_2Sq17SceneQueryManagerERKNS0_15MultiQueryInputERKNS3_9ShapeDataERKNS0_10PxGeometryERKNS0_11PxTransformENS0_7PxFlagsINS0_9PxHitFlag4EnumEtEEjPS1_fbPNS0_9PxBounds3E
G7j:_List_1_Remove_m2605758101_gshared
mbc:__ZN13TranslateGLES4InitERK12GraphicsCaps16GfxDeviceLevelGL
H$b:__Z29Transfer_Blittable_ArrayFieldI18StreamedBinaryReadILb0EE10ColorRGBAfEvRT_R9ArrayInfoRK23StaticTransferFieldInfo
UXd:__ZN43CapsuleHeightfieldContactGenerationCallback7onEventEjPj
uNd:__ZThn4_N12MemoryStream4readEPvj
k4l:_NativeTypeAttribute_set_CodegenOptions_m3839252515
$_j:_EqualityComparer_1_get_Default_m180770000_gshared
Tjj:_Int64_System_IConvertible_ToUInt16_m848637338_AdjustorThunk
XHf:__Z32CustomEventData_CUSTOM_AddUInt32P12Il2CppObjectP12Il2CppStringj
C7g:__ZL66EnemySpawner_t2006493939_CustomAttributesCacheGenerator__spawnRateP21CustomAttributesCache
iKj:_Array_InternalArray__IndexOf_TisLink_t544317964_m455584088_gshared
_pl:_Enumerator_get_Current_m2282646120_AdjustorThunk
Vsk:_ReadOnlyCollection_1_IndexOf_m2539022912_gshared
iUj:_KeyGeneratedEventHandler__ctor_m1990062371
OCe:__ZN5physx6shdfnd8internal8HashBaseIPNS_13NpVolumeCacheES4_NS0_4HashIS4_EENS1_11HashSetBaseIS4_S6_NS0_9AllocatorELb0EE6GetKeyES8_Lb0EE15reserveInternalEj
w3g:__ZL66Selectable_t3250028441_CustomAttributesCacheGenerator_m_TransitionP21CustomAttributesCache
qQm:__ZN6il2cpp2os6Memory12AlignedAllocEjj
Dne:__ZN5physx6shdfnd8internal8HashBaseIPKNS_6PxBaseES5_NS0_4HashIS5_EENS1_11HashSetBaseIS5_S7_NS0_9AllocatorELb0EE6GetKeyES9_Lb0EE6createERKS5_Rb
Z3j:_Enumerator_get_Current_m2305210644_AdjustorThunk
ihd:__ZN9JSONWrite8TransferI13dynamic_arrayIN4math12int3_storageELj0EEEEvRT_PKc17TransferMetaFlags
HTe:__ZN5physx28solveFrictionCoulombPreBlockEPKNS_23PxcSolverConstraintDescEjRNS_16PxcSolverContextE
g3h:_Text_set_alignByGeometry_m3828822280
RJm:__ZN6il2cpp8metadataL7CompareEPK10Il2CppTypeS3_
tRb:__Z18Transfer_BlittableI17RemapPPtrTransferLb0E11ColorRGBA32EvRK29SerializationCommandArgumentsR31RuntimeSerializationCommandInfo
K3h:_HybridDictionary__ctor_m1681134385
cTa:__ZN21ScalableBufferManager11GetInstanceEv
YZb:__Z18Transfer_BlittableI18StreamedBinaryReadILb0EELb1E10ColorRGBAfEvRK29SerializationCommandArgumentsR31RuntimeSerializationCommandInfo
kbb:__ZN12CubemapArray23VirtualRedirectTransferER17RemapPPtrTransfer
Uek:_TimeSpan_op_LessThan_m1594498345
fMc:__ZL27GetComponentsImplementationILb0ELi0EEbR10GameObjectbRK17CompareParametersRK39GetComponentsImplementation_ReturnValue
clk:_Collection_1_set_Item_m2355850893_gshared
O1b:__ZN9Scripting36IsSystemCollectionsGenericDictionaryE17ScriptingClassPtr
ZDk:_UnityEvent_1_FindMethod_Impl_m322741469_gshared
Nug:__ZL92ConstructionCallDictionary_t686578562_CustomAttributesCacheGenerator_U3CU3Ef__switchU24map24P21CustomAttributesCache
lje:__ZN5physx12NpConstraint12actorDeletedEPNS_12PxRigidActorE
S3g:__ZL64Slider_t3903728902_CustomAttributesCacheGenerator_m_WholeNumbersP21CustomAttributesCache
KFh:_Enumerator_get_Current_m2591725252
Aua:__ZL16ReadTypeTreeImplILb0EEbR8TypeTreeRK16TypeTreeIteratorRPKhS6_i
Wdi:_Interval_Contains_m110351300_AdjustorThunk
ovj:_Convert_ToInt32_m3048308591
gF:__ZN25RuntimeAnimatorControllerD2Ev
w5g:__ZL77LayoutUtility_t2745813735_CustomAttributesCacheGenerator_U3CU3Ef__amU24cache6P21CustomAttributesCache
pZh:_RectMask2D_OnCanvasHierarchyChanged_m3195492255
Izj:_DateTimeOffset_Equals_m3030958070
Z1d:__ZN5physx2Sc8ShapeSim18reinsertBroadPhaseEv
k1a:__ZNK22BuiltinResourceManager21GetResourceInstanceIDEPKN5Unity4TypeERKN4core12basic_stringIcNS4_20StringStorageDefaultIcEEEE
I$b:__ZN18StreamedBinaryReadILb0EE21TransferSTLStyleArrayI13dynamic_arrayI10ColorRGBAfLj0EEEEvRT_17TransferMetaFlags
ANc:__Z42Register_UnityEngine_RectOffset_set_bottomv
DQl:_AnalyticsTracker_BuildParameters_m43920649
VYl:__ZL25UnresolvedVirtualCall_226P12Il2CppObject23SpriteState_t1362986479PK10MethodInfo
Dbd:__Z28GUIStyleState_CUSTOM_CleanupP12Il2CppObject
vej:_DateTimeFormatInfo_GetMonthName_m2034512315
Zmc:__ZN28LightProbeProxyVolumeContext8CopyFromERKS_
Gtk:_ReadOnlyCollection_1_System_Collections_Generic_IListU3CTU3E_Insert_m2489506856_gshared
jSa:__ZN23TransformChangeDispatch32QueueTransformChangeIfHasChangedER18TransformHierarchy
KOj:_SimpleCollator_ToDashTypeValue_m6184468
NXk:__Z105RuntimeInvoker_RuntimeObject_Vector3_t3722313464_Vector3_t3722313464_Single_t1397266774_Int32_t2950945753PFvvEPK10MethodInfoPvPS4_
Udc:__ZN7ApiGLES18DeleteRenderbufferERj
H5d:__ZN5physx6shdfnd5ArrayIPvNS0_15InlineAllocatorILj256ENS0_19ReflectionAllocatorINS_16NpConnectorArrayEEEEEE15growAndPushBackERKS2_
ddc:__ZL23ProgramUniformMatrix4fvPK7ApiGLESjiihPKv
f7b:__ZN7ApiGLES13CreateTextureEjj14GraphicsFormatiiiii
M2i:_Array_new_gap_m262136975
oXe:__ZN5physx14SingleAABBTaskC2Ev
_Ec:__ZN9ShaderLab20SerializedSubProgram15MatrixParameter8TransferI14SafeBinaryReadEEvRT_
Tfb:__ZN4core8hash_mapIiN28ReflectionProbeAnchorManager16CachedAnchorDataENS_4hashIiEENSt3__28equal_toIiEEEixERKi
hDf:__Z46Register_UnityEngine_Canvas_set_sortingLayerIDv
hMc:__ZL27GetComponentsImplementationILb0ELi1EEbR10GameObjectbRK17CompareParametersRK39GetComponentsImplementation_ReturnValue
Z9h:_X509Store__ctor_m275383717
ZEh:_Transform_INTERNAL_get_position_m1310184257
HAc:__Z29StdTemplateConversionFunctionIatEbPvR14SafeBinaryRead
$cm:__ZN6il2cpp2vm13MetadataCache40AddThreadLocalStaticOffsetForFieldLockedEP9FieldInfoiRKNS_2os12FastAutoLockE
Ucf:__ZN5physx12storeIndicesEjjPKjRNS_14PxOutputStreamEb
CUa:__ZN13RenderTexture7ReleaseEv
Dhd:__Z18Transfer_BlittableI8JSONReadLb1EN4math12int3_storageEEvRK29SerializationCommandArgumentsR31RuntimeSerializationCommandInfo
ulb:__ZN10MeshFilter23VirtualRedirectTransferER14SafeBinaryRead
X4g:__ZL64LayoutGroup_t2436138090_CustomAttributesCacheGenerator_m_PaddingP21CustomAttributesCache
N7h:_AsnEncodedData_get_Oid_m402887164
tpb:__ZN12MeshRenderer17MainThreadCleanupEv
vZc:__Z8BuildCapILb0EEvjRPhRKN4math8float4x4EPK15LineBuilderDataRKfRKNS2_7_float4ERK11ColorRGBA32SA_bRKNS2_7_float2E
F5l:__ZN6il2cpp2vmL10InitLockedEP11Il2CppClassRKNS_2os12FastAutoLockE
CQc:__Z36AsyncOperation_Get_Custom_PropIsDoneP12Il2CppObject
FKb:__ZN22CreateGpuProgramOutput12CreateParamsEv
L4:__ZN10ObjectPoolIN4FMOD7ChannelENS0_8ChannelIEE7GetFreeEi
us:__Z23ReplacePathStartReverseR13dynamic_arrayIyLj0EEPKyi
dD:__ZL62__ManagedRegistrationHelperFunction_AnimatorOverrideControllerPv
Stk:_ReadOnlyCollection_1_System_Collections_IList_Insert_m177536056_gshared
$0f:_FontData_get_font_m2720086288
cge:__ZNK5physx18NpArticulationLink11getChildrenEPPNS_18PxArticulationLinkEj
Nji:_InternalEnumerator_1_System_Collections_IEnumerator_get_Current_m548105685_gshared
dbc:__ZNK14GfxContextGLES13GetDefaultFBOEv
F3k:__Z99RuntimeInvoker_Void_t1185182177_UILineInfoU5BU5DU26_t2468919161_Int32_t2950945753_Int32_t2950945753PFvvEPK10MethodInfoPvPS4_
N4i:_Byte_System_IConvertible_ToType_m2251112646
Ww:__ZN22NavMeshProjectSettings8TransferI18StreamedBinaryReadILb0EEEEvRT_
F6c:__Z55Register_UnityEngine_MonoBehaviour_StopCoroutineManagedv
vZk:__Z81RuntimeInvoker_Char_t3634460470_RuntimeObject_Int32_t2950945753_Int16_t2552820387PFvvEPK10MethodInfoPvPS4_
gdd:__GLOBAL__sub_I_artifacts_WebGL_codegenerator_0_cpp_3254
J3e:__Z15atomIntegrationfPKPN5physx11PxsBodyCoreEPKPNS_12PxsRigidBodyEjPKNS_2Cm13SpatialVectorEPNS_13PxcSolverBodyEPNS_17PxcSolverBodyDataEPS9_RjSH_
Cyj:_DateTime_get_Hour_m4153505178_AdjustorThunk
m4b:__ZN14GraphicsHelper5ClearE13GfxClearFlagsRK10ColorRGBAffjR17ShaderPassContext
$Ri:_Evidence_Equals_m1478353107
gDl:_CostDelegate__ctor_m4027655829
TBe:__ZN5physx13NpRigidStatic11createShapeERKNS_10PxGeometryEPKPNS_10PxMaterialEtNS_7PxFlagsINS_11PxShapeFlag4EnumEhEE
S0c:__Z13GetImagePixelI10ColorRGBAfET_PKhii13TextureFormat15TextureWrapModeS5_ii
yjl:_List_1_System_Collections_IList_set_Item_m1842844683_gshared
O2l:_ObjectPool_1__ctor_m2535233435_gshared
FEk:_EventFunction_1__ctor_m4292798223_gshared
rsm:__ZN6il2cpp2vm6Thread49CheckCurrentThreadForInterruptAndThrowIfNecessaryEv
Vsj:_Convert_ToChar_m3757390865
xXa:__ZNSt3__23mapIN9ShaderLab16FastPropertyNameEN18UnityPropertySheet11UnityTexEnvENS_4lessIS2_EENS_9allocatorINS_4pairIKS2_S4_EEEEEixERS9_
g7b:__ZNK13TranslateGLES25GetTextureTargetDimensionEj
Rfh:_RankException__ctor_m3453633632
J9d:__ZN5physx11NpAggregate22removeActorAndReinsertERNS_7PxActorEb
L3k:__Z96RuntimeInvoker_Void_t1185182177_Vector3U5BU5DU26_t3038522815_Int32_t2950945753_Int32_t2950945753PFvvEPK10MethodInfoPvPS4_
Tqk:_ReadOnlyCollection_1_System_Collections_IList_Remove_m1842121503_gshared
fbf:__ZZL19ExtractHullPolygonsRjRN5physx2Gu9ContainerERKNS0_17ConvexHullBuilderEPS2_S3_EN5Local9FloodFillES3_PKNS0_11AdjTriangleEjPb
Amj:_File_OpenRead_m2936789020
WIg:__ZL110Quaternion_t2301928331_CustomAttributesCacheGenerator_Quaternion_LookRotation_Injected_m3680180073____upwards1P21CustomAttributesCache
oqa:__ZN9Scripting12LogExceptionE21ScriptingExceptionPtriPKcb
JVk:__Z94RuntimeInvoker_Void_t1185182177_RuntimeObject_PlayableGraph_t3515989261_RuntimeObject_IntPtr_tPFvvEPK10MethodInfoPvPS4_
ij:_emscripten_glVertexAttrib4f
sQb:__ZN14SafeBinaryRead21TransferSTLStyleArrayI13dynamic_arrayIN4math12int3_storageELj0EEEEvRT_17TransferMetaFlags
kqi:_InternalEnumerator_1_System_Collections_IEnumerator_Reset_m4072625129_AdjustorThunk
mIc:__ZNSt3__26vectorIN20GpuProgramParameters14ConstantBufferENS_9allocatorIS2_EEE8__appendEj
Hai:_X509CertificateCollection_AddRange_m3683116910
Omi:_InternalEnumerator_1_Dispose_m1837758743_AdjustorThunk
i2l:_CustomEventData_t317522481_marshal_pinvoke_cleanup
Go:FUNCTION_TABLE_vf
Peg:_SinkProviderData__ctor_m1624738837
soc:__ZN11HaloManager21ReleaseGeometryJobMemEP25DynamicVBOGeometryJobData
pmj:_DirectoryNotFoundException__ctor_m1689636868
RYk:__Z88RuntimeInvoker_RuntimeObject_RuntimeObject_SByte_t1669577662_RuntimeObject_RuntimeObjectPFvvEPK10MethodInfoPvPS4_
rce:__ZN5physx14NpArticulation26setMaxProjectionIterationsEj
l0d:__ZN5physx3Cct15ObstacleContext14removeObstacleEj
mrk:_ReadOnlyCollection_1_System_Collections_Generic_IListU3CTU3E_get_Item_m978644313_gshared
zmk:_Collection_1_get_Item_m2253972692_gshared
n5f:_RefEmitPermissionSet_t484390987_marshal_pinvoke_cleanup
zhh:_CustomAttributeTypedArgument_Equals_m2261980307
DK:__ZN7mecanim12statemachine24CreateStateMachineMemoryEPKNS0_20StateMachineConstantERNS_6memory9AllocatorE
QHb:__ZN9GfxDevice18SetGlobalDepthBiasEff
mfm:__ZN6il2cpp6icalls8mscorlib6System8MonoType12get_AssemblyEP20Il2CppReflectionType
loj:_IsolatedStorageException__ctor_m3386787868
wnd:__ZN4PPtrI12MeshRendererE8TransferI14SafeBinaryReadEEvRT_
tZc:__Z16BuildLineSegmentILb0EEvjRPhRKN4math8float4x4EPK15LineBuilderDataRKfSA_11ColorRGBA32
pXe:__ZN5physx20SingleAABBUpdateTaskD0Ev
fdi:_RepeatContext_get_Start_m1076992038
owk:_ReadOnlyCollection_1_IndexOf_m3669095250_gshared
wj:_emscripten_glGetPointerv
sze:__ZNK5physx15NpActorTemplateINS_14PxRigidDynamicEE13getActorFlagsEv
h5f:_PropertyBuilder_SetValue_m3164486317
Rbl:_Dictionary_2_Do_CopyTo_TisKeyValuePair_2_t3842366416_TisRuntimeObject_m1564656153_gshared
JP:__ZN8Animator22ApplyBuiltinRootMotionEv
oQc:__Z14BezierExtractUfff
w4b:__Z26ApplyMaterialPassWithCacheRK18SharedMaterialDataR17ShaderPassContextP6ShaderPN9ShaderLab4PassEibPKNS6_10GrabPassesEPNS6_11SubProgramsEPK22DeviceRenderStateBlock
Tgf:__ZN5physx7profile8ZoneImplINS_28PxProfileNameProviderForwardEE17handleBufferFlushEPKhj
hQk:__Z55RuntimeInvoker_DateTime_t3738529785_TimeSpan_t881159249PFvvEPK10MethodInfoPvPS4_
FHg:__ZL81Camera_t4157153871_CustomAttributesCacheGenerator_Camera_RaycastTry2D_m2460696262P21CustomAttributesCache
G9d:__ZN5physx2Sc5ActorC2ERNS0_16InteractionSceneEhNS0_14IslandNodeInfo4TypeE
jdh:_MulticastDelegate_KPM_m22863605
tni:_InternalEnumerator_1_get_Current_m1897120917_AdjustorThunk
Ich:_MonoType_ReorderParamArrayArguments_m2458683451
JKh:_FormatterConverter_ToInt16_m4282804414
RNk:__Z81RuntimeInvoker_Void_t1185182177_Int64_t3736567304_RuntimeObject_Int64_t3736567304PFvvEPK10MethodInfoPvPS4_
VWf:_StandaloneInputModule_ProcessTouchPress_m4019232747
wmj:_FileStream__ctor_m3151488352
L2i:_Array_swap_m547389985
jue:__ZN5physx15NpActorTemplateINS_7PxClothEED2Ev
vik:_UInt32_ToString_m2420423038
Gy:__ZNSt3__27__sort5IR17DetailNodeXSorterP16DetailMeshBVNodeEEjT0_S5_S5_S5_S5_T_
hwk:_ReadOnlyCollection_1_System_Collections_IList_get_IsFixedSize_m1923250479_gshared
_mj:_FileStream_get_Length_m426703983
p$c:__Z13RegisterClassI10TagManagerEvPKc
Ose:__ZN5physx2Sc9ClothCore16setRestPositionsEPKNS_6PxVec4E
zAi:_Enumerator__ctor_m1558933899_AdjustorThunk
vDg:__ZL88BigInteger_t2902905090_CustomAttributesCacheGenerator_BigInteger_op_Implicit_m3414367033P21CustomAttributesCache
a9e:__ZN5physx2Gu12TriangleMesh4loadERNS_13PxInputStreamE
KYl:__ZL25UnresolvedVirtualCall_215P12Il2CppObjectS0_iPK10MethodInfo
QDd:__ZL17DrawMeshParticlesILb0EL25ParticleSystemRenderSpace2EEvRK26ParticleSystemTempMeshDataRK22ParticleSystemTempDataRK23ParticleSystemParticlesRK31ParticleSystemParticlesTempDataRK26ParticleSystemRendererDataRK21ParticleSystemModulesPfPv
Cnl:_List_1_Remove_m2092085040_gshared
rBc:__ZL13MotionHandleriPK27EmscriptenDeviceMotionEventPv
Q8:__ZN18AudioMixerSnapshot8TransferI24GenerateTypeTreeTransferEEvRT_
j3:__ZN12AudioManager5ResetEv
_Gk:__Z67RuntimeInvoker_Boolean_t97287965_RuntimeObject_SByteU26_t3619038962PFvvEPK10MethodInfoPvPS4_
$Gg:__ZL68DisallowMultipleComponent_t1422053217_CustomAttributesCacheGeneratorP21CustomAttributesCache
erk:_ReadOnlyCollection_1_get_Count_m1336304542_gshared
E5g:__ZL111LayoutUtility_t2745813735_CustomAttributesCacheGenerator_LayoutUtility_U3CGetPreferredHeightU3Em__6_m3049688934P21CustomAttributesCache
_Ca:__ZN6prcoreL17RemapGenericFloatI17TexFormatRGBAHalf15TexFormatRGHalfEEvPKNS_9InnerInfoE
bnm:__ZNK15dense_hashtableINSt3__24pairIK10KeyWrapperIPK14Il2CppAssemblyEPK22Il2CppMonoAssemblyNameEES6_N6il2cpp5utils11PointerHashIS4_EEN14dense_hash_mapIS6_SA_SF_NS6_14EqualsComparerINS0_8equal_toIS5_EEEENS0_9allocatorISB_EEE9SelectKeyESK_SM_E10test_emptyEj
GGm:__ZN6il2cpp6icalls8mscorlib6System11Environment20GetWindowsFolderPathEi
isj:_Convert_ToBoolean_m2833752130
irf:_UNITY_FT_Stream_ReadFields
rJ:__ZN7mecanim5human18HumanPoseBlendNodeERNS0_9HumanPoseEPS1_f
Gqf:_UNITY_FT_RoundFix
yga:__ZN23CloudWebServicesManager23VirtualRedirectTransferER17RemapPPtrTransfer
VId:__ZN9Scripting11UnityEngine19PhysicsJobOptions2D12CleanupProxyEv
lNm:_GC_is_heap_ptr
uU:__Z14resize_trimmedINSt3__26vectorI24CompressedAnimationCurve13stl_allocatorIS2_L18MemLabelIdentifier26ELi16EEEEEvRT_j
VOd:__ZNK5physx2Gu15HeightFieldUtil12traceSegmentI24ConvexVsHeightfieldSweepLb0ELb0ELb1EEEvRKNS_6PxVec3ES6_PT_PS5_
ERj:_ASN1_DecodeTLV_m1200977460
$rh:_UnityEventBase_PrepareInvoke_m1785382128
T7e:__ZNK5physx12PxConvexMesh19getConcreteTypeNameEv
Ktk:_ReadOnlyCollection_1_System_Collections_Generic_IListU3CTU3E_set_Item_m1584697503_gshared
O6f:__ZN23InterfaceActionInvoker2IP12Il2CppObjectP20Delegate_t1188392813E6InvokeEjP11Il2CppClassS1_S1_S3_
vpb:__ZNK12MeshRenderer22GetTypeVirtualInternalEv
g6i:_Char_System_IConvertible_ToUInt32_m3901815580
A_h:_Scrollbar_set_onValueChanged_m346467699
XPd:__ZN5physx2Gu19gjkLocalPenetrationINS0_9TriangleVENS0_17ShrunkConvexHullVEEEjRKT_RKT0_RKNS_6shdfnd3aos6FloatVERNSB_5Vec3VESG_SG_RSC_PhSI_Rhb
pQk:__Z157RuntimeInvoker_Int32_t2950945753_RuntimeObject_Int32_t2950945753_Int32_t2950945753_Int32_t2950945753_SByte_t1669577662_SByte_t1669577662_Int32U26_t1369213839PFvvEPK10MethodInfoPvPS4_
GFk:_ListPool_1_Release_m957266927_gshared
zvg:__ZL105ConfigHandler_t4192437216_CustomAttributesCacheGenerator_ConfigHandler_ValidatePath_m3895556516____paths1P21CustomAttributesCache
g6:__ZN4FMOD6System17setSoftwareFormatEi17FMOD_SOUND_FORMATii18FMOD_DSP_RESAMPLER
iSd:__ZN5physx2Gu15GJKLocalRayCastERNS0_9TriangleVERNS0_4BoxVERKNS_6shdfnd3aos6FloatVERKNS6_5Vec3VESC_RS7_RSA_SE_fb
rbf:__ZN5physx18AdjacenciesBuilderC2Ev
X1d:__ZN5physx2Sc13ShapeIterator4initERKNS0_8ActorSimE
f7a:__ZN14SafeBinaryRead19TransferSTLStyleMapINSt3__23mapIN4core12basic_stringIcNS3_20StringStorageDefaultIcEEEES7_NS1_4lessIS7_EE13stl_allocatorINS1_4pairIKS7_S7_EEL18MemLabelIdentifier1ELi16EEEEEEvRT_17TransferMetaFlags
NC:__ZL49__ManagedRegistrationHelperFunction_AimConstraintPv
hGf:__ZN2UI6Canvas27UpdateEventIndexesRecursiveERi
yha:__ZN11UnityEngine15CloudWebService16SessionContainer21PrepareDataErrorEventERN4core12basic_stringIcNS2_20StringStorageDefaultIcEEEE
jUf:_ExecuteEvents_get_pointerUpHandler_m3515704212
a7i:_ArrayList_set_Item_m2003485935
pHm:__ZNSt3__218uninitialized_copyIPNS_4pairIK10KeyWrapperIPK19Il2CppGenericMethodEP10MethodInfoEESB_EET0_T_SD_SC_
wcg:_SatelliteContractVersionAttribute__ctor_m3630863995
As:__ZNK12NavMeshQuery9GetUpAxisEyP8Vector3f
cWf:_MouseButtonEventData_PressedThisFrame_m1060658845
IRf:_AxisEventData_get_moveVector_m270528189
ZVb:__Z19TransferField_ArrayI19StreamedBinaryWriteILb0EE27Converter_SimpleNativeClassI8GUIStyleEEvRK23StaticTransferFieldInfoR31RuntimeSerializationCommandInfoRT0_
lrk:_ReadOnlyCollection_1_System_Collections_Generic_IListU3CTU3E_RemoveAt_m3969985996_gshared
QUg:__ZL83AudioSource_t3935305588_CustomAttributesCacheGenerator_AudioSource_Play_m3389845180P21CustomAttributesCache
Pne:__ZN5physx14NpArticulationC2Ev
MZa:__Z28BuildSingleStreamChannelInfoP11ChannelInfo17ShaderChannelMaskS1_
t0a:__ZN24GenerateTypeTreeTransfer8TransferI13dynamic_arrayI8Vector3fLj0EEEEvRT_PKc17TransferMetaFlags
Fjb:__ZNK13ScreenManager12GetIsFocusedEv
cxh:_PlayerConnection_get_isConnected_m911966057
X2f:_GraphicRegistry_GetGraphicsForCanvas_m4219276355
aoj:__ZN23InterfaceActionInvoker3IP22ByteU5BU5D_t4116647657iiE6InvokeEjP11Il2CppClassP12Il2CppObjectS1_ii
wB:__ZNK12NavMeshQuery19GetPolyWallSegmentsEyPK11QueryFilterP8Vector3fPyPii
uI:__ZL32CleanupAnimationScriptingClassesv
lEl:_PatternCompiler_MakeFlags_m1977119795
rhd:__Z35Transfer_Blittable_FixedBufferFieldI8JSONReadiEvRK29SerializationCommandArgumentsR31RuntimeSerializationCommandInfo
RCd:__ZN22ParticleSystemRenderer16UpdateCachedMeshEv
gwg:__ZL59StreamingContext_t3711869237_CustomAttributesCacheGeneratorP21CustomAttributesCache
Kdm:__ZNSt3__213__vector_baseIN6il2cpp2os19SocketHandleWrapperENS_9allocatorIS3_EEED2Ev
Qng:__ZL48_Type_t3588564251_CustomAttributesCacheGeneratorP21CustomAttributesCache
cod:__ZN12LightsModule8TransferI24GenerateTypeTreeTransferEEvRT_
U7g:__ZL65CameraFollow_t129522575_CustomAttributesCacheGenerator__smoothingP21CustomAttributesCache
n1g:__ZL81FontUpdateTracker_t1839077620_CustomAttributesCacheGenerator_U3CU3Ef__mgU24cache0P21CustomAttributesCache
Rfb:__ZN28ReflectionProbeAnchorManager18RemoveCachedAnchorERK4PPtrI9TransformE
zc:invoke_viiffi
fqg:__ZL103RegionInfo_t1090270226_CustomAttributesCacheGenerator_RegionInfo_t1090270226____NativeName_PropertyInfoP21CustomAttributesCache
bzc:__ZN13sorted_vectorINSt3__24pairIN4core12basic_stringIcNS2_20StringStorageDefaultIcEEEEPK17MessageIdentifierEEN10vector_mapIS6_S9_NS0_4lessIS6_EENS0_9allocatorISA_EEE13value_compareESF_E10insert_oneERKSA_
HP:__ZNSt3__227__insertion_sort_incompleteIRPFbPKN8Animator11AnimatorJobES4_EPS4_EEbT0_S9_T_
iha:__ZNSt3__26__treeINS_12__value_typeIN4core12basic_stringIcNS2_20StringStorageDefaultIcEEEEjEENS_19__map_value_compareIS6_S7_NS_4lessIS6_EELb1EEE13stl_allocatorIS7_L18MemLabelIdentifier88ELi16EEE4findIS6_EENS_15__tree_iteratorIS7_PNS_11__tree_nodeIS7_PvEEiEERKT_
pcg:_ResourceSet_ReadResources_m3663669011
YXa:__ZL13MeshExtractorPv16VertexInputMasksiR11MeshBuffersR16DrawBuffersRangeRiS5_
hbb:__ZNK12CubemapArray20GetRuntimeMemorySizeEv
t_g:__ZL77ExecuteEvents_t3484638744_CustomAttributesCacheGenerator_U3CU3Ef__mgU24cacheDP21CustomAttributesCache
tHb:__ZN9GfxDevice5FlushEv
WFc:__Z14resize_trimmedINSt3__26vectorIN9ShaderLab18SerializedPropertyENS0_9allocatorIS3_EEEEEvRT_j
QQb:__Z18Transfer_BlittableI17RemapPPtrTransferLb0EN4math12int3_storageEEvRK29SerializationCommandArgumentsR31RuntimeSerializationCommandInfo
DGg:__ZL92StaticAccessorAttribute_t2432663902_CustomAttributesCacheGenerator_U3CNameU3Ek__BackingFieldP21CustomAttributesCache
iFd:__Z20UpdateWholeSheet2TplIL27ParticleSystemCurveEvalMode3ELS0_3EEvfRK11MinMaxCurveS3_RK23ParticleSystemParticlesPf
aFe:__ZN5physx6shdfnd8PoolBaseINS_2Sc9ActorPairENS0_19ReflectionAllocatorIS3_EEE12allocateSlabEv
mbm:__ZN6il2cpp2vm13MetadataCache38GetMethodInfoFromMethodDefinitionIndexEi
WSf:_EventSystem_set_current_m38955169
s6c:__Z39MonoBehaviour_CUSTOM_GetScriptClassNameP12Il2CppObject
$Hj:_Array_InternalArray__IEnumerable_GetEnumerator_TisLink_t544317964_m1734948438_gshared
u3g:__ZL53Selectable_t3250028441_CustomAttributesCacheGeneratorP21CustomAttributesCache
mDl:_CostDelegate_EndInvoke_m2797921932
rib:__ZN10VertexData8TransferI24GenerateTypeTreeTransferEEvRT_
npb:__ZN19SkinnedMeshRenderer16UpdateCachedMeshEv
ZNl:_PlayerHealth_TakeDamage_m257697969
ysj:_Double_IsInfinity_m820013146
Auj:__ZN21InterfaceFuncInvoker1I19Decimal_t2948259380P12Il2CppObjectE6InvokeEjP11Il2CppClassS2_S2_
WGm:__ZN13Il2CppHashMapIPK19Il2CppGenericMethodP10MethodInfoN6il2cpp8metadata23Il2CppGenericMethodHashENS6_26Il2CppGenericMethodCompareENSt3__29allocatorINS9_4pairIK10KeyWrapperIS2_ES4_EEEEEC2EjRKS7_RKS8_
ngl:_List_1_TrimExcess_m440552561_gshared
$Ch:_Screen_get_dpi_m495672463
bbk:_UTF8Encoding_InternalGetByteCount_m2120178851
vGg:__ZL130NativeTypeAttribute_t2250406315_CustomAttributesCacheGenerator_NativeTypeAttribute_set_IntermediateScriptingStructName_m3613994509P21CustomAttributesCache
Atc:__ZL10CullLightsRK22SceneCullingParametersR11CullResults
txj:_Convert_ToUInt64_m3170916409
yK:__ZN7mecanim12statemachine20GetBlendTreeConstantERKNS0_13StateConstantEi
dGe:__ZN5physx7NpScene21setDominanceGroupPairEhhRKNS_20PxDominanceGroupPairE
Hjj:_Int64_System_IConvertible_ToInt16_m4062196970_AdjustorThunk
ddh:_MonoType_GetGenericTypeDefinition_m3201894896
HOc:__Z40GetTemporaryCachePathApplicationSpecificv
rGb:__ZN9GfxDevice16EndAsyncJobFrameEv
y_k:__Z99RuntimeInvoker_Int32_t2950945753_Ray_t3785851493_RuntimeObject_Single_t1397266774_Int32_t2950945753PFvvEPK10MethodInfoPvPS4_
zlm:__ZNK15dense_hashtableINSt3__24pairIK10KeyWrapperINS1_IPK12PropertyInfoP11Il2CppClassEEEjEES9_17ReflectionMapHashIS8_EN14dense_hash_mapIS9_jSD_NS9_14EqualsComparerINS0_8equal_toIS8_EEEENS0_9allocatorISB_EEE9SelectKeyESI_SK_E10test_emptyERK30dense_hashtable_const_iteratorISB_S9_SD_SM_SI_SK_E
rtf:_UNITY_tt_face_load_hhea
u6:__ZN12AudioManager27InitialCompleteDomainReloadEv
aEm:__ZN15dense_hashtableINSt3__24pairIK10KeyWrapperIPcES3_EES4_N6il2cpp5utils15PassThroughHashIS3_EEN14dense_hash_mapIS4_S3_SA_NS4_14EqualsComparerINS0_8equal_toIS3_EEEENS0_9allocatorIS6_EEE9SelectKeyESF_SH_E16reset_thresholdsEv
ul:___syscall3
Vxe:__ZNK5physx15NpActorTemplateINS_16PxParticleSystemEE7getNameEv
vJg:__ZL95MonoBehaviour_t3962482529_CustomAttributesCacheGenerator_MonoBehaviour_CancelInvoke_m3252264575P21CustomAttributesCache
xl:___syscall6
vHb:__ZN9GfxDevice15GetNextCPUFenceEv
zl:___syscall4
xia:__ZN11UnityEngine15CloudWebService20WebRequestRestClient17GetResponseStatusEv
Jjg:_ReturnMessage__ctor_m2352989078
nFb:__ZNSt3__26__treeINS_12__value_typeIN4core12basic_stringIcNS2_20StringStorageDefaultIcEEEEPN16MemoryFileSystem4NodeEEENS_19__map_value_compareIS6_SA_NS_4lessIS6_EELb1EEE13stl_allocatorISA_L18MemLabelIdentifier55ELi16EEE7destroyEPNS_11__tree_nodeISA_PvEE
fEm:__ZNK15dense_hashtableINSt3__24pairIK10KeyWrapperIPcES3_EES4_N6il2cpp5utils15PassThroughHashIS3_EEN14dense_hash_mapIS4_S3_SA_NS4_14EqualsComparerINS0_8equal_toIS3_EEEENS0_9allocatorIS6_EEE9SelectKeyESF_SH_E5beginEv
MWk:__Z67RuntimeInvoker_Boolean_t97287965_TextGenerationSettings_t1351628751PFvvEPK10MethodInfoPvPS4_
MCm:__ZN6il2cpp2vm3RCW14QueryInterfaceILb1EEEP14Il2CppIUnknownP15Il2CppComObjectRK10Il2CppGuid
rJi:_TlsServerCertificateRequest__ctor_m1334974076
OHd:__ZN27PerformanceReportingManager23VirtualRedirectTransferER14SafeBinaryRead
rvj:_Convert_ToInt32_m1613163543
k4k:__Z52RuntimeInvoker_TimeSpan_t881159249_Int32_t2950945753PFvvEPK10MethodInfoPvPS4_
fJa:__ZN9Scripting11UnityEngine9Playables8Playable12CleanupProxyEv
Lqk:_ReadOnlyCollection_1_System_Collections_ICollection_CopyTo_m3127175806_gshared
Ol:_emscripten_glShaderBinary
zSi:_String_op_Inequality_m215368492
Lia:__ZN15DownloadHandler19OnFinishReceiveDataEv
Chk:_UInt16_ToString_m760649087
mBb:__ZNK20LocalFileSystemPosix6ExistsERK13FileEntryData
TQk:__Z21RuntimeInvoker_Guid_tPFvvEPK10MethodInfoPvPS4_
RRk:__Z46RuntimeInvoker_CipherAlgorithmType_t1174400495PFvvEPK10MethodInfoPvPS4_
M7d:__ZN5physx35NpArticulationJointGetBodiesFromScbERNS_3Scb17ArticulationJointERPNS0_4BodyES5_
n7e:__ZNK5physx2Sc15ClothFabricCore16getTetherLengthsEPfj
Soh:_Camera_GetAllCameras_m668492922
aYg:__ZL109Physics_t2310948930_CustomAttributesCacheGenerator_Physics_RaycastAll_m3084184534____queryTriggerInteraction4P21CustomAttributesCache
Mvf:_UNITY_TT_Get_HMetrics
Tek:_TimeSpan_op_Inequality_m2467851530
CYb:__ZN17AnimationCurveTplIfE8TransferI18StreamedBinaryReadILb1EEEEvRT_
rig:__ZN28GenericInterfaceFuncInvoker1IP12Il2CppObjectP23HeaderU5BU5D_t204812840E6InvokeEPK10MethodInfoS1_S3_
Sal:_Array_Sort_TisUIVertex_t4057497605_m3996333845_gshared
_Ji:_Context_get_ReceivedConnectionEnd_m4011125537
mQi:_ToBase64Transform_get_CanReuseTransform_m702204640
XUk:__Z53RuntimeInvoker_PropertyName_t3749835189_RuntimeObjectPFvvEPK10MethodInfoPvPS4_
HNh:_SByte_System_IConvertible_ToDouble_m2381680501
d3i:_Swapper_BeginInvoke_m1688449973
Fqh:_Display_get_renderingWidth_m1970428952
UKe:__ZN5physx2Sc13ConstraintSim8getForceERNS_6PxVec3ES3_
dCh:__ZN30GenericInterfaceActionInvoker1IP25RectTransform_t3704657025E6InvokeEPK10MethodInfoP12Il2CppObjectS1_
CXg:__ZL78Physics_t2310948930_CustomAttributesCacheGenerator_Physics_Raycast_m4145022031P21CustomAttributesCache
bRa:__ZN16LevelGameManager23VirtualRedirectTransferER19StreamedBinaryWriteILb0EE
VRk:__Z81RuntimeInvoker_Void_t1185182177_RuntimeObject_Int32_t2950945753_Int64_t3736567304PFvvEPK10MethodInfoPvPS4_
kib:__Z32TransferEnumWithNameForceIntSizeI14SafeBinaryRead16GfxPrimitiveTypeEvRT_RT0_PKc17TransferMetaFlags
BVc:__Z15GetChannelIndexRK14BlendShapeDataj
TZ:__ZN7mecanim5human5HumanC2Ev
W$:__ZNSt3__26vectorIN4core12basic_stringIcNS1_20StringStorageDefaultIcEEEE13stl_allocatorIS5_L18MemLabelIdentifier1ELi16EEE21__push_back_slow_pathIS5_EEvOT_
nJg:__ZL92Mesh_t3648964284_CustomAttributesCacheGenerator_Mesh_SetTriangles_m2205169959____baseVertex3P21CustomAttributesCache
Q1k:__Z52RuntimeInvoker_Int32_t2950945753_HitInfo_t3229609740PFvvEPK10MethodInfoPvPS4_
Qvd:__Z25UpdateOrbitalAndRadialTplIL27ParticleSystemCurveEvalMode4ELS0_3ELS0_2EEvRK11MinMaxCurveS3_S3_S3_S3_S3_S3_R23ParticleSystemParticlesjjRKN4math8float3x3ERKNS6_7affineXERKNS6_7_float4E
Yzg:__ZL80Convert_t2465617642_CustomAttributesCacheGenerator_Convert_ToBoolean_m2807110707P21CustomAttributesCache
xWd:__ZN5physx15PxGeometryQuery18computePenetrationERNS_6PxVec3ERfRKNS_10PxGeometryERKNS_11PxTransformES6_S9_
ZEk:_IndexedSet_1_IndexOf_m241693686_gshared
gx:__ZNK12NavMeshQuery14RetracePortalsEiiPKyiRK8Vector3fPS2_PhPyi
mE:__ZN9Scripting11UnityEngine14AnimationEvent9InitProxyEv
pKf:__ZN11UnityEngine15PlatformWrapper30GetGraphicsDriverLibraryStringEv
oNh:_RuntimeMethodHandle_Equals_m3301340296_AdjustorThunk
Tik:_UInt64_System_IConvertible_ToSingle_m925613075_AdjustorThunk
Kif:__ZN5Unity12PhysicsQueryC2Ev
xVl:__ZL24UnresolvedVirtualCall_40P12Il2CppObjectS0_PK10MethodInfo
N2l:_ListPool_1__cctor_m704263611_gshared
ZZb:__Z18Transfer_BlittableI18StreamedBinaryReadILb0EELb0E4AABBEvRK29SerializationCommandArgumentsR31RuntimeSerializationCommandInfo
Otb:__ZN24GenerateTypeTreeTransfer19TransferSTLStyleMapINSt3__28multimapIN4core12basic_stringIcNS3_20StringStorageDefaultIcEEEE4PPtrI6ObjectENS1_4lessIS7_EE13stl_allocatorINS1_4pairIKS7_SA_EEL18MemLabelIdentifier52ELi16EEEEEEvRT_17TransferMetaFlags
sE:__ZN16MecanimAnimation24DeleteAnimatedPropertiesERP26IAnimatedPropertyEvaluator
Iv:__ZN14NavMeshManager15SurfaceInstanceaSEOS0_
H$l:_CanvasRenderer_SetMaterial_m824577244
Qnd:__ZN11ColorModule8TransferI24GenerateTypeTreeTransferEEvRT_
vjc:__Z14DrawGUITextureRK5RectTIfEP7Texture11ColorRGBA32P8Materiali
UIg:__ZL101Quaternion_t2301928331_CustomAttributesCacheGenerator_Quaternion_LookRotation_m3197602968____upwards1P21CustomAttributesCache
gMg:__ZL84RectOffset_t1369453676_CustomAttributesCacheGenerator_RectOffset_Cleanup_m2552807639P21CustomAttributesCache
X5a:__ZNK15PlayableMethods18InvokeProcessFrameER18ScriptingObjectPtrRK9HPlayableP18ScriptingFrameDataRK9FrameData
sO:__ZN9BlobWrite8TransferI22OffsetPtrArrayTransferIKN4math7_float4EEEEvRT_PKc17TransferMetaFlags
GFh:_Transform_IsChildOf_m224006092
Z4a:__ZN15TextureSettings8TransferI24GenerateTypeTreeTransferEEvRT_
ahd:__ZN9JSONWrite8TransferI4AABBEEvRT_PKc17TransferMetaFlags
QVh:_LayoutElement_set_preferredHeight_m1999633022
ZDc:__ZN15dense_hashtableINSt3__24pairIKiN4core17string_with_labelILi1EEEEEi18SInt32HashFunctionN14dense_hash_mapIiS5_S7_NS0_8equal_toIiEE13stl_allocatorIS6_L18MemLabelIdentifier1ELi16EEE9SelectKeyESA_SD_E12expand_arrayEjN21dense_hash_map_traits17integral_constantIbLb0EEE
q8j:_List_1_Clear_m2154023298_gshared
xRc:__Z13RegisterClassI15QualitySettingsEvPKc
QVl:__ZL24UnresolvedVirtualCall_59P12Il2CppObjectiPK10MethodInfo
DRf:_AbstractEventData_get_used_m2991176710
Vli:_InternalEnumerator_1_get_Current_m3191242573_AdjustorThunk
O_k:__Z94RuntimeInvoker_Void_t1185182177_ObjectU5BU5DU26_t712384779_Int32_t2950945753_Int32_t2950945753PFvvEPK10MethodInfoPvPS4_
f2k:__Z71RuntimeInvoker_Void_t1185182177_CustomAttributeNamedArgument_t287865710PFvvEPK10MethodInfoPvPS4_
u4e:__ZNK18ScBeforeSolverTask7getNameEv
cC:__ZN13ConstraintJob17ConstraintJobDataD2Ev
Mwd:__Z25UpdateOrbitalAndRadialTplIL27ParticleSystemCurveEvalMode2ELS0_1ELS0_2EEvRK11MinMaxCurveS3_S3_S3_S3_S3_S3_R23ParticleSystemParticlesjjRKN4math8float3x3ERKNS6_7affineXERKNS6_7_float4E
Zy:__ZN12CrowdManager11AddObstacleEv
aNl:_Aes__ctor_m178909601
Jbb:__ZNK9Texture2D20GetRuntimeMemorySizeEv
p0:__ZN11Marshalling39CreateNullExceptionForUnityEngineObjectE18ScriptingObjectPtr
ETe:__ZN5physx14solve1D4_BlockEPKNS_23PxcSolverConstraintDescEjRNS_16PxcSolverContextE
Dkd:__ZN5Unity9rapidjson13GenericReaderINS0_4UTF8IcEES3_13JSONAllocatorE9ParseTrueILj0ENS0_19GenericStringStreamIS3_EENS0_15GenericDocumentIS3_S4_S4_EEEEvRT0_RT1_
yll:_List_1_Clear_m2003943277_gshared
Xm:_emscripten_glUniform2iv
FHi:_CipherSuite_get_Context_m1621551997
WWd:__ZL33GeomMTDCallback_ConvexHeightFieldRN5physx6PxVec3ERfRKNS_10PxGeometryERKNS_11PxTransformES5_S8_
qFa:__ZL46__ManagedRegistrationHelperFunction_ColorGamutPv
V9j:_UnicodeEncoding_CopyChars_m785272451
N2j:_Enumerator_Dispose_m1204547613_AdjustorThunk
Amf:_UNITY_FT_Outline_Transform
RKc:__Z60Register_UnityEngine_Sprites_DataUtility_Internal_GetMinSizev
nGg:__ZL118NativeMethodAttribute_t4187428193_CustomAttributesCacheGenerator_NativeMethodAttribute_set_HasExplicitThis_m2961870915P21CustomAttributesCache
g6l:__ZN6il2cpp2vm5Class10GetMethodsEP11Il2CppClassPPv
E1j:_EqualityComparer_1_System_Collections_IEqualityComparer_Equals_m477570191_gshared
EOf:__ZNK25UnityWebRequestJavaScript17GetUploadProgressEv
fpc:__Z30AddDefaultStreamsToMeshBuffersR9GfxDeviceR11MeshBuffersRK16DrawBuffersRange17ShaderChannelMaskS6_
Uhl:_List_1_GetEnumerator_m1430071802_gshared
vdc:__ZN7ApiGLES17DeleteFramebufferERN2gl6HandleILNS0_10ObjectTypeE9EEES3_
Ofc:__ZN15UniformTFMethod13MapBoneBufferEj
aBf:__ZN2UI14CanvasRendererD2Ev
sdl:_Array_InternalArray__get_Item_TisParameterModifier_t1461694466_m29553316_gshared
Zjj:_Int64_CompareTo_m1928360444_AdjustorThunk
KYe:__ZN5physx26PxcPCMContactCapsuleConvexERKNS_2Gu13GeometryUnionES3_RKNS_11PxTransformES6_RKfRNS_10PxcNpCacheERNS0_13ContactBufferE
Hoe:__ZNK5physx7NpShape16getContactOffsetEv
m3b:__Z9SetupArgviPPKc
Mvj:_Convert_ToInt64_m2075031821
sMg:__ZL111ScriptableObject_t2528358522_CustomAttributesCacheGenerator_ScriptableObject_CreateScriptableObject_m3504774547P21CustomAttributesCache
azd:__Z15GetPositionMeshIL20MeshDistributionMode0ELb0E11ColorRGBA32EvRN4math8floatNx3ES4_RNS2_4pix4ERK13dynamic_arrayIS1_Lj0EERK14StrideIteratorI8Vector3fESF_RKSB_I8Vector2fERKSB_IT1_ERKS7_I16MeshTriangleDataLj0EERKS7_I11MeshAreaLUTLj0EERKfRKiSX_RK16ShapeTextureDataR5RandNP12SkinMeshInfo
ili:_InternalEnumerator_1__ctor_m236665673_gshared
BJh:_RemotingException__ctor_m1015537352
jef:__Z57Register_UnityEngine_Rigidbody_INTERNAL_CALL_MoveRotationv
iQl:_AnalyticsEventTracker_OnDisable_m1553012800
G3m:_glTexParameteri__wrapper
Kae:__ZN5physx10PxsContext17addParticleSystemEPNS_15PxsParticleDataERKNS_26PxvParticleSystemParameterEb
G8d:__ZN5physx3Scb5Scene13addRigidNoSimINS0_4BodyELb1ELb1EEEvRT_RNS0_13ObjectTrackerE
cOa:__ZN12ImmediatePtrI10GameObjectE8TransferI19StreamedBinaryWriteILb0EEEEvRT_
lbb:__ZN12CubemapArray23VirtualRedirectTransferER24GenerateTypeTreeTransfer
wFa:__ZL49__ManagedRegistrationHelperFunction_RenderTexturePv
Q_a:__ZNSt3__26vectorI4PPtrI6ShaderE13stl_allocatorIS3_L18MemLabelIdentifier53ELi16EEE8__appendEj
JOl:_U3CFadeU3Ec__Iterator0_Dispose_m2147376696
$_a:__ZN4PPtrI6ShaderE8TransferI18StreamedBinaryReadILb0EEEEvRT_
qRd:__ZL19sweepBoxVsTrianglesjPKN5physx10PxTriangleERKNS_2Gu3BoxERKNS_6PxVec3EfRNS_10PxSweepHitENS_7PxFlagsINS_9PxHitFlag4EnumEtEEbPKj
gSa:__ZN23TransformChangeDispatch32QueueTransformChangeIfHasChangedERK15TransformAccess
_ef:_PxCreateCooking
QTd:__ZN9Rigidbody18AddForceAtPositionERK8Vector3fS2_i
n2:__ZN15AudioMixerGroupD0Ev
VCb:__ZN15ArchiveReadFile5WriteEyPKvPy
Zfh:_Assembly_get_FullName_m293988418
kLf:__ZN22BaseUnityConnectClientD0Ev
uoh:_Camera_get_pixelRect_Injected_m2326986893
Rnf:__ZNSt3__26__treeINS_12__value_typeIN20TextRenderingPrivate7FontRefENS2_6OSFontEEENS_19__map_value_compareIS3_S5_NS_4lessIS3_EELb1EEENS_9allocatorIS5_EEE12__find_equalIS3_EERPNS_16__tree_node_baseIPvEESI_RKT_
jAk:__ZN28GenericInterfaceFuncInvoker1Ib19Color32_t2600501292E6InvokeEPK10MethodInfoP12Il2CppObjectS0_
B:tempValue
UYb:__ZN18StreamedBinaryReadILb1EE21TransferSTLStyleArrayI13dynamic_arrayI8Vector4fLj0EEEEvRT_17TransferMetaFlags
FAc:__Z29StdTemplateConversionFunctionIaiEbPvR14SafeBinaryRead
aRm:__ZN6il2cpp8metadata24Il2CppGenericContextHash4HashEPK20Il2CppGenericContext
Bli:_InternalEnumerator_1_get_Current_m356936020_AdjustorThunk
dkc:__ZN6Camera21RenderODSWorldTextureERK11CullResultsRK19SharedRendererSceneR17ShaderPassContextNS_10RenderFlagE
VJ:__ZN27AnimationLayerMixerPlayable16ProcessAnimationEP35AnimationPlayableEvaluationConstantP32AnimationPlayableEvaluationInputP33AnimationPlayableEvaluationOutput
Rqa:__Z29scripting_class_from_fullnamePKcS0_S0_
Vlj:_Directory_GetCurrentDirectory_m219218555
BFh:_Transform_TransformDirection_m3784028109
z$i:_SmallXmlParser_UnexpectedEndError_m1914362401
ir:__ZN12NavMeshAgent23VirtualRedirectTransferER24GenerateTypeTreeTransfer
XK:__ZN26AnimatorControllerPlayable18DeallocateBindingsEv
Nvg:__ZL61FormatterTypeStyle_t3400733584_CustomAttributesCacheGeneratorP21CustomAttributesCache
aXd:__ZN5physx2Gu29ConvexVsMeshContactGeneration20generateLastContactsEv
Gzd:__ZNK4PPtrI12MeshRendererEptEv
BXk:__Z85RuntimeInvoker_Boolean_t97287965_Ray_t3785851493_Single_t1397266774_Int32_t2950945753PFvvEPK10MethodInfoPvPS4_
s5d:__ZNK5physx2Gu22SupportMapRelativeImplINS0_4BoxVEE14doSupportSweepERKNS_6shdfnd3aos5Vec3VE
fKb:__ZN14DelayedDeletorI15dense_hashtableINSt3__24pairIK9TextureIDiEES3_14GfxGenericHashIS3_EN14GfxDoubleCacheIS3_iS7_NS1_8equal_toIS3_EEN31GfxDoubleCacheConcurrencyPolicy11LocklessGetE42GfxDoubleCacheDefaultEmptyDeletedGeneratorIS3_EE9SelectKeyESA_13stl_allocatorIS5_L18MemLabelIdentifier24ELi16EEEEclEv
Gaa:__ZN11AudioSource19CreateOpenALRolloffEfff
ltf:_UNITY_FT_Stream_ReadAt
Pve:__ZN5physx2Sc17ParticleSystemSim16getParticleStateEv
nUl:_AudioSampleProvider_Dispose_m1993565764
r3l:_Physics_Raycast_m3336206959
A3e:__ZN5physx6shdfnd5ArrayINS_25PxsCompoundContactManagerENS0_19ReflectionAllocatorIS2_EEE8recreateEj
Sdk:_TimeSpan__ctor_m1896986612_AdjustorThunk
vam:__ZN15dense_hashtableINSt3__24pairIK10KeyWrapperIN6il2cpp5utils13dynamic_arrayIPK10Il2CppTypeLj4EEEEPFvvEEESA_NS3_8metadata19Il2CppSignatureHashEN14dense_hash_mapISA_SD_SG_NSA_14EqualsComparerINSF_22Il2CppSignatureCompareEEENS0_9allocatorISE_EEE9SelectKeyESK_SM_E9set_valueEPSE_RKSE_
BZi:_ArgumentException__ctor_m1216717135
hAh:_Ray_ToString_m1732834890_AdjustorThunk
HFd:__Z19UpdateSingleRow2TplIL27ParticleSystemCurveEvalMode3ELS0_1EEvfRK11MinMaxCurveS3_RK23ParticleSystemParticlesPfbiii
Qgd:__ZN9JSONWrite8TransferI13dynamic_arrayI5RectTIfELj0EEEEvRT_PKc17TransferMetaFlags
ojl:_List_1_System_Collections_IList_Contains_m3860993176_gshared
wWe:__ZN5physx14PxsAABBManagerC2ERNS_2Cm13EventProfilerERNS_19PxcScratchAllocatorE
sea:__ZN11AudioModule22CreateAudioClipFromWWWEP10IWWWStreamPKcbbi
mUc:__ZN9Texture2DC2E10MemLabelId18ObjectCreationMode
G6b:__Z17DebugStringToFileIA59_cEvRKT_iPKci15LogMessageFlagsiiPFvRK11CppLogEntryE
bMh:_ObjectRecord_get_IsUnsolvedObjectReference_m1163921033
Ghk:_UInt32_System_IConvertible_ToBoolean_m1763673183_AdjustorThunk
Vrh:_UnityEvent_AddListener_m2276267359
OA:__Z9SetLocalR15TransformAccessRKN4math7_float4Ey
mUk:__Z35RuntimeInvoker_RangeInt_t2094684618PFvvEPK10MethodInfoPvPS4_
v2a:__ZN6prcoreL11inner_clearILj4EEEvPhjjj
Pf:_emscripten_glClear
Jig:_MethodCall_get_Args_m148309537
z8:__ZN5audio5mixer18AudioMixerConstant8TransferI19StreamedBinaryWriteILb0EEEEvRT_
ljg:_DictionaryEnumerator_get_Value_m2166220004
o4l:_NativeTypeAttribute__ctor_m1677513894
YSl:_PCMReaderCallback_BeginInvoke_m3391809637
Hla:__GLOBAL__sub_I_Runtime_SceneManager_0_cpp
TIk:__Z74RuntimeInvoker_Void_t1185182177_RuntimeObject_StreamingContext_t3711869237PFvvEPK10MethodInfoPvPS4_
FMm:_GC_initialize_offsets
hza:__ZNK8Playable6HandleEv
MSh:_SetPropertyUtility_SetColor_m2229203028
GWm:___cxa_guard_abort
eta:__ZN14MessageHandler28MessageIDToMessageIdentifierEi
Wib:__ZNK11SpriteAtlas20GetRuntimeRenderDataEPK6Sprite
Llj:_FileSystemInfo__ctor_m3035148496
GJi:_Context_get_SessionId_m1086671147
UIf:__ZN22BaseUnityConnectClient18QueueAppStartEventERN11UnityEngine15CloudWebService26CloudServiceEventWithParamE
Fij:_Int32_System_IConvertible_ToDecimal_m2190376994_AdjustorThunk
p3j:_KeyValuePair_2_set_Key_m2121548577_AdjustorThunk
M4k:__Z46RuntimeInvoker_RefEmitPermissionSet_t484390987PFvvEPK10MethodInfoPvPS4_
Myg:__ZL88UTF7Encoding_t2644108479_CustomAttributesCacheGenerator_UTF7Encoding_GetBytes_m521917477P21CustomAttributesCache
oHa:__ZL43__ManagedRegistrationHelperFunction_Vector4Pv
VI:__ZN7mecanim14ValueArrayCopyILb0EEEvPKNS_10ValueArrayEPS1_
Su:__ZNSt3__26vectorI15NavMeshTileData13stl_allocatorIS1_L18MemLabelIdentifier77ELi16EEEC2INS_11__wrap_iterIPS1_EEEET_SA_RKS4_PNS_9enable_ifIXaasr21__is_forward_iteratorISA_EE5valuesr16is_constructibleIS1_NS_15iterator_traitsISA_E9referenceEEE5valueEvE4typeE
eri:_DefaultComparer__ctor_m516312884_gshared
w0:__Z51Register_UnityEngine_Animator_get_hasBoundPlayablesv
Ttl:_Collection_1_CopyTo_m3142835220_gshared
de:emscriptenWebGLGetUniform
mp:FUNCTION_TABLE_iiiiiiiiiii
mKl:_GUI_CallWindowDelegate_m3309453386
Erf:_cff_set_mm_blend
ITd:__ZN5physx2Gu19sweepCapsuleCapsuleERKNS0_7CapsuleES3_RKNS_6PxVec3EfRfRS4_S8_jRt
XRe:__ZN5physx2Gu29EPASupportMapPairRelativeImplINS0_9TriangleVENS0_11ConvexHullVEED0Ev
W4a:__Z32TransferEnumWithNameForceIntSizeI14SafeBinaryRead13TextureFormatEvRT_RT0_PKc17TransferMetaFlags
svc:__ZL10CleanUpJobP20CullingGroupsJobData
dpc:__Z20IsRunningNativeTestsv
Hlj:_DirectoryInfo_get_Exists_m3142069876
Spb:__ZN11TimeManager23VirtualRedirectTransferER17RemapPPtrTransfer
yRc:__Z13RegisterClassI16LightmapSettingsEvPKc
mjc:__ZN13RenderManager15BatchModeUpdateEv
Nzk:_Predicate_1__ctor_m327447107_gshared
W9h:_X509Chain_get_CertificateAuthorities_m804805415
brg:__ZL123GenericTypeParameterBuilder_t1988827940_CustomAttributesCacheGenerator_GenericTypeParameterBuilder_IsSubclassOf_m2266644074P21CustomAttributesCache
mCh:_Vector2_get_one_m738793577
X0c:__ZNK4Mesh14GetIndexFormatEv
tIf:__ZN9Scripting11UnityEngine9Analytics21AnalyticsSessionState9InitProxyEv
z2j:_GenericEqualityComparer_1__ctor_m4072188982_gshared
Phe:__ZN5physx2Sc8ActorSim24postDominanceGroupChangeEv
BJl:_UriParser_set_DefaultPort_m4007715058
cCm:__ZN14dense_hash_mapI10KeyWrapperIP12Il2CppObjectEN6il2cpp2gc9CachedCCWENS4_5utils11PointerHashIS1_EENS3_14EqualsComparerINSt3__28equal_toIS2_EEEENSB_9allocatorINSB_4pairIKS3_S6_EEEEE13set_empty_keyERSH_
mRl:_FieldWithTarget__ctor_m583221563
ve:_glVertexAttribIPointer
r9j:_StringBuilder_ToString_m3317489284
GKc:__ZNK6Sprite10GetPaddingE20SpriteRenderDataMode
Hie:__ZN5physx2Cm8PtrTable5clearERNS0_22PtrTableStorageManagerE
NGj:_Array_InternalArray__ICollection_Remove_TisUInt32_t2560061978_m733727733_gshared
DOh:_CryptographicException__ctor_m503735289
i0d:__ZN5physx3Cct15ObstacleContext7releaseEv
Whg:_ConstructionCall_get_CallSiteActivationAttributes_m3498917408
iTe:__ZN5physx27solveFrictionBlockWriteBackEPKNS_23PxcSolverConstraintDescEjRNS_16PxcSolverContextEPNS_25PxcThresholdStreamElementEjPi
snj:_Stream_EndRead_m1896469262
jGk:__Z93RuntimeInvoker_Boolean_t97287965_Int32_t2950945753_SByte_t1669577662_ExceptionU26_t3600731591PFvvEPK10MethodInfoPvPS4_
Omc:__ZN14qsort_internal5QSortIP15RODataDepthPassi17ROSorterDepthPassEEvT_S4_T0_T1_
Wtf:_UNITY_ft_glyphslot_alloc_bitmap
qjf:__ZN13PhysicsModule21SetAutoSyncTransformsEbb
cpk:_ReadOnlyCollection_1_System_Collections_IList_Add_m3642938800_gshared
RMi:_RSASslSignatureDeformatter_SetHashAlgorithm_m895570787
opa:__ZL36TransformAccessArray_InitializeClassPv
bCm:__ZN14dense_hash_mapI10KeyWrapperIP12Il2CppObjectEN6il2cpp2gc9CachedCCWENS4_5utils11PointerHashIS1_EENS3_14EqualsComparerINSt3__28equal_toIS2_EEEENSB_9allocatorINSB_4pairIKS3_S6_EEEEEC2EjRKS9_RKSE_
CCl:_X509CrlEntry__ctor_m4013514048
i9l:__ZN15dense_hashtableI10KeyWrapperIPK17Il2CppGenericInstES4_N6il2cpp8metadata21Il2CppGenericInstHashEN14dense_hash_setIS4_S7_NS4_14EqualsComparerINS6_24Il2CppGenericInstCompareEEENSt3__29allocatorIS4_EEE8IdentityESB_SE_E16reset_thresholdsEv
cUk:__Z87RuntimeInvoker_Color_t2555686324_Color_t2555686324_Color_t2555686324_Single_t1397266774PFvvEPK10MethodInfoPvPS4_
idf:__ZN5physx6shdfnd10Foundation19AlignCheckAllocator8allocateEjPKcS4_i
Gnk:_Collection_1_System_Collections_IList_get_IsReadOnly_m2288996004_gshared
jMk:__Z95RuntimeInvoker_Void_t1185182177_RuntimeObject_RuntimeObject_SByte_t1669577662_Int32_t2950945753PFvvEPK10MethodInfoPvPS4_
L7c:__Z47Register_UnityEngine_Mesh_RecalculateBoundsImplv
EGb:__ZN9GfxDevice27UpdateComputeSkinPoseBufferEP9GfxBufferP12SkinMeshInfo
a6j:_Enumerator_get_Current_m3382684163_AdjustorThunk
ghi:_InternalEnumerator_1_System_Collections_IEnumerator_Reset_m3677481164_AdjustorThunk
RVi:_String_LastIndexOf_m3451222878
qVm:__ZNKSt3__221__basic_string_commonILb1EE20__throw_length_errorEv
H$j:_EqualityComparer_1_System_Collections_IEqualityComparer_Equals_m245992594_gshared
Ij:_JS_SystemInfo_GetMemory
AKj:_Array_InternalArray__IndexOf_TisParameterModifier_t1461694466_m1227120810_gshared
eec:__ZN18GfxFramebufferGLES13ReadbackImageER14ImageReferenceiiiiii
Gdd:__ZN5Unity9rapidjson6WriterI16TempBufferWriterNS0_4UTF8IcEES4_13JSONAllocatorE11WriteStringEPKcj
RZg:__ZL95WebRequestUtils_t3541624225_CustomAttributesCacheGenerator_WebRequestUtils_RedirectTo_m55747000P21CustomAttributesCache
zDa:__ZN6prcoreL12RemapGenericI17TexFormatARGB888815TexFormatRGB565EEvPKNS_9InnerInfoE
u4:__ZN4FMOD7Channel19setReverbPropertiesEPK29FMOD_REVERB_CHANNELPROPERTIES
fRl:_StandardEventPayload_GetParameters_m2672427676
Gpj:_StreamReader_Dispose_m156389394
Fsa:__ZN13MonoBehaviour22GetScriptFullClassNameEv
yrm:_il2cpp_object_get_class
fQi:_SymmetricAlgorithm_get_Padding_m1011382560
H_c:__ZN13ProduceHelperI11MonoManagerLb0EE7ProduceE10MemLabelId18ObjectCreationMode
Xwl:_RIPEMD160Managed_JJ_m112143231
H3e:__ZN5physx6shdfnd4sortIPNS_15PxsContactPatchENS_27SortBoundsPredicateManifoldENS0_19ReflectionAllocatorIS3_EEEEvPT_jRKT0_RKT1_j
_lc:__ZN13BatchRendererC2ER15RenderLoopStatsRK15RenderNodeQueuebb
Rsi:_Comparer_1__ctor_m191896560_gshared
LPj:_PreviousInfo_t2148130204_marshal_pinvoke_back
bFb:__ZNK16MemoryFileSystem9EnumerateEPKcP19dynamic_block_arrayI13FileEntryInfoLj32EEbPPv19FileEnumerationFlag
w1b:__ZN13MonoBehaviour9CallAwakeEv
j2a:__ZN20SphericalHarmonicsL211AddWeightedERKS_f
fFe:__ZN5physx2Sc24ElementInteractionMarker12onDeactivateEj
mJk:__Z82RuntimeInvoker_RuntimeObject_Int64_t3736567304_Int64_t3736567304_Int64_t3736567304PFvvEPK10MethodInfoPvPS4_
p_h:__Z14bankers_roundff
bSb:__Z19TransferField_ArrayI17RemapPPtrTransfer27Converter_SimpleNativeClassI8GUIStyleEEvRK23StaticTransferFieldInfoR31RuntimeSerializationCommandInfoRT0_
Dna:__ZL22StaticInitializeShaderPv
ued:__ZN9JSONWrite8TransferI10ColorRGBAfEEvRT_PKc17TransferMetaFlags
rym:__ZNK15dense_hashtableINSt3__24pairIK10KeyWrapperIP14Il2CppIUnknownEjEES5_N6il2cpp5utils11PointerHashIS3_EEN14dense_hash_mapIS5_jSB_NS5_14EqualsComparerINS0_8equal_toIS4_EEEENS0_9allocatorIS7_EEE9SelectKeyESG_SI_E10test_emptyERK30dense_hashtable_const_iteratorIS7_S5_SB_SK_SG_SI_E
D$d:__ZN5physx3Cct26CharacterControllerManager16createControllerERKNS_16PxControllerDescE
LNf:__ZN11UnityEngine9Analytics22EventLimitResumedEventC2EjRKN4core12basic_stringIcNS2_20StringStorageDefaultIcEEEEb
xpi:_InternalEnumerator_1__ctor_m3913006324_AdjustorThunk
_sa:__Z25scripting_method_get_name18ScriptingMethodPtr
aNi:_SslCipherSuite_ComputeKeys_m661027754
uQb:__Z19TransferField_ArrayI14SafeBinaryRead16Converter_StringEvRK23StaticTransferFieldInfoR31RuntimeSerializationCommandInfoRT0_
Txh:_Object_set_name_m291480324
fLg:__ZL68UpdateCanvasRectTransform_t1832875547_CustomAttributesCacheGeneratorP21CustomAttributesCache
msj:_Convert_ToBoolean_m481380807
Csd:__ZN14ParticleSystem17SimulateParticlesER24ParticleSystemUpdateDataR23ParticleSystemParticlesjRKfPj
uBj:_Decimal_Equals_m2486655999
zFk:_TweenRunner_1_StopTween_m3457627707_gshared
MOl:_GameManager_set_Instance_m3367565923
Lgh:_AssemblyName_SetPublicKeyToken_m582470133
qT:__ZN7mecanim9animation9DenseClip8TransferI14SafeBinaryReadEEvRT_
UDd:__ZL24GenerateParticleGeometryIL24ParticleSystemRenderMode0ELb1ELb1EL25ParticleSystemRenderSpace4EEvPfRK22ParticleSystemTempDataRK26ParticleSystemRendererDataRK21ParticleSystemModulesRK23ParticleSystemParticlesRK31ParticleSystemParticlesTempData
UUk:__Z52RuntimeInvoker_Boolean_t97287965_HitInfo_t3229609740PFvvEPK10MethodInfoPvPS4_
i9:__ZNK4PPtrI9AudioClipEcvPS0_Ev
Mok:_Collection_1_set_Item_m11553568_gshared
yra:__Z20UnlockObjectCreationv
Gxk:__ZN16VirtFuncInvoker2Ii19Color32_t2600501292S0_E6InvokeEjP12Il2CppObjectS0_S0_
fqc:__Z34SetupObjectBakedOcclusionInForwardbRK15SharedLightDataRK26SharedLightmapSettingsDataRK15LightmapIndicesR17ShaderPassContext
zSj:_DSAManaged_get_Random_m923751780
spa:__ZL29TransformAccessChangeCallbackPK15TransformAccessj
yHd:__ZN10SizeModuleC2E10MemLabelId
LGh:_Vector3_set_Item_m1772472431_AdjustorThunk
Pci:_Interpreter_PopulateGroup_m4042796257
vOf:__ZN9Scripting11UnityEngine10Networking18CertificateHandler9InitProxyEv
iRf:__ZN9Scripting11UnityEngine12Experimental2XR13TrackableType9InitProxyEv
$fk:_Type_GetProperty_m3414567179
exm:__ZN6il2cpp2vm13LivenessState25FieldCanContainReferencesEP9FieldInfo
vzc:__ZNSt3__26vectorINS_4pairIN4core12basic_stringIcNS2_20StringStorageDefaultIcEEEES6_EE13stl_allocatorIS7_L18MemLabelIdentifier38ELi16EEE6insertENS_11__wrap_iterIPKS7_EERSD_
Hsh:_RenderPipelineManager_DoRenderLoop_Internal_m3799666479
dQg:__ZL78Sprite_t280657092_CustomAttributesCacheGenerator_Sprite_get_packed_m1179604684P21CustomAttributesCache
jO:__ZN9BlobWrite8TransferI22OffsetPtrArrayTransferI9OffsetPtrIN7mecanim12statemachine18StateMachineMemoryEEEEEvRT_PKc17TransferMetaFlags
sPm:__ZN6il2cpp2os12Cryptography23GetCryptographyProviderEv
kVl:__ZL24UnresolvedVirtualCall_27P12Il2CppObjectS0_aPK10MethodInfo
s_c:__Z13RegisterClassI14PlayerSettingsEvPKc
Gf:_emscripten_glStencilOpSeparate
Jvl:_Collection_1_System_Collections_IList_IndexOf_m3894953546_gshared
gOi:_RSACryptoServiceProvider_OnKeyGenerated_m863837376
OAl:_PKCS12_get_Certificates_m26161562
x4h:_NameObjectCollectionBase_Init_m2525481323
epc:__ZN15SkyboxGenerator28GetCubemapSkyboxVertexFormatEv
pJb:__ZN19ShaderPropertySheet24SetTextureWithExplicitIDERK23FastTexturePropertyNameP7Texture9TextureID
E7j:_List_1_Insert_m1582252370_gshared
sIm:__ZN6il2cpp2vm6String8NewUtf16EPKDsi
ANh:_SByte_System_IConvertible_ToByte_m2268214252_AdjustorThunk
QFm:__ZN6il2cpp2os10ThreadImpl12QueueUserAPCEPFvPvES2_
_jl:_List_1_get_Capacity_m3047075120_gshared
lba:__Z32TransferEnumWithNameForceIntSizeI14SafeBinaryReadN10SampleClip17CompressionFormatEEvRT_RT0_PKc17TransferMetaFlags
SHl:_RegularExpression__ctor_m119502265
_Nf:__ZN22BaseUnityConnectClient10QueueEventERN11UnityEngine15CloudWebService17CloudServiceEventEPKcjb
b1d:__ZN5physx12PxControllerD2Ev
irk:_ReadOnlyCollection_1_System_Collections_Generic_ICollectionU3CTU3E_Clear_m522482168_gshared
A0k:__Z60RuntimeInvoker_Boolean_t97287965_PlayerLoopSystem_t105772105PFvvEPK10MethodInfoPvPS4_
Tih:_DerivedType_IsByRefImpl_m2585680005
Yhg:_ConstructionCall_InitMethodProperty_m2021094586
J5c:__Z27Texture_CUSTOM_GetDataWidthP12Il2CppObject
jTd:__ZNK5physx2Gu15HeightFieldUtil12traceSegmentI25CapsuleTraceSegmentReportLb0ELb0ELb1EEEvRKNS_6PxVec3ES6_PT_PS5_
Q_d:__ZN5physx3Cct17CapsuleController13setStepOffsetEf
Wrd:__Z9UpdateTplIL27ParticleSystemCurveEvalMode1EEvRK11MinMaxCurveR23ParticleSystemParticlesjjbjRK8Vector2f
JXe:__ZN5physx10PxsContext23prepareCMDiscreteUpdateEPNS_10PxBaseTaskE
NCc:__ZN15SerializeTraitsIN4math14float3_storageEE8TransferI14SafeBinaryReadEEvRS1_RT_
YSg:__ZL95TextGenerator_t3211863866_CustomAttributesCacheGenerator_TextGenerator_get_lineCount_m916872812P21CustomAttributesCache
v4g:__ZL74CanvasScaler_t2767979955_CustomAttributesCacheGenerator_m_DefaultSpriteDPIP21CustomAttributesCache
iie:__ZN5physx6shdfnd5ArrayIPvNS0_19ReflectionAllocatorINS_2Cm5BlockIhLj256EEEEEE4copyINS0_15InlineAllocatorILj256ES7_EEEEvRKNS1_IS2_T_EE
Zf:_emscripten_glGetError
Tmm:__ZN15dense_hashtableINSt3__24pairIK10KeyWrapperIPK14Il2CppAssemblyEPK22Il2CppMonoAssemblyNameEES6_N6il2cpp5utils11PointerHashIS4_EEN14dense_hash_mapIS6_SA_SF_NS6_14EqualsComparerINS0_8equal_toIS5_EEEENS0_9allocatorISB_EEE9SelectKeyESK_SM_E14squash_deletedEv
e$i:_SmallXmlParser__ctor_m202236734
w5:__Z14FMOD_FILE_SeekPvjS_
bwl:_Collection_1_RemoveAt_m2240641437_gshared
Ole:__ZN5physx6shdfnd8PoolBaseINS_11NpAggregateENS0_19ReflectionAllocatorIS2_EEE15disposeElementsEv
bYg:__ZL81Physics_t2310948930_CustomAttributesCacheGenerator_Physics_RaycastAll_m2709753186P21CustomAttributesCache
e4a:__ZN7TextureC2E10MemLabelId18ObjectCreationMode
aWh:_LayoutGroup__ctor_m2162961217
xSd:__ZThn4_N16RayRTreeCallbackILi1ELb1EE14processResultsEjPj
mFf:__ZZN2UI6Canvas15InitializeClassEvEN39FunctorImpl_1449kCanvasHierarchyChanged4CallEPviR11MessageData
Rjk:_ValueType_t3640485471_marshal_pinvoke_cleanup
Dwc:__ZNK13RenderTexture32CalculateNeedsInvertedProjectionEv
Y$d:__ZN5physx2Gu17RadixSortBuffered4SortEPKfj
fg:emscriptenWebGLGet
tva:__Z19CanReplaceComponentRN5Unity9ComponentEPKNS_4TypeEPN4core12basic_stringIcNS5_20StringStorageDefaultIcEEEE
rah:_UnmanagedMemoryStream_Flush_m1540584491
Dul:_Collection_1_GetEnumerator_m3986802482_gshared
Dgj:_GuidParser_ParseGuid2_m1914838819
cYc:__ZN12CubemapArray11InitTextureEiii13TextureFormatb
nab:__ZN6prcoreL18BlitIntegerToFloatERK14ImageReferenceRS0_
j4h:_ListDictionary_get_SyncRoot_m4242825143
s5k:__Z36RuntimeInvoker_Enumerator_t185561725PFvvEPK10MethodInfoPvPS4_
WAd:__ZN32CustomDataModulePropertyBindings13SetFloatValueER14ParticleSystemif
SKc:__Z17GetSceneBuildInfoRKN4core12basic_stringIcNS_20StringStorageDefaultIcEEEEiR14SceneBuildInfo
Jgl:_List_1_System_Collections_IList_get_Item_m1112579679_gshared
dtg:__ZL70ReliabilityContractAttribute_t502331440_CustomAttributesCacheGeneratorP21CustomAttributesCache
lgi:_InternalEnumerator_1_System_Collections_IEnumerator_get_Current_m55999184_gshared
gBi:_ValueCollection_System_Collections_Generic_ICollectionU3CTValueU3E_Contains_m1842955046_gshared
Ijm:__ZN24dense_hashtable_iteratorINSt3__24pairIK10KeyWrapperIPK10Il2CppTypeEjEES6_N6il2cpp8metadata14Il2CppTypeHashEN14dense_hash_mapIS6_jSB_NS6_14EqualsComparerINSA_26Il2CppTypeEqualityComparerEEENS0_9allocatorIS8_EEE9SelectKeyESF_SH_E30advance_past_empty_and_deletedEv
OXl:__ZL25UnresolvedVirtualCall_165P12Il2CppObjectiiPK10MethodInfo
Z1f:_Graphic_get_depth_m815589653
S4d:__ZN27ConvexVsMeshOverlapCallbackC2ERKN5physx2Gu10ConvexMeshERKNS0_11PxMeshScaleERKNS0_2Cm23FastVertex2ShapeScalingERKNS0_11PxTransformESE_bRKNS1_3BoxE
H2c:__Z18SetIParticleSystemP15IParticleSystem
c_f:_ContentSizeFitter_get_horizontalFit_m2773126143
zWh:_LayoutGroup_SetLayoutInputForAxis_m2458344630
SO:__ZN7mecanim5human13HumanFixTwistEPKNS0_5HumanEPNS_8skeleton13SkeletonPoseTIN4math4trsXEEES9_iiRKf
Upc:__ZL24AssignProjectorQueuesJobP30AssignProjectorQueuesJobHeader
WWj:_KeyValuePair_2_get_Key_m1218836954_gshared
Rag:_ParameterModifier_t1461694466_marshal_pinvoke
DIc:__ZNSt3__26vectorIN9ShaderLab20SerializedSubProgram15StructParameterENS_9allocatorIS3_EEE21__push_back_slow_pathIS3_EEvOT_
Ohj:_Int16_System_IConvertible_ToUInt32_m3410279543
qIc:__ZN9ShaderLab20SerializedSubProgram14SetConstBufferEPKci
pob:__Z22SkinVerticesGenericCPUILi2ELb1ELb0EEvPKhiiiiPhiPKvS4_
frd:__ZN11ShapeModule9ResetSeedERK27ParticleSystemReadOnlyState
Khm:__ZN6il2cpp2os4File5CloseEPNS0_10FileHandleEPi
bam:__ZNSt3__27__sort5IRN6il2cpp5utils11collections13ArrayValueMapIPK10Il2CppType17Il2CppInteropData26InteropDataToTypeConverterNS1_8metadata14Il2CppTypeLessENSA_26Il2CppTypeEqualityComparerEE12SortComparerEPS8_EEjT0_SH_SH_SH_SH_T_
xEh:_Touch_get_fingerId_m859576425_AdjustorThunk
Yif:__ZN13PhysicsModule17SetRigidBodyStateER9RigidbodyRKN8IPhysics14RigidBodyStateE
f0k:__Z48RuntimeInvoker_Boolean_t97287965_Link_t544317964PFvvEPK10MethodInfoPvPS4_
Uof:_cf2_getStdVW
pil:_List_1_System_Collections_ICollection_CopyTo_m2688165607_gshared
R$k:__Z53RuntimeInvoker_UIVertex_t4057497605_Int32_t2950945753PFvvEPK10MethodInfoPvPS4_
khk:_UInt16_CompareTo_m2664746316_AdjustorThunk
pBi:_ValueCollection_GetEnumerator_m616748621_gshared
AFb:__ZN9GfxDevice13SetActiveTierE12GraphicsTier
LOe:__ZN5physx2Sq12BucketPruner11shiftOriginERKNS_6PxVec3E
gjd:__Z29Transfer_Blittable_ArrayFieldI8JSONReadjEvRT_R9ArrayInfoRK23StaticTransferFieldInfo
h8d:__ZN5physx6shdfnd5ArrayIPNS_2Sc16ArticulationCoreENS0_19ReflectionAllocatorIS4_EEE15growAndPushBackERKS4_
YXk:__Z54RuntimeInvoker_Vector2_t2156229523_Vector2_t2156229523PFvvEPK10MethodInfoPvPS4_
NMm:_GC_check_finalizer_nested
Ng:__setLetterbox
ifk:_Type_FilterAttribute_impl_m2354619618
q0h:_ScrollRect_OnScroll_m3861066534
g2e:__ZN5physx19normalizePartitionsERNS_6shdfnd5ArrayIjNS0_19ReflectionAllocatorIjEEEEPNS_23PxcSolverConstraintDescEPKNS_13PxcSolverBodyEjjS5_
yFj:_Array_InternalArray__ICollection_Contains_TisResourceCacheItem_t51292791_m2991582559_gshared
dv:__ZN13HeightmapData8TransferI18StreamedBinaryReadILb0EEEEvRT_
OPg:__ZL72FormerlySerializedAsAttribute_t2859083114_CustomAttributesCacheGeneratorP21CustomAttributesCache
$Rh:_OnValidateInput_Invoke_m1009124904
VXd:__ZN18ContactCapsuleMesh20processTriangleCacheILj16EEEbRN5physx2Gu13TriangleCacheIXT_EEE
HEl:_PatternCompiler_EmitFastRepeat_m3012952683
Dmb:__ZNSt3__26vectorI17BlendShapeChannelNS_9allocatorIS1_EEE6assignINS_11__wrap_iterIPS1_EEEENS_9enable_ifIXaasr21__is_forward_iteratorIT_EE5valuesr16is_constructibleIS1_NS_15iterator_traitsISA_E9referenceEEE5valueEvE4typeESA_SA_
H6b:__Z12SetGfxDeviceP9GfxDevice
BBc:__ZN11TimeManager11GetRealtimeEv
pMg:__ZL91RectOffset_t1369453676_CustomAttributesCacheGenerator_RectOffset_get_horizontal_m2663785949P21CustomAttributesCache
Pxh:_Object_GetHashCode_m1944636947
P3d:__ZN5physx2Sc16InteractionScene25removeFromActiveActorListERNS0_5ActorE
S5:__ZN29AudioEffectInternalDefinitionC2EP26UnityAudioEffectDefinitionb
dwk:_ReadOnlyCollection_1_System_Collections_IList_Remove_m2434650390_gshared
Dhk:_UInt16_ToString_m3056878594_AdjustorThunk
UQ:__ZN4PPtrI6AvatarE8TransferI18StreamedBinaryReadILb0EEEEvRT_
RXj:_Dictionary_2_System_Collections_Generic_ICollectionU3CSystem_Collections_Generic_KeyValuePairU3CTKeyU2CTValueU3EU3E_Contains_m2803718146_gshared
Mld:__ZNK11MinMaxCurve20FindMinMaxIntegratedEv
TKd:__ZN5physx3Ext21InertiaTensorComputer6rotateERKNS_7PxMat33E
QQl:_EventTrigger_set_repeatTime_m1188543944
Mdi:_Interval_get_IsSingleton_m3386290029
kZc:__ZN12LineRenderer15InitializeClassEv
eqm:__ZNSt3__2plIcNS_11char_traitsIcEENS_9allocatorIcEEEENS_12basic_stringIT_T0_T1_EERKS9_PKS6_
ILf:__ZN18UnityConnectClient27OnPlayerSessionStateChangedEjyy
T9a:_stbir_resize
OJj:_Array_IndexOf_TisCustomAttributeTypedArgument_t2723150157_m3158556463_gshared
h$j:_EqualityComparer_1_System_Collections_IEqualityComparer_GetHashCode_m360549782_gshared
xEj:_Environment_GetOSVersionString_m407782784
NXi:_DecoderExceptionFallback_Equals_m1082173956
_ei:_U3CGetEnumeratorU3Ec__Iterator0__ctor_m1150758267_gshared
Jrg:__ZL69Assembly_t_CustomAttributesCacheGenerator_Assembly_GetName_m981771927P21CustomAttributesCache
VFa:__ZL59__ManagedRegistrationHelperFunction_AsyncGPUReadbackRequestPv
gJg:__ZL93Mesh_t3648964284_CustomAttributesCacheGenerator_Mesh_GetAllocArrayFromChannelImpl_m3084065604P21CustomAttributesCache
Blb:__ZN4PPtrI4MeshE8TransferI14SafeBinaryReadEEvRT_
JYe:__ZN5physx23PxcPCMContactCapsuleBoxERKNS_2Gu13GeometryUnionES3_RKNS_11PxTransformES6_RKfRNS_10PxcNpCacheERNS0_13ContactBufferE
qDb:__Z37ReadDirectoryInfo_UnityWebAndUnityRawR12FileAccessorRKN20ArchiveStorageHeader6HeaderERNS1_13DirectoryInfoE
Fpa:__ZNSt3__26__treeINS_12__value_typeIPKciEENS_19__map_value_compareIS3_S4_15compare_tstringIS3_ELb1EEENS_9allocatorIS4_EEE7destroyEPNS_11__tree_nodeIS4_PvEE
j7k:_Array_InternalArray__Insert_TisIntPtr_t_m189626842_gshared
$8h:_X509Certificate2_get_IssuerName_m1277209535
KNj:_Locale_GetText_m3374010885
wnk:_Collection_1_System_Collections_IEnumerable_GetEnumerator_m1598238343_gshared
wwl:_RijndaelManaged_CreateEncryptor_m263736311
zdk:_WaitCallback__ctor_m1893321019
$nj:__ZN25GenericVirtActionInvoker3IP22ByteU5BU5D_t4116647657iiE6InvokeEPK10MethodInfoP12Il2CppObjectS1_ii
Lmc:__ZN20DynamicPropertySheet14SetValueQueuedEN9ShaderLab16FastPropertyNameEN19ShaderPropertySheet12PropertyTypeEjNS2_8SetFlagsE
Arh:_InvokableCallList_ClearPersistent_m1904264973
oxd:__Z25UpdateOrbitalAndRadialTplIL27ParticleSystemCurveEvalMode3ELS0_1ELS0_2EEvRK11MinMaxCurveS3_S3_S3_S3_S3_S3_R23ParticleSystemParticlesjjRKN4math8float3x3ERKNS6_7affineXERKNS6_7_float4E
G2b:__ZN25PathNamePersistentManagerD2Ev
hub:__ZN17PersistentManager48IntegrateObjectAndUnlockIntegrationMutexInternalEi
whm:_NavMeshAgent_INTERNAL_CALL_SetDestination_m233602864
kOg:__ZL85NativeDisableUnsafePtrRestrictionAttribute_t2582701661_CustomAttributesCacheGeneratorP21CustomAttributesCache
WBa:__ZZ29InitializeSortingGroupManagerPvEN44PostLateUpdateSortingGroupsUpdateRegistrator7ForwardEv
d_g:__ZL55EventTrigger_t1076084509_CustomAttributesCacheGeneratorP21CustomAttributesCache
SSi:_SecurityElement_SearchForChildByTag_m900466299
Gq:__ZN6Object12SetHideFlagsENS_9HideFlagsE
INd:__ZN9Rigidbody23VirtualRedirectTransferER14SafeBinaryRead
mwj:_Convert_ToSingle_m3227075028
w0m:_emscripten_glGetFramebufferAttachmentParameteriv__wrapper
Tvc:__ZN13RendererScene15InitializeUmbraEv
ozi:__ZN21InterfaceFuncInvoker2I26KeyValuePair_2_t2401056908P12Il2CppObjectiE6InvokeEjP11Il2CppClassS2_S2_i
v$a:__Z28CalculateGlobalMatrixInverse23TransformAccessReadOnly
owh:_MonoBehaviour__ctor_m1579109191
EWg:__ZL59GUITargetAttribute_t25796337_CustomAttributesCacheGeneratorP21CustomAttributesCache
wzd:__ZN23ParticleSystemParticles17SetUsesCustomDataEi
m2j:_GenericEqualityComparer_1_Equals_m3457564127_gshared
HCi:_BigInteger_ModInverse_m2426215562
CAa:__ZN17CallbackArrayBaseIPFvPK9IndexListPK16RendererCullDataEPFvPKvS2_S5_EE8RegisterES7_SB_S9_
Uhi:_InternalEnumerator_1_System_Collections_IEnumerator_Reset_m2386791007_AdjustorThunk
JXi:_DecoderExceptionFallback__ctor_m4044614564
Mji:_InternalEnumerator_1_System_Collections_IEnumerator_Reset_m3011999097_AdjustorThunk
bwe:__ZNK5physx15PxsParticleData15getWorldBoundsVEv
WLd:__ZN15CapsuleCollider13AwakeFromLoadE17AwakeFromLoadMode
wah:_LocalDataStoreSlot__cctor_m644942532
mZd:__ZN12_GLOBAL__N_124HfTrianglesEntityReport27onEventEjPj
_Qm:__ZN6il2cpp6icalls8mscorlib6System6Object7GetTypeEP12Il2CppObject
O9f:_MonoProperty_CachePropertyInfo_m2968057423
Bye:__ZN5physx22NpParticleBaseTemplateINS_16PxParticleSystemENS_16NpParticleSystemEE17setStaticFrictionEf
DOf:__ZNK25UnityWebRequestJavaScript18GetDownloadedBytesEv
fAh:_Ray_GetPoint_m1852405345_AdjustorThunk
aqg:__ZL53RegionInfo_t1090270226_CustomAttributesCacheGeneratorP21CustomAttributesCache
JYg:__ZL85Canvas_t3310196443_CustomAttributesCacheGenerator_Canvas_get_sortingOrder_m1860900812P21CustomAttributesCache
llg:__ZL74Single_t1397266774_CustomAttributesCacheGenerator_Single_IsNaN_m4024467661P21CustomAttributesCache
hhe:__ZN5physx17PxsContactManager16resetCachedStateEv
POf:__ZN12HeaderHelper14SetUnvalidatedERKN4core12basic_stringIcNS0_20StringStorageDefaultIcEEEES6_b
_3:__ZN4FMOD6SoundI7releaseEv
_Ae:__ZN5physx20NpRigidActorTemplateINS_14PxRigidDynamicEE15setActorSimFlagEb
h8:__ZN5audio5mixer13GroupConstant8TransferI14SafeBinaryReadEEvRT_
vqf:_cff_parse_num
UDb:__ZN10MemoryFile9SetLengthEy
aZ:__ZN7mecanim10ValueArray8TransferI19StreamedBinaryWriteILb0EEEEvRT_
hUb:__ZN5RectTIiE8TransferI24GenerateTypeTreeTransferEEvRT_
B$d:__ZNK5physx3Cct26CharacterControllerManager16getNbControllersEv
$1b:__Z28scripting_class_is_interface17ScriptingClassPtr
ci:_glTexStorage2D
Bdj:_CultureInfo_ConstructInternalLocaleFromName_m4012802696
I6a:__ZNK9ShaderLab10SubProgram14EnsureCompiledEv
Klh:_MethodBuilder_GetGenericArguments_m1765425737
Tyj:_DateTime_CompareTo_m3687348273
CLm:_GC_push_marked
qzj:_DateTime_ToUniversalTime_m1945318289_AdjustorThunk
jif:__ZN5physx7profile10DataBufferINS_6shdfnd6MutexTINS0_26WrapperReflectionAllocatorIhEEEENS0_14ScopedLockImplIS6_EEE17handleBufferFlushEPKhj
Ibj:_EventArgs__ctor_m32674013
avj:_Convert_ToInt16_m1336719169
Qsa:__Z18BuildScriptClassId17ScriptingClassPtr
m_l:_TextGenerator_Init_m1168488231
XTj:_RSAManaged_Finalize_m3915335854
Dq:__ZNK16LevelGameManager7GetNameEv
CBb:__ZL31DeleteLastPathNameComponentImplRKN4core12basic_stringIcNS_20StringStorageDefaultIcEEEEPKc
jAj:_DBNull_System_IConvertible_ToUInt64_m4072736670
LIf:__ZN18UnityConnectClient15GetCloudServiceEv
NPb:__Z29Transfer_Blittable_ArrayFieldI14SafeBinaryRead5RectTIiEEvRT_R9ArrayInfoRK23StaticTransferFieldInfo
T4e:__ZN5physx20PxsConstraintProjectEPKNS_13PxsConstraintEbf
Koe:__ZN5physx7NpShape7setFlagENS_11PxShapeFlag4EnumEb
Aki:_InternalEnumerator_1_get_Current_m2698009637_gshared
Edm:__ZN6il2cpp2os19SocketHandleWrapperD2Ev
Gxh:_U3CAddAndCreateU3Ec__AnonStorey1__ctor_m1186055370
V1b:__ZL28SerializationCommandGroupForRK31TransferFunctionScriptingTraits17ScriptingClassPtr17ScriptingFieldPtrRK20CoreScriptingClasses
oQa:__ZN10TagManager32RegisterDefaultTagsAndLayerMasksEv
Mdk:_WaitHandle_Dispose_m738127030
zu:__ZN14HeightMeshDataC2ERKS_
kml:_List_1_System_Collections_IList_get_IsReadOnly_m1729002068_gshared
pPk:__Z50RuntimeInvoker_Double_t594665363_Int32_t2950945753PFvvEPK10MethodInfoPvPS4_
Qzk:_Predicate_1_EndInvoke_m1490920825_gshared
jCg:__ZL78LoaderOptimization_t1484956347_CustomAttributesCacheGenerator_DisallowBindingsP21CustomAttributesCache
Q0e:__ZN5physx2Sc35ParticleElementRbElementInteraction12onDeactivateEj
WYk:__Z104RuntimeInvoker_Void_t1185182177_Color_t2555686324_Single_t1397266774_SByte_t1669577662_SByte_t1669577662PFvvEPK10MethodInfoPvPS4_
Kll:_List_1_Remove_m3853969205_gshared
s6j:_Enumerator_System_Collections_IEnumerator_get_Current_m1540440674_gshared
OTi:_Single_System_IConvertible_ToInt16_m809233024_AdjustorThunk
zGg:__ZL64FreeFunctionAttribute_t2020741617_CustomAttributesCacheGeneratorP21CustomAttributesCache
eIf:__Z56Register_UnityEngine_Analytics_CustomEventData_AddUInt32v
ETm:_fmodf
Azm:__ZN6il2cpp2vm5Image13ClassFromNameEPK11Il2CppImagePKcS6_
YFa:__ZL47__ManagedRegistrationHelperFunction_CullResultsPv
lbc:__ZN4gles8InitCapsEP7ApiGLESP12GraphicsCapsR16GfxDeviceLevelGL
jab:__ZN6prcore14BlitImageFloatERK14ImageReferenceRS0_NS0_8BlitModeE
R1a:__Z24CalculateVertexLightDataRK15SharedLightDataR14GfxVertexLight
zOl:_U3CStartU3Ec__Iterator0_System_Collections_IEnumerator_get_Current_m3376806063
Mi:_glEnable
flm:__ZN15dense_hashtableINSt3__24pairIK10KeyWrapperINS1_IPK12PropertyInfoP11Il2CppClassEEEjEES9_17ReflectionMapHashIS8_EN14dense_hash_mapIS9_jSD_NS9_14EqualsComparerINS0_8equal_toIS8_EEEENS0_9allocatorISB_EEE9SelectKeyESI_SK_E15insert_noresizeERKSB_
Ev:__ZN7NavMesh10RemoveTileEyiPPKhPi
E6a:__ZNK9ShaderLab7Program28BeginReadUnsupportedVariantsEv
Fja:__Z37RegisterModuleICalls_CloudWebServicesv
rYl:__ZL25UnresolvedVirtualCall_196P12Il2CppObject22UILineInfo_t4195266810S1_PK10MethodInfo
Msb:__ZNSt3__26vectorIN30RuntimeInitializeOnLoadManager9ClassInfoE13stl_allocatorIS2_L18MemLabelIdentifier13ELi16EEE7reserveEj
uKe:__ZN5physx2Sq8AABBTreeC2Ev
mEl:_PatternCompiler_EmitCategory_m851169746
Ged:__Z35Transfer_Blittable_FixedBufferFieldI9JSONWriteiEvRK29SerializationCommandArgumentsR31RuntimeSerializationCommandInfo
PUg:__ZL85AudioSource_t3935305588_CustomAttributesCacheGenerator_AudioSource_set_clip_m31653938P21CustomAttributesCache
DAd:__ZN11TrailModuleD2Ev
EQj:_BigInteger_op_Subtraction_m1575155386
PK:__ZN26AnimatorControllerPlayable17ProcessRootMotionEP35AnimationPlayableEvaluationConstantP32AnimationPlayableEvaluationInputP33AnimationPlayableEvaluationOutput
hGi:_RSAManaged_ImportParameters_m1117427048
Evg:__ZL54SoapServices_t133988723_CustomAttributesCacheGeneratorP21CustomAttributesCache
V9g:_UnexceptionalStreamReader_Peek_m1842169584
PJf:__ZN11UnityEngine7Connect15DeviceInfoEvent16CollectExtraInfoEv
oJm:__ZN6il2cpp2os11Environment22SetEnvironmentVariableERKNSt3__212basic_stringIcNS2_11char_traitsIcEENS2_9allocatorIcEEEESA_
qql:_Queue_1_System_Collections_IEnumerable_GetEnumerator_m3464578225_gshared
IHh:_TypeInferenceRuleAttribute__ctor_m2736695831
U7e:__ZN5physx2Gu10ConvexMeshD2Ev
I2g:__ZL66Navigation_t3049316579_CustomAttributesCacheGenerator_m_SelectOnUpP21CustomAttributesCache
Kmm:__ZN6il2cpp2gc19AppendOnlyGCHashMapIPK10Il2CppTypeP20Il2CppReflectionTypeNS_8metadata14Il2CppTypeHashENS7_26Il2CppTypeEqualityComparerEEC2Ev
kHh:_Vector4_Equals_m1779210055_AdjustorThunk
d3a:__ZN17LightBakingOutput8TransferI19StreamedBinaryWriteILb0EEEEvRT_
OUm:_atoi
qhc:__ZN20ArchiveStorageReader10InitializeER15FileSystemEntryyb
adk:_ThreadInterruptedException__ctor_m4104953416
HJm:__ZThn8_N6il2cpp2vm13CachedCCWBaseINS0_13ManagedObjectEE6AddRefEv
Eyf:_New_Profile
rpk:_ReadOnlyCollection_1_GetEnumerator_m3690861713_gshared
FQj:_ModulusRing_BarrettReduction_m167376748
UIh:_RemotingServices_GetRealProxy_m2081098851
gSj:_BlockProcessor_Core_m189015002
d8l:__ZN15dense_hashtableINSt3__24pairIK10KeyWrapperIPKcEP11Il2CppClassEES5_N6il2cpp5utils11StringUtils12StringHasherIS4_EEN14dense_hash_mapIS5_S8_SE_NS5_14EqualsComparerINSB_13VmStringUtils21CaseSensitiveComparerEEENS0_9allocatorIS9_EEE9SelectKeyESJ_SL_EC2EjRKSE_RKSJ_RKSN_
E0m:_emscripten_glScissor__wrapper
qp:FUNCTION_TABLE_viifi
tp:FUNCTION_TABLE_viiff
lZc:__ZN12LineRenderer12CleanupClassEv
b2d:__ZNK5physx2Sc8ShapeSim10getBodySimEv
D_i:_X501__cctor_m1166912714
__g:__ZL102PointerEventData_t3807901092_CustomAttributesCacheGenerator_PointerEventData_set_lastPress_m2928324031P21CustomAttributesCache
Fng:__ZL37Type_t_CustomAttributesCacheGeneratorP21CustomAttributesCache
MD:__ZN9Scripting11UnityEngine14AnimationState9InitProxyEv
koh:_Bounds_ToString_m4208690781
Usm:__ZN15dense_hashtableINSt3__24pairIK10KeyWrapperINS1_IP11Il2CppClassjEEES4_EES6_N6il2cpp8metadata14ArrayClassHashEN14dense_hash_mapIS6_S4_SB_NS6_14EqualsComparerINSA_17ArrayClassCompareEEENS0_9allocatorIS8_EEE9SelectKeyESF_SH_E5clearEv
ZKk:__Z88RuntimeInvoker_RuntimeObject_RuntimeObject_RuntimeObject_Int32_t2950945753_RuntimeObjectPFvvEPK10MethodInfoPvPS4_
C7l:__ZNSt3__218uninitialized_copyIPNS_4pairIK10KeyWrapperIPK11Il2CppClassEPKcEESB_EET0_T_SD_SC_
Qom:__ZN6il2cpp2vm14TypeNameParser5ParseEb
QQg:__ZL100GameObject_t1113636619_CustomAttributesCacheGenerator_GameObject_SendMessage_m3720186693____options2P21CustomAttributesCache
Wpj:_StreamWriter_Initialize_m3490883444
mgk:_Type_GetGenericArguments_m3500465462
cdm:__ZN15dense_hashtableINSt3__24pairIK10KeyWrapperIP9FieldInfoEiEES5_N6il2cpp5utils11PointerHashIS3_EEN14dense_hash_mapIS5_iSB_NS5_14EqualsComparerINS0_8equal_toIS4_EEEENS0_9allocatorIS7_EEE9SelectKeyESG_SI_E12resize_deltaEjj
mie:__ZN5physx6shdfnd5ArrayIPvNS0_19ReflectionAllocatorINS_2Cm5BlockIhLj128EEEEEE15growAndPushBackERKS2_
qNf:__ZN23UnityPurchasingSettingsC2Ev
Hob:__ZNK9Transform13GetWorldScaleEv
W7f:_Module_IsDefined_m2423524910
Gih:_DerivedType_create_unmanaged_type_m747846525
vVg:__ZL60EventType_t3528516131_CustomAttributesCacheGenerator_repaintP21CustomAttributesCache
dVa:__ZN17GPUFenceInternals7ReleaseEv
v3g:__ZL66Selectable_t3250028441_CustomAttributesCacheGenerator_m_NavigationP21CustomAttributesCache
nbg:_ResolveEventHandler__ctor_m1911137231
o7d:__ZN5physx2Sc11Interaction10onActivateEj
SSd:__ZNK5physx2Gu29EPASupportMapPairRelativeImplINS0_4BoxVENS0_11ConvexHullVEE6getDirEv
qpe:__ZN5physx14NpShapeManager15setupSceneQueryERNS_2Sq17SceneQueryManagerERKNS_12PxRigidActorERKNS_7NpShapeE
Ewc:__ZL10RenderFaceR9GfxDeviceR18MaterialStateCacheP13RenderTextureiif
NJj:_Array_IndexOf_TisCustomAttributeNamedArgument_t287865710_m2817957199_gshared
oqk:_ReadOnlyCollection_1_System_Collections_IList_RemoveAt_m1980090087_gshared
bAl:_ExtendedKeyUsageExtension_ToString_m2116504780
oxb:__ZNK5Unity9Component38MarkGameObjectAndComponentDependenciesER27GarbageCollectorThreadState
R5d:__ZN5physx3Scb5Scene15addArticulationERNS0_12ArticulationE
O4e:__ZN22ScAfterIntegrationTask11runInternalEv
klj:_BinaryReader_Read_m3708759962
Z9d:__ZNK5physx2Sc9ClothCore23getExternalAccelerationEv
qca:__ZNK7Texture21GetShadowSamplingModeEv
pta:__ZNK11TypeManager15ClassNameToRTTIEPKcb
ORd:__ZN5physx2Gu13coarseCullingERKNS_6PxVec3ES3_ffRKNS_10PxTriangleE
zFa:__ZL57__ManagedRegistrationHelperFunction_DefaultExecutionOrderPv
Ujb:__ZN13ScreenManager21OnWindowRegainedFocusEv
O_b:__Z18Transfer_BlittableI18StreamedBinaryReadILb0EELb1EdEvRK29SerializationCommandArgumentsR31RuntimeSerializationCommandInfo
Sac:__ZN9GfxDevice26CreateDefaultVertexBuffersEv
Y1m:_emscripten_glVertexAttrib2fv__wrapper
aQf:__ZN13RuntimeStaticINSt3__26vectorIPN5physx15PxVehicleWheelsENS0_9allocatorIS4_EEEELb0EE13StaticDestroyEPv
f9g:_SynchronizedReader_ReadToEnd_m2160105378
q1e:__ZN5physx2Sc5Scene29processNarrowPhaseTouchEventsEv
Vcb:__ZN4crnd12symbol_codec32decode_receive_static_data_modelERNS_25static_huffman_data_modelE
MUc:__ZN18ScriptingArguments8AddFloatEf
Br:__ZN12NavMeshAgent16AddToCrowdSystemEv
c4f:_Image_set_fillOrigin_m469806249
DJf:__ZN11UnityEngine15PlatformWrapper16GetVRRenderScaleEv
ace:__ZN5physx6shdfnd5ArrayIPvNS0_15InlineAllocatorILj256ENS0_19ReflectionAllocatorINS_18NpArticulationLinkEEEEEE15growAndPushBackERKS2_
Gfd:__Z18Transfer_BlittableI9JSONWriteLb0EaEvRK29SerializationCommandArgumentsR31RuntimeSerializationCommandInfo
Tga:__ZN11UnityEngine15CloudWebService14DataDispatcher34OnSessionContainerArchivedAndReadyERNS0_16SessionContainerE
Zwh:_ConnectionChangeEvent__ctor_m764126802
VCi:_Kernel_Multiply_m193213393
btd:__ZN23ParticleSystemParticles20SetUsesTriggerEventsEb
Rbh:_IntComparer__ctor_m2901422390
o0d:__ZNK5physx3Cct15ObstacleContext11getObstacleEj
obg:_ResolveEventHandler_Invoke_m1337322179
Jwg:__ZL50HMACMD5_t2742219965_CustomAttributesCacheGeneratorP21CustomAttributesCache
hsi:_Comparer_1__ctor_m1078828713_gshared
MUb:__Z18Transfer_BlittableI19StreamedBinaryWriteILb0EELb0E8Vector3fEvRK29SerializationCommandArgumentsR31RuntimeSerializationCommandInfo
k5j:_Enumerator_VerifyState_m2621680056_gshared
MIl:_UriParser_InternalRegister_m3643767086
USg:__ZL106TextGenerator_t3211863866_CustomAttributesCacheGenerator_TextGenerator_INTERNAL_get_rectExtents_m183810018P21CustomAttributesCache
IDc:__ZN14SafeBinaryRead19TransferSTLStyleMapINSt3__23mapIN4core12basic_stringIcNS3_20StringStorageDefaultIcEEEEiNS1_4lessIS7_EENS1_9allocatorINS1_4pairIKS7_iEEEEEEEEvRT_17TransferMetaFlags
wej:_DateTimeFormatInfo_get_RawAbbreviatedDayNames_m1257850285
dOi:_RSACryptoServiceProvider_EncryptValue_m944137256
Kkm:__ZN15dense_hashtableINSt3__24pairIK10KeyWrapperINS1_IPK11Il2CppImageP11Il2CppClassEEEjEES9_17ReflectionMapHashIS8_EN14dense_hash_mapIS9_jSD_NS9_14EqualsComparerINS0_8equal_toIS8_EEEENS0_9allocatorISB_EEE9SelectKeyESI_SK_ED2Ev
kvf:_gray_move_to
fAj:_DBNull_System_IConvertible_ToSingle_m13713620
E6i:_Char_ToLowerInvariant_m1926695830
Pda:__ZN13ProduceHelperI18AudioMixerSnapshotLb0EE7ProduceE10MemLabelId18ObjectCreationMode
Toh:_CameraCallback__ctor_m899467377
kqk:_ReadOnlyCollection_1_System_Collections_IList_Contains_m1327645028_gshared
p4f:_Image_GetDrawingDimensions_m3060965396
gTg:__ZL69FontTextureRebuildCallback_t2467502454_CustomAttributesCacheGeneratorP21CustomAttributesCache
Fgk:_TypeLoadException__ctor_m1154572625
O4c:__Z30RegisterValidateMethodCallbackiPF18ScriptingMethodPtrS_17ScriptingClassPtrP6ObjectEPKc
q8a:__ZNSt3__27__sort4IRPFbRKNS_4pairIN9ShaderLab16FastPropertyNameE10ColorRGBAfEES7_EPS5_EEjT0_SC_SC_SC_T_
wgh:_AssemblyDescriptionAttribute__ctor_m3993445315
eKi:_Context_get_WriteSequenceNumber_m1115956887
qHi:_CipherSuite_get_ClientHMAC_m377589750
acl:_Dictionary_2_Do_ICollectionCopyTo_TisKeyValuePair_2_t2401056908_m1169495264_gshared
kud:__Z25GetTransformationMatricesPN4math8float3x3ES1_bbRK10Matrix4x4fS4_
b_f:_ContentSizeFitter__ctor_m2349275633
jEg:__ZL56TypeConverter_t2249118273_CustomAttributesCacheGeneratorP21CustomAttributesCache
$pd:__ZN4PPtrI14ParticleSystemE8TransferI19StreamedBinaryWriteILb0EEEEvRT_
UNe:__ZN5physx13IslandManager6resizeEj
_kk:_Collection_1_RemoveAt_m3506636491_gshared
oYa:__Z26TransformVerticesInnerLoopILb1ELb0ELb0EEvPhRK10Matrix4x4fRK10Matrix3x3fjPKhiS8_ii25GfxTransformVerticesFlagsj
Zjd:__ZN8JSONRead8TransferI9BoundsIntEEvRT_PKc17TransferMetaFlagsb
xEm:__ZN24dense_hashtable_iteratorINSt3__24pairIK10KeyWrapperIPcES3_EES4_N6il2cpp5utils15PassThroughHashIS3_EEN14dense_hash_mapIS4_S3_SA_NS4_14EqualsComparerINS0_8equal_toIS3_EEEENS0_9allocatorIS6_EEE9SelectKeyESF_SH_E30advance_past_empty_and_deletedEv
Ab:invoke_viidi
hGd:__Z17UpdateSprites2TplIL27ParticleSystemCurveEvalMode0ELS0_2EEvfRK11MinMaxCurveS3_RK23ParticleSystemParticlesPf
U6d:__ZN5physx6shdfnd8PoolBaseINS_2Cm5BlockIPvLj16EEENS0_19ReflectionAllocatorIS5_EEE17releaseEmptySlabsEv
Q1f:_Graphic_OnRectTransformDimensionsChange_m3695755375
CNh:_SByte_System_IConvertible_ToChar_m1489191771_AdjustorThunk
Q3:__ZN9AudioClip7CleanupEv
n_c:__Z13RegisterClassI18DelayedCallManagerEvPKc
i3k:__Z76RuntimeInvoker_Void_t1185182177_Int32_t2950945753_PlayableBinding_t354260709PFvvEPK10MethodInfoPvPS4_
Gdi:_Interval_t1802865632_marshal_pinvoke_cleanup
eum:__ZNK15dense_hashtableINSt3__24pairIK10KeyWrapperIP11Il2CppClassES4_EES5_N6il2cpp8metadata16SZArrayClassHashEN14dense_hash_mapIS5_S4_SA_NS5_14EqualsComparerINS9_19SZArrayClassCompareEEENS0_9allocatorIS7_EEE9SelectKeyESE_SG_E12test_deletedEj
zZc:__ZN12LineRenderer18PrepareRenderNodesILb1EEEvR35RenderNodeQueuePrepareThreadContext
kvj:_Convert_ToInt16_m1223489986
k2f:_Graphic_GraphicUpdateComplete_m1502194795
_0d:__ZL20updateMassAndInertiabRN5physx11PxRigidBodyEPKfjPKNS_6PxVec3Eb
Aid:__Z18Transfer_BlittableI8JSONReadLb0EdEvRK29SerializationCommandArgumentsR31RuntimeSerializationCommandInfo
dgf:__ZN5physx24NpPtrTableStorageManagerC2Ev
SX:__ZN7mecanim9animation21BlendTreeNodeConstant35Transfer_4_0_BackwardsCompatibilityI14SafeBinaryReadEEvRT_
ehg:_SynchronizationAttribute_EnterContext_m1660729920
eDf:__Z44Register_UnityEngine_Canvas_set_sortingOrderv
W_l:_Canvas_get_referencePixelsPerUnit_m3420541976
qqk:_ReadOnlyCollection_1_System_Collections_ICollection_get_SyncRoot_m2522539235_gshared
MJl:_Event_get_current_m2393892120
mSl:_VertexHelper_Clear_m627349662
Cem:__ZN6il2cpp2vm21ThreadPoolCompartment13QueueWorkItemEP17Il2CppAsyncResult
XFb:__ZNK9GfxDevice13GetViewMatrixEv
sah:_UnmanagedMemoryStream_Dispose_m2681886347
LGe:__ZN5physx7NpScene15flushSimulationEb
Zgi:_InternalEnumerator_1_System_Collections_IEnumerator_get_Current_m1295084274_gshared
Ine:__ZN5physx6shdfnd8PoolBaseINS_10NpMaterialENS0_19ReflectionAllocatorIS2_EEE12allocateSlabEv
sua:__ZN8TypeTree8BlobReadERPKhS1_ib
wQg:__ZL87Display_t1387065949_CustomAttributesCacheGenerator_Display_GetSystemExtImpl_m2808197389P21CustomAttributesCache
D2i:_Array_Reverse_m3714848183
k0f:_Dropdown_ClearOptions_m4085591601
oZf:_CanvasUpdateRegistry_InternalRegisterCanvasElementForGraphicRebuild_m3522560454
kXj:_KeyValuePair_2__ctor_m880186442_gshared
ubf:__ZN5physx18ReducedVertexCloudC2EPKNS_6PxVec3Ej
uub:__ZN18LoadSceneOperation23GetAllowSceneActivationEv
iTa:__ZN6CameraD0Ev
arl:_Collection_1_System_Collections_IList_get_IsReadOnly_m2319019412_gshared
KAa:__ZN31CanvasBatchIntermediateRenderer16StaticInitializeEPv
Ank:_Collection_1_System_Collections_IList_IndexOf_m837396833_gshared
fK:__ZN7mecanim12AndValueMaskILb0EEEvPKNS_14ValueArrayMaskEPS1_
Asb:__ZN14SafeBinaryRead21TransferSTLStyleArrayINSt3__26vectorIi13stl_allocatorIiL18MemLabelIdentifier13ELi16EEEEEEvRT_17TransferMetaFlags
tYi:_EncoderFallback__cctor_m3806755293
zhi:_InternalEnumerator_1__ctor_m962177456_AdjustorThunk
lnf:_raccess_guess_apple_double
Lcc:__ZL18ProgramUniform1uivPK7ApiGLESjiihPKv
rBd:__ZN27ShapeModulePropertyBindings13GetFloatValueERK14ParticleSystemi
lYc:__ZN14Texture2DArray13RebuildMipMapEv
b7l:__ZN13Il2CppHashSetIPK17Il2CppGenericInstN6il2cpp8metadata21Il2CppGenericInstHashENS4_24Il2CppGenericInstCompareENSt3__29allocatorI10KeyWrapperIS2_EEEEC2EjRKS5_RKS6_
LNb:__Z18Transfer_BlittableI14SafeBinaryReadLb1EaEvRK29SerializationCommandArgumentsR31RuntimeSerializationCommandInfo
IEm:__ZN6il2cpp2gc16GarbageCollector14RemoveWeakLinkEPPv
rIc:__ZN9ShaderLab20SerializedSubProgram14AddVectorParamEPKcii15ShaderParamTypei
Qil:_List_1_GetEnumerator_m563931292_gshared
XEf:__ZN2UI14CanvasRenderer12CleanupClassEv
Yfe:__ZNK5physx19NpRigidBodyTemplateINS_18PxArticulationLinkEE27getMinCCDAdvanceCoefficientEv
Drj:_Enumerator__ctor_m3362421874
kUg:__ZL94AudioSampleProvider_t3950279772_CustomAttributesCacheGenerator_U3CtrackIndexU3Ek__BackingFieldP21CustomAttributesCache
cy:__ZN11DynamicMesh10DetailHullaSERKS0_
tBm:__ZN6il2cpp2vm6Object3BoxEP11Il2CppClassPv
jVc:__ZN26HandleIndexedCountedBitSetD2Ev
Oq:__ZN6Object23VirtualRedirectTransferER19StreamedBinaryWriteILb1EE
mia:__ZN11UnityEngine15CloudWebService10RestClientINS0_23WebRequestRestHeaderMapEE16SetRequestHeaderERKN4core12basic_stringIcNS4_20StringStorageDefaultIcEEEESA_
Fsb:__ZN30RuntimeInitializeOnLoadManager15ClassMethodInfo8TransferI14SafeBinaryReadEEvRT_
Qhg:_ConstructionCall_InitDictionary_m2824447813
rae:__ZNK5physx2Sc10ClothShape8isActiveEv
tsd:__ZN23ParticleSystemParticles14element_assignEjj
cbg:_TargetException__ctor_m3701535709
V0k:__Z86RuntimeInvoker_Int32_t2950945753_Vector3_t3722313464_Vector3_t3722313464_RuntimeObjectPFvvEPK10MethodInfoPvPS4_
ofa:__ZL22InitializeModule_Audiov
yOe:__ZN5physx2Sq11PruningPoolD0Ev
PEb:__ZN16MemoryFileSystem8IsLockedERK13FileEntryData
rWe:__ZN3MBP15removeBoxPrunerEj
Jvm:__ZN6il2cpp6icalls8mscorlib6System2IO6MonoIO5WriteEiP11Il2CppArrayiiPi
zDd:__ZN14ParticleSystem23OnGeometryJobsScheduledEj
lvh:_Mathf_InverseLerp_m4155825980
CMk:__Z92RuntimeInvoker_RuntimeObject_RuntimeObject_RuntimeObject_SByte_t1669577662_SByte_t1669577662PFvvEPK10MethodInfoPvPS4_
Al:_emscripten_glBindRenderbuffer
UGd:__ZZN14ParticleSystem15InitializeClassEvEN29FunctorImpl_228kDidModifyMesh4CallEPviR11MessageData
Cgl:_List_1_System_Collections_IList_Insert_m1011775503_gshared
CMm:_GC_dirty_init
aAm:__ZN6il2cpp2vm5Image33GetCachedMemoryMappedResourceFileEP24Il2CppReflectionAssembly
pAm:__ZN6il2cpp2vm5Field14GetValueObjectEP9FieldInfoP12Il2CppObject
ICf:__ZNK2UI6Canvas16GetTargetDisplayEv
X$k:__Z69RuntimeInvoker_Void_t1185182177_Int32_t2950945753_Vector2_t2156229523PFvvEPK10MethodInfoPvPS4_
bIf:__Z63Register_UnityEngine_Analytics_CustomEventData_Internal_Destroyv
nwd:__Z25UpdateOrbitalAndRadialTplIL27ParticleSystemCurveEvalMode1ELS0_2ELS0_2EEvRK11MinMaxCurveS3_S3_S3_S3_S3_S3_R23ParticleSystemParticlesjjRKN4math8float3x3ERKNS6_7affineXERKNS6_7_float4E
KYd:__ZL15SweepBoxCapsulePKN5physx3Cct9SweepTestEPKNS0_11SweptVolumeEPKNS0_11TouchedGeomERKNS_14PxExtendedVec3ERKNS_6PxVec3ERNS0_12SweptContactE
ngd:__ZN9JSONWrite8TransferI4PPtrI9Texture2DEEEvRT_PKc17TransferMetaFlags
Ztl:_Collection_1_Remove_m3611142372_gshared
q1b:__ZN13MonoBehaviour17RemoveFromManagerEv
JGh:_Vector3_get_Item_m668685504_AdjustorThunk
X5e:__ZN5physx2Sc19ParticlePacketShapeD2Ev
w8f:_MonoEventInfo_GetEventInfo_m873645389
Veb:__ZL11DecodeValuePPKcS0_
uKl:_GUIUtility_get_pixelsPerPoint_m2369948084
ESi:_WindowsIdentity_System_Runtime_Serialization_IDeserializationCallback_OnDeserialization_m3428853631
_la:__ZN13MemoryManagerC2Ev
yob:__ZN12SkinMeshInfo10DeallocateEPS_
S7l:__ZNK15dense_hashtableINSt3__24pairIK10KeyWrapperIPKcEP11Il2CppClassEES5_N6il2cpp5utils11StringUtils12StringHasherIS4_EEN14dense_hash_mapIS5_S8_SE_NS5_14EqualsComparerINSB_13VmStringUtils21CaseSensitiveComparerEEENS0_9allocatorIS9_EEE9SelectKeyESJ_SL_E8min_sizeEjj
T$h:_ScrollRect_SetDirty_m214267968
lW:__ZN15SerializeTraitsI22OffsetPtrArrayTransferIN7mecanim13ValueConstantEEE8TransferI19StreamedBinaryWriteILb0EEEEvRS3_RT_
m5k:__Z74RuntimeInvoker_Int32_t2950945753_UIVertex_t4057497605_UIVertex_t4057497605PFvvEPK10MethodInfoPvPS4_
hEb:__ZN20ArchiveStorageReader28AcquireAndPrefillUnusedBlockEjPNS_11CacheResultE
a4i:_Boolean_System_IConvertible_ToDateTime_m603510836
gYc:__Z12NHxRoughnessIA4_tEvP9Texture2DPT_iiii
Xwk:__ZN28GenericInterfaceFuncInvoker2IibbE6InvokeEPK10MethodInfoP12Il2CppObjectbb
JRj:_ASN1_get_Value_m1857007406
IWl:__ZL25UnresolvedVirtualCall_105P12Il2CppObjecthPK10MethodInfo
Wfa:__Z6simd4iiiii
azb:__ZN9Transform5ResetEv
pvj:_Decimal_op_Explicit_m1842265407
xUb:__Z22TransferField_NonArrayI24GenerateTypeTreeTransfer16Converter_StringEvRK23StaticTransferFieldInfoR31RuntimeSerializationCommandInfoRT0_
PFa:__ZL47__ManagedRegistrationHelperFunction_FixedUpdatePv
RGd:__ZN29ParticleSystemPropertyBinding49InitializeParticleSystemAnimationBindingInterfaceEv
_qf:_UNITY_FT_CMap_New
xhi:_InternalEnumerator_1_get_Current_m4241643334_AdjustorThunk
Agi:_InternalEnumerator_1_MoveNext_m154749640_AdjustorThunk
N3b:__Z17MainLoopKeepalivePv
L9d:__ZN5physx7NpScene16addActorInternalERNS_7PxActorE
sti:_Comparer_1__cctor_m2282308543_gshared
O3g:__ZL62Slider_t3903728902_CustomAttributesCacheGenerator_m_HandleRectP21CustomAttributesCache
m9l:__ZN15dense_hashtableI10KeyWrapperIPK17Il2CppGenericInstES4_N6il2cpp8metadata21Il2CppGenericInstHashEN14dense_hash_setIS4_S7_NS4_14EqualsComparerINS6_24Il2CppGenericInstCompareEEENSt3__29allocatorIS4_EEE8IdentityESB_SE_E12expand_arrayEjN21dense_hash_map_traits17integral_constantIbLb0EEE
Dni:_InternalEnumerator_1_get_Current_m1588647567_AdjustorThunk
lgh:_Assembly_UnprotectedGetName_m600830855
ptg:__ZL51GCHandle_t3351438187_CustomAttributesCacheGeneratorP21CustomAttributesCache
FVe:__ZN5physx17MBPUpdateWorkTaskD2Ev
BSh:_InputField_get_caretBlinkRate_m3620074524
pRl:_FieldWithTarget_get_fieldPath_m341366840
Gmc:__Z19SetupLODFadeKeywordR17ShaderPassContexti
rye:__ZN5physx22NpParticleBaseTemplateINS_16PxParticleSystemENS_16NpParticleSystemEE23setExternalAccelerationERKNS_6PxVec3E
zOi:_RSAPKCS1SignatureFormatter_CreateSignature_m3191980616
x6a:__ZN10builtintex16GetDefaultTexEnvE16TextureDimensionb
Uec:__ZL25CheckCopyTextureArgumentsRK7ApiGLESP11GLESTextureS3_
_Ad:__ZN24UVModulePropertyBindings13AddPropertiesER10vector_mapIi22ParticleModulePropertyNSt3__24lessIiEENS2_9allocatorINS2_4pairIiS1_EEEEE
kB:__Z17CircleHullOverlapPfRK13dynamic_arrayI8Vector2fLj0EERKS1_f
Rgl:_List_1_AsReadOnly_m2400800347_gshared
d5m:_glDeleteShader__wrapper
Wza:__ZNK15PlayableMethods18InvokeOnGraphStartER18ScriptingObjectPtrRK9HPlayable
VTb:__Z29Transfer_Blittable_ArrayFieldI24GenerateTypeTreeTransferyEvRT_R9ArrayInfoRK23StaticTransferFieldInfo
Vjk:_ValueType_Equals_m1524437845
lHg:__ZL71RuntimePlatform_t4159857903_CustomAttributesCacheGenerator_OSXWebPlayerP21CustomAttributesCache
K4:__ZN4FMOD7SystemI9playSoundE17FMOD_CHANNELINDEXPNS_5SoundEbPPNS_7ChannelE
z_k:__Z123RuntimeInvoker_RuntimeObject_Ray_t3785851493_RuntimeObject_Single_t1397266774_Int32_t2950945753_RuntimeObject_RuntimeObjectPFvvEPK10MethodInfoPvPS4_
akj:_Int64_GetHashCode_m703091690
WGa:__ZL60__ManagedRegistrationHelperFunction_ReflectionProbeBlendInfoPv
bre:__ZNK5physx7NpCloth16getStretchConfigENS_22PxClothFabricPhaseType4EnumE
PCl:_X509CrlEntry_get_RevocationDate_m606796547
ZJl:_Event_get_commandName_m4275147343
eK:__ZN27AnimationLayerMixerPlayable17LayerMixerProcessEP35AnimationPlayableEvaluationConstantP32AnimationPlayableEvaluationInputP33AnimationPlayableEvaluationOutputM17AnimationPlayableFvS1_S3_S5_EMS_FvS1_S3_S5_ESA_MS_FvS5_S1_S3_S5_ifE
yuj:_Decimal_op_Implicit_m4256234411
m3:__ZN12AudioManager23VirtualRedirectTransferER18StreamedBinaryReadILb0EE
eJk:__Z60RuntimeInvoker_RuntimeObject_RuntimeObject_Int16_t2552820387PFvvEPK10MethodInfoPvPS4_
Zzk:__ZN28GenericInterfaceFuncInvoker1Ib40CustomAttributeTypedArgument_t2723150157E6InvokeEPK10MethodInfoP12Il2CppObjectS0_
Cpj:_StreamReader__ctor_m3941437302
lBd:__ZN27ColorModulePropertyBindings13GetFloatValueERK14ParticleSystemi
SPc:__Z57Register_UnityEngine_Transform_INTERNAL_get_localRotationv
s6h:_IPv6Address_get_Address_m1389170741
ssb:__ZN30RuntimeInitializeOnLoadManager23VirtualRedirectTransferER17RemapPPtrTransfer
jZm:dynCall_viif
Cgh:_AssemblyName_get_Flags_m1616840602
eoi:_InternalEnumerator_1_MoveNext_m1590908934_AdjustorThunk
wRc:__Z13RegisterClassIN5Unity9ComponentEEvPKc
Goc:__ZN29MotionVectorRenderLoopScratchD2Ev
Q4e:__ZN5physx2Sc24ConstraintProjectionTree11projectPoseERNS0_19ConstraintGroupNodeE
BRb:__ZL26Transfer_SimpleNativeClassI17RemapPPtrTransfer8GradientLb0EEvRK29SerializationCommandArgumentsR31RuntimeSerializationCommandInfo
AIg:__ZL49Shader_t4151988712_CustomAttributesCacheGeneratorP21CustomAttributesCache
jqh:__ZN23InterfaceActionInvoker3IiP8String_tP24ObjectU5BU5D_t2843939325E6InvokeEjP11Il2CppClassP12Il2CppObjectiS1_S3_
RL:__ZN17AnimationPlayable26DisconnectNoTopologyChangeEPS_i
z4i:_Boolean_Equals_m2410333903_AdjustorThunk
_ml:_List_1_System_Collections_IList_Contains_m2131605266_gshared
Wvg:__ZL61ISurrogateSelector_t3040401154_CustomAttributesCacheGeneratorP21CustomAttributesCache
Iee:__ZN5physx2Sc21ArticulationJointCore28setSwingLimitContactDistanceEf
Afe:__ZNK5physx20NpRigidActorTemplateINS_18PxArticulationLinkEE14getConstraintsEPPNS_12PxConstraintEjj
Eol:_List_1_ToArray_m1990123684_gshared
hja:__ZN13UploadHandlerD2Ev
U0:__GLOBAL__sub_I_Modules_AssetBundle_Public_1_cpp
uXm:dynCall_viiiiiffi
Xc:_emscripten_glBlendFuncSeparate
Svl:_Collection_1_Add_m809543251_gshared
yqa:__Z20scripting_string_newPKc
XHl:_Parser_IsSingleline_m326238187
aaj:_CollectionBase_get_Count_m1708965601
pQh:_HMAC__ctor_m97939284
hsk:_ReadOnlyCollection_1_System_Collections_IList_get_Item_m1005238747_gshared
MBg:__ZL49DBNull_t3725197148_CustomAttributesCacheGeneratorP21CustomAttributesCache
Ujk:_ValueType_DefaultEquals_m2927252100
led:__ZN9JSONWrite12AppendToNodeEPN5Unity9rapidjson12GenericValueINS1_4UTF8IcEE13JSONAllocatorEEPKcRS6_
QRj:_ASN1_ToString_m1340204511
aai:_X509Store_get_Certificates_m2149701265
JJb:__ZN20GfxAsyncReadbackDataD2Ev
_fe:__ZNK5physx19NpRigidBodyTemplateINS_18PxArticulationLinkEE27getMaxDepenetrationVelocityEv
Ufk:_Type_GetField_m2961003358
zZ:__ZN6Avatar23VirtualRedirectTransferER17RemapPPtrTransfer
U$g:__ZL144StandaloneInputModule_t2760469101_CustomAttributesCacheGenerator_StandaloneInputModule_t2760469101____allowActivationOnMobileDevice_PropertyInfoP21CustomAttributesCache
vLa:__ZN9Scripting11UnityEngine13ComputeBuffer12CleanupProxyEv
P8e:__ZThn8_N5physx2Gu11HeightFieldD1Ev
q9j:_StringBuilder_set_Chars_m3548656617
Chm:__ZN6il2cpp2os4File17GetFileAttributesERKNSt3__212basic_stringIcNS2_11char_traitsIcEENS2_9allocatorIcEEEEPi
mBe:__ZN5physx19NpRigidBodyTemplateINS_14PxRigidDynamicEED0Ev
Qde:__ZNK5physx19PxArticulationJoint19getConcreteTypeNameEv
E1k:__Z59RuntimeInvoker_Int32_t2950945753_X509ChainStatus_t133602714PFvvEPK10MethodInfoPvPS4_
BP:__ZNSt3__26__sortIRPFbPKN8Animator11AnimatorJobES4_EPS4_EEvT0_S9_T_
fca:__ZN17AudioCustomFilterD2Ev
T6c:__Z33Camera_Get_Custom_PropCullingMaskP12Il2CppObject
oTg:__ZL108NavMeshAgent_t1276799816_CustomAttributesCacheGenerator_NavMeshAgent_INTERNAL_CALL_SetDestination_m233602864P21CustomAttributesCache
vyb:__ZN9Transform16ResetReplacementEv
vKm:_GC_unpromote_black_lists
P0:__ZN9Scripting11UnityEngine2XR5Tango9GridIndex9InitProxyEv
Qdc:__ZN18GfxFramebufferGLES18ReleaseFramebufferEP17RenderSurfaceBaseP14GfxContextGLES
qhd:__Z18Transfer_BlittableI8JSONReadLb1EiEvRK29SerializationCommandArgumentsR31RuntimeSerializationCommandInfo
v9g:_TextReader_Dispose_m4253712522
Lja:__ZN19CloudServiceHandler34HandleSaveFileWebRequestPlayerLoopEv
qDg:__ZL82BigInteger_t2902905090_CustomAttributesCacheGenerator_BigInteger__ctor_m2474659844P21CustomAttributesCache
DL:__ZN7mecanim21ValueArrayReverseCopyEPKNS_18ValueArrayConstantEPKNS_10ValueArrayES2_PS3_PKi
AQf:__ZL47__ManagedRegistrationHelperFunction_XRNodeStatePv
yba:__Z31GetParentSampleClipFromInstancePN11SoundHandle8InstanceE
jyl:_InternalAsyncResult_get_BytesRead_m3975435112
eSc:__ZNK28RectTransformPropertyBinding13GetFloatValueERKN11UnityEngine9Animation10BoundCurveE
VTd:__ZN5physx11PxHitBufferINS_12PxOverlapHitEE14processTouchesEPKS1_j
$wc:__ZN6Camera22StandaloneCustomRenderENS_10RenderFlagEP6ShaderRKN4core12basic_stringIcNS3_20StringStorageDefaultIcEEEEPNS_21PerformRenderFunctionE
gKj:_Array_InternalArray__IndexOf_TisKeyValuePair_2_t2401056908_m4118889689_gshared
Etb:__ZNSt3__26vectorI4PPtrI6ObjectE13stl_allocatorIS3_L18MemLabelIdentifier52ELi16EEE6assignINS_11__wrap_iterIPS3_EEEENS_9enable_ifIXaasr21__is_forward_iteratorIT_EE5valuesr16is_constructibleIS3_NS_15iterator_traitsISD_E9referenceEEE5valueEvE4typeESD_SD_
pok:_Collection_1_System_Collections_ICollection_get_IsSynchronized_m500240145_gshared
sCe:__ZL22addOrRemoveRigidObjectILb0ELb0ELb0ELb1EN5physx3Scb11RigidStaticEEvRNS0_2Sc5SceneERT3_b
tRm:__ZN6il2cpp2os16ThreadLocalValue8GetValueEPPv
d9h:_X509Certificate2_get_PublicKey_m370665820
Ubm:__ZN6il2cpp2vm13MetadataCache14GetGenericInstEPKPK10Il2CppTypej
Qca:__ZN13AudioListener17ReadExtensionNameEi
yd:_glUniform1uiv
yLf:__ZN11UnityEngine7Connect20RemoteConfigSettings35CallConfigUpdatedOnMainThreadStaticEPS1_
e5d:__ZNK5physx2Gu19SupportMapLocalImplINS0_11ConvexHullVEE18doWarmStartSupportEiRNS_6shdfnd3aos5Vec3VE
Btl:_Collection_1_System_Collections_Generic_ICollectionU3CTU3E_get_IsReadOnly_m1419845799_gshared
qQl:_U3CTimedTriggerU3Ec__Iterator0_System_Collections_Generic_IEnumeratorU3CobjectU3E_get_Current_m3822291412
e7d:__ZN5physx6shdfnd4sortIPvNS0_4LessIS2_EENS0_19ReflectionAllocatorINS_2Cm5BlockIS2_Lj8EEEEEEEvPT_jRKT0_RKT1_j
bea:__ZN9AudioClip15InitializeClassEv
pne:__ZNK5physx9NpPhysics11getNbShapesEv
bq:setThrew
ENi:_SslClientStream_OnLocalPrivateKeySelection_m1934775249
_Xc:__ZL21BuildEmptyCubeTexturePKci11ColorRGBA3217TextureColorSpace
jQg:__ZL106AsyncOperation_t1445031843_CustomAttributesCacheGenerator_AsyncOperation_InvokeCompletionEvent_m1410305036P21CustomAttributesCache
A5i:_Byte_ToString_m721125428
LDc:__ZN14SafeBinaryRead21TransferSTLStyleArrayINSt3__26vectorIN9ShaderLab20SerializedSubProgramENS1_9allocatorIS4_EEEEEEvRT_17TransferMetaFlags
FKj:_Array_InternalArray__IndexOf_TisX509ChainStatus_t133602714_m48896230_gshared
EBb:__ZN19dynamic_block_arrayI13FileEntryInfoLj32EE4growEj
zhd:__Z15Transfer_StringI8JSONReadLb1EEvRK29SerializationCommandArgumentsR31RuntimeSerializationCommandInfo
Rub:__ZN16LightmapSettings15AppendLightmapsEiRK13dynamic_arrayI12LightmapDataLj0EE
X7g:__ZL64MouseLocation_t1084469643_CustomAttributesCacheGenerator_IsValidP21CustomAttributesCache
qCa:__ZN6prcoreL17RemapGenericFloatI17TexFormatRGBFloat15TexFormatRGHalfEEvPKNS_9InnerInfoE
Aug:__ZL63IContributeEnvoySink_t2817847987_CustomAttributesCacheGeneratorP21CustomAttributesCache
otf:_sfnt_load_face
wmf:_UNITY_FT_Render_Glyph_Internal
twm:__ZNSt3__212basic_stringIDsNS_11char_traitsIDsEENS_9allocatorIDsEEE21__grow_by_and_replaceEjjjjjjPKDs
orf:_UNITY_ft_service_list_lookup
MWl:__ZL25UnresolvedVirtualCall_109P12Il2CppObjectiaPK10MethodInfo
uRb:__Z18Transfer_BlittableI17RemapPPtrTransferLb1E11ColorRGBA32EvRK29SerializationCommandArgumentsR31RuntimeSerializationCommandInfo
dbd:__ZN5IMGUI21SelectReceivingWindowER8GUIStateb
FQh:_HMAC_Initialize_m3157696427
xTd:__ZN5physx2Gu20intersectTriangleBoxERKNS_6PxVec3ES3_S3_S3_S3_
n9g:_SynchronizedWriter_Write_m2529550287
kme:__ZN5physx10NpMaterial8setFlagsENS_7PxFlagsINS_14PxMaterialFlag4EnumEtEE
dll:_List_1_System_Collections_ICollection_CopyTo_m3643417403_gshared
hna:__ZN13BaseAllocator13TryDeallocateEPv
EWb:__Z29Transfer_Blittable_ArrayFieldI19StreamedBinaryWriteILb0EEfEvRT_R9ArrayInfoRK23StaticTransferFieldInfo
M2l:_ListPool_1_Release_m1363449253_gshared
Y7h:_X509SubjectKeyIdentifierExtension__ctor_m2055934916
ls:__ZNK22NavMeshProjectSettings18GetSettingsByIndexEi
A5j:_Enumerator_Dispose_m2531396701_AdjustorThunk
_nk:_Collection_1_set_Item_m480139225_gshared
xEb:__ZN16MemoryFileSystem5WriteER13FileEntryDatayPvPy
cSl:_Toggle_OnSubmit_m1320104356
FSm:_sprintf
ZIc:__ZN9Scripting25CreateNullExceptionObjectE18ScriptingObjectPtr
STj:_PrivateKeyInfo_DecodeRSA_m2889346634
Uba:__ZN13AudioListener17RemoveFromManagerEv
Td:_glAttachShader
m_f:_ContentSizeFitter_SetLayoutHorizontal_m2833273874
ipk:_ReadOnlyCollection_1_System_Collections_IList_RemoveAt_m134366701_gshared
Ngf:__ZN5physx6shdfnd8internal8HashBaseINS0_4PairIKtPKcEEtNS0_4HashItEENS1_11HashMapBaseItS6_S9_NS_7profile26WrapperReflectionAllocatorIS6_EEE6GetKeyESD_Lb1EE6createERS4_Rb
VSa:__ZNK6Camera19GetProjectionMatrixEv
Xob:__ZNSt3__26vectorIPK9Transform13stl_allocatorIS3_L18MemLabelIdentifier1ELi16EEE21__push_back_slow_pathIRKS3_EEvOT_
nwm:__ZNSt3__212basic_stringIDsNS_11char_traitsIDsEENS_9allocatorIDsEEE6appendEPKDsj
m6e:__ZNK5physx2Cm12DelegateTaskINS_2Sc5SceneEXadL_ZNS3_18clothPreprocessingEPNS_10PxBaseTaskEEEE7getNameEv
EHe:__ZNK5physx7NpScene24getWakeCounterResetValueEv
DAe:__ZN5physx20NpRigidActorTemplateINS_14PxRigidDynamicEE17resolveReferencesERNS_24PxDeserializationContextE
DFd:__Z19UpdateSingleRow2TplIL27ParticleSystemCurveEvalMode2ELS0_4EEvfRK11MinMaxCurveS3_RK23ParticleSystemParticlesPfbiii
bTh:_InputField_SetToCustomIfContentTypeIsNot_m2813459946
WFk:__Z49RuntimeInvoker_DateTime_t3738529785_RuntimeObjectPFvvEPK10MethodInfoPvPS4_
rHg:__ZL70RuntimePlatform_t4159857903_CustomAttributesCacheGenerator_FlashPlayerP21CustomAttributesCache
Ygj:_Guid_GetHashCode_m3042133858_AdjustorThunk
XYe:__ZN5physx2Gu32PCMConvexVsMeshContactGeneration20generateLastContactsEv
pNa:__Z38PreallocateObjectFromPersistentManagerib
EJl:_Event_t2956885303_marshal_pinvoke_cleanup
oYg:__ZL57SphereCollider_t2077223608_CustomAttributesCacheGeneratorP21CustomAttributesCache
ume:__ZThn12_N5physx10NpMaterialD0Ev
Xci:_Interpreter_Backtrack_m2828876822
Qbb:__ZNK9Texture2D20GetUnscaledTextureIDEv
Oml:_List_1_get_Capacity_m3666274724_gshared
SNh:_SByte_System_IConvertible_ToType_m4075253447
TUj:_StrongName_get_PublicKey_m1841537984
ucf:__ZN5physx6shdfnd4sortIjNS_19SortBoundsPredicateENS0_19ReflectionAllocatorIjEEEEvPT_jRKT0_RKT1_j
j3m:_glFenceSync__wrapper
Qoe:__ZN5physx7NpShape14onRefCountZeroEv
xFh:_Transform_INTERNAL_get_worldToLocalMatrix_m2730237241
Jsd:__ZNK14ParticleSystem7GetLoopEv
bUi:_Single_System_IConvertible_ToUInt64_m3299129161
zQg:__ZL53GameObject_t1113636619_CustomAttributesCacheGeneratorP21CustomAttributesCache
Ubf:__ZL15TestContainmentRKN5physx6PxVec3EPKfjPKNS_2Gu15HullPolygonDataE
z2k:__Z51RuntimeInvoker_Void_t1185182177_HitInfo_t3229609740PFvvEPK10MethodInfoPvPS4_
Vbb:__ZNK9Texture2D26CanReuploadDataToGfxDeviceEv
YOk:__Z73RuntimeInvoker_RuntimeObject_IntPtr_t_Int32_t2950945753_Int32_t2950945753PFvvEPK10MethodInfoPvPS4_
Sxg:__ZL63CodeAccessPermission_t2681295399_CustomAttributesCacheGeneratorP21CustomAttributesCache
ovb:__Z29ClearRepeatingLogMessageStatev
Qli:_InternalEnumerator_1_get_Current_m3191242573_gshared
r5i:_Byte_Equals_m1161982810_AdjustorThunk
R1k:__Z53RuntimeInvoker_Int32_t2950945753_UICharInfo_t75501106PFvvEPK10MethodInfoPvPS4_
X8e:__ZN5physx2Gu11HeightField12loadFromDescERKNS_17PxHeightFieldDescEb
OZc:__ZN15QualitySettings12CleanupClassEv
Oxa:__ZN21EnlightenSceneMappingaSERKS_
sQa:__ZN14SafeBinaryRead21TransferSTLStyleArrayI13dynamic_arrayI17SortingLayerEntryLj0EEEEvRT_17TransferMetaFlags
SJd:__ZL48__ManagedRegistrationHelperFunction_MeshColliderPv
gol:_List_1_GrowIfNeeded_m278824317_gshared
Igc:__ZN7ApiGLESD2Ev
RRa:__ZN9Transform47ClearTransformHierarchyAndApplyToSerializedDataEv
dJf:__ZN11UnityEngine7Connect15DeviceInfoEventC2ERKN4core12basic_stringIcNS2_20StringStorageDefaultIcEEEEb
Pdm:_CertificateHandler_t2739891000_marshal_pinvoke
KEe:__ZN5physx6shdfnd8PoolBaseINS_2Gu30LargePersistentContactManifoldENS0_19ReflectionAllocatorIS3_EEE12allocateSlabEv
cme:__ZNK5physx10NpMaterial17getReferenceCountEv
yoa:__ZNSt3__26__treeI19RepeatingLogMessageNS_4lessIS1_EE13stl_allocatorIS1_L18MemLabelIdentifier74ELi16EEE25__emplace_unique_key_argsIS1_JRKS1_EEENS_4pairINS_15__tree_iteratorIS1_PNS_11__tree_nodeIS1_PvEEiEEbEERKT_DpOT0_
FUh:_InputField_IsSelectionVisible_m3622592134
i3i:_AssemblyLoadEventHandler_Invoke_m1462077361
oTa:__ZN6Camera23VirtualRedirectTransferER19StreamedBinaryWriteILb0EE
FZm:dynCall_fidi
Fim:__ZN15dense_hashtableINSt3__24pairIK10KeyWrapperINS1_IPK9FieldInfoP11Il2CppClassEEEjEES9_17ReflectionMapHashIS8_EN14dense_hash_mapIS9_jSD_NS9_14EqualsComparerINS0_8equal_toIS8_EEEENS0_9allocatorISB_EEE9SelectKeyESI_SK_E12resize_deltaEjj
a1e:__ZN5physx20getVertexEdgeIndicesERKNS_2Gu11HeightFieldEjjjPNS_8EdgeDataE
jhl:_List_1_TrimExcess_m3433550210_gshared
QJe:__ZN5physx6shdfnd5ArrayIPNS_2Sc8BodyCoreENS0_19ReflectionAllocatorIS4_EEE6resizeEjRKS4_
P8l:__ZNK15dense_hashtableINSt3__24pairIK10KeyWrapperIPK19Il2CppGenericMethodEPK26Il2CppGenericMethodIndicesEES6_N6il2cpp8metadata23Il2CppGenericMethodHashEN14dense_hash_mapIS6_SA_SE_NS6_14EqualsComparerINSD_26Il2CppGenericMethodCompareEEENS0_9allocatorISB_EEE9SelectKeyESI_SK_E8min_sizeEjj
E$d:__ZN5physx3Cct26CharacterControllerManager16createControllerERNS_9PxPhysicsEPNS_7PxSceneERKNS_16PxControllerDescE
FKl:_GUILayoutEntry__ctor_m2229197035
cka:__ZN11UnityEngine15CloudWebService14RestDownloaderD2Ev
njh:_EnumBuilder_get_Assembly_m1175292766
$zc:__Z29StdTemplateConversionFunctionIjhEbPvR14SafeBinaryRead
xWa:__ZN15dense_hashtableINSt3__24pairIKN9ShaderLab7Program23ShaderKeywordSetAndHashEPKNS2_10SubProgramEEES4_NS3_24ShaderKeywordHashFunctorEN14dense_hash_mapIS4_S8_SA_NS0_8equal_toIS4_EE13stl_allocatorIS9_L18MemLabelIdentifier67ELi16EEE9SelectKeyESD_SG_E15insert_noresizeERKS9_
hbl:_Array_swap_TisCustomAttributeNamedArgument_t287865710_TisCustomAttributeNamedArgument_t287865710_m881919420_gshared
n8g:__ZL59FlashFade_t2236562852_CustomAttributesCacheGenerator__imageP21CustomAttributesCache
c4a:__ZN13RenderTexture12SetDimensionE16TextureDimension
qNi:_SslClientStream_set_ClientCertSelectionDelegate_m1261530976
MJa:__ZN9Scripting11UnityEngine16GradientColorKey9InitProxyEv
Ke:_SDL_FreeRW
XMe:__ZN5physx6shdfnd8PoolBaseINS_2Cm5BlockIhLj128EEENS0_19ReflectionAllocatorIS4_EEE15disposeElementsEv
x_g:__ZL109ExecuteEvents_t3484638744_CustomAttributesCacheGenerator_ExecuteEvents_U3Cs_HandlerListPoolU3Em__0_m391641698P21CustomAttributesCache
X2k:__Z79RuntimeInvoker_Void_t1185182177_Int32_t2950945753_ParameterModifier_t1461694466PFvvEPK10MethodInfoPvPS4_
bEf:__Z34CanvasRenderer_Get_Custom_PropCullP12Il2CppObject
$we:__ZN5physx3Scb14ParticleSystem14setRestOffsetsEjRKNS_16PxStrideIteratorIKjEERKNS2_IKfEE
TUd:__ZN12MeshCollider11CreateShapeEPvPK9RigidbodyRK8Vector3f
yaa:__ZN20SoundChannelInstance8getDelayE14FMOD_DELAYTYPEPjS1_
$Om:__ZNSt3__26__treeINS_12__value_typeIPvxEENS_19__map_value_compareIS2_S3_NS_4lessIS2_EELb1EEENS_9allocatorIS3_EEE12__find_equalIS2_EERPNS_16__tree_node_baseIS2_EESF_RKT_
OWa:__ZNSt3__26vectorIN20GpuProgramParameters15StructParameterENS_9allocatorIS2_EEEC2ERKS5_
Cfi:_ArrayReadOnlyList_1_Contains_m232667507_gshared
UOk:__Z77RuntimeInvoker_Boolean_t97287965_IntPtr_t_Int32_t2950945753_SByte_t1669577662PFvvEPK10MethodInfoPvPS4_
Ryh:_PlayableHandle_GetPlayableType_m432385838_AdjustorThunk
klf:__ZNSt3__26vectorIN20TextRenderingPrivate8FontImpl13CharacterInfoE13stl_allocatorIS3_L18MemLabelIdentifier1ELi16EEE8__appendEj
v:tempBigInt
K7k:_Array_InternalArray__Insert_TisKeyframe_t4206410242_m1558638568_gshared
bAg:__ZL77Convert_t2465617642_CustomAttributesCacheGenerator_Convert_ToByte_m3567528984P21CustomAttributesCache
Se:_emscripten_glVertexAttrib1fv
rEc:__ZNSt3__26vectorIN9ShaderLab20SerializedSubProgram12UAVParameterENS_9allocatorIS3_EEE7reserveEj
shm:_OnNavMeshPreUpdate__ctor_m2758342548
iCi:_BigInteger__ctor_m2644482640
lWm:__ZSt11__terminatePFvvE
EIe:__ZN5physx13NpVolumeCacheC2EPNS_2Sq17SceneQueryManagerEjj
a8d:__ZThn24_N5physx2Sc20ArticulationJointSimD1Ev
A5:__ZN12AudioManager14systemCallbackEP11FMOD_SYSTEM24FMOD_SYSTEM_CALLBACKTYPEPvS3_
yzk:_Nullable_1_Equals_m4046255732_gshared
RIk:__Z53RuntimeInvoker_Single_t1397266774_Decimal_t2948259380PFvvEPK10MethodInfoPvPS4_
huk:_ReadOnlyCollection_1_System_Collections_Generic_ICollectionU3CTU3E_Clear_m3451551308_gshared
ZXf:_BaseMeshEffect_OnEnable_m3291426649
Woh:_ClassLibraryInitializer_Init_m988673678
p3i:_AssemblyLoadEventHandler_BeginInvoke_m1281107466
axe:__ZN5physx2Sc18ParticleSystemCore14setRestOffsetsEjRKNS_16PxStrideIteratorIKjEERKNS2_IKfEE
fYd:__ZN5physx2Gu16testPolyDataAxisERKNS0_8CapsuleVERKNS0_13PolygonalDataEPNS0_12SupportLocalERKNS_6shdfnd3aos6FloatVERSB_RNSA_5Vec3VE
z1a:__ZN16ReflectionProbes16UpdateSampleDataEv
Aud:__Z9UpdateTplIL27ParticleSystemCurveEvalMode1EEvRK11MinMaxCurveR23ParticleSystemParticlesjjPKN4math8floatNx3E
Tae:__ZN5physx2Sc17ParticleSystemSimD0Ev
BIh:_TrackingServices_NotifyUnmarshaledObject_m2784831802
B8i:_ReadOnlyArrayListWrapper_Sort_m2577012511
EFa:__ZL46__ManagedRegistrationHelperFunction_UnityEventPv
U3j:_Enumerator_System_Collections_IEnumerator_get_Current_m2237476582_AdjustorThunk
jej:_CultureInfo_GetCultureInfo_m56098747
l9a:__ZN14Texture2DArray5ResetEv
Otc:__Z20AddActiveLocalLightsR11CullResultsR27LocalLightCullingParametersPPK15SharedLightDataPK8Vector4fRK9IndexListPfRSA_R12ActiveLightsSG_P5RectTIfEP13TargetEyeMask
ipg:__ZL80Hashtable_t1853889766_CustomAttributesCacheGenerator_Hashtable__ctor_m1763145853P21CustomAttributesCache
juj:_Convert_ToDecimal_m1284148187
Wlk:_Collection_1__ctor_m3489157029_gshared
GIg:__ZL117TouchScreenKeyboard_t731888065_CustomAttributesCacheGenerator_TouchScreenKeyboard_Open_m3609399077____autocorrection2P21CustomAttributesCache
YEa:__ZL52__ManagedRegistrationHelperFunction_AndroidJNIHelperPv
Qof:_cf2_getNormalizedVector
fPa:__ZN5RectTIfE8TransferI18StreamedBinaryReadILb0EEEEvRT_
of:_JS_Sound_Play
Kwi:_KeyCollection_GetEnumerator_m1862005650_gshared
Xtg:__ZL56_MethodBuilder_t600455149_CustomAttributesCacheGeneratorP21CustomAttributesCache
evk:_ReadOnlyCollection_1_System_Collections_IList_set_Item_m1538987737_gshared
Lri:_DefaultComparer_Compare_m1920986590_gshared
iMi:_RecordProtocol_ProcessChangeCipherSpec_m15839975
iDc:__ZN9ShaderLab16SerializedShader8TransferI14SafeBinaryReadEEvRT_
jub:__ZN5Mutex7TryLockEv
n3f:_GridLayoutGroup_set_constraint_m3308895167
YUg:__ZL103AudioSource_t3935305588_CustomAttributesCacheGenerator_AudioSource_ReadExtensionPropertyValue_m72717540P21CustomAttributesCache
hig:_ConstructionCallDictionary_SetMethodProperty_m3145285304
aQb:__ZN15SerializeTraitsI13dynamic_arrayIsLj0EEE19ResizeSTLStyleArrayERS1_i
Kpb:__ZN11TimeManagerD2Ev
JY:__ZN7mecanim12statemachine17ConditionConstant8TransferI18StreamedBinaryReadILb0EEEEvRT_
UO:__ZN7mecanim8skeleton13SkeletonAlignEPKNS0_8SkeletonERKN4math7_float4ES7_i
aZc:__ZN19ShaderPropertySheet16SetVectorIndexedEN9ShaderLab16FastPropertyNameEifRK8Vector4fNS_8SetFlagsE
mfk:_Type_get_IsAbstract_m1120089130
RGh:_Vector3_get_normalized_m2454957984_AdjustorThunk
Fw:__ZN14SafeBinaryRead21TransferSTLStyleArrayIN4core12basic_stringIcNS1_20StringStorageDefaultIcEEEEEEvRT_17TransferMetaFlags
uJl:_UriFormatException__ctor_m1115096473
Qji:_InternalEnumerator_1_Dispose_m2818366163_AdjustorThunk
bIj:_Array_InternalArray__IEnumerable_GetEnumerator_TisSlot_t384495010_m460993382_gshared
Tsm:__ZN15dense_hashtableINSt3__24pairIK10KeyWrapperINS1_IP11Il2CppClassjEEES4_EES6_N6il2cpp8metadata14ArrayClassHashEN14dense_hash_mapIS6_S4_SB_NS6_14EqualsComparerINSA_17ArrayClassCompareEEENS0_9allocatorIS8_EEE9SelectKeyESF_SH_E9copy_fromERKSK_j
DAc:__Z29StdTemplateConversionFunctionIayEbPvR14SafeBinaryRead
ZBe:__ZNK5physx20NpRigidActorTemplateINS_13PxRigidStaticEE14getConstraintsEPPNS_12PxConstraintEjj
FQd:__ZN25MeshMTDGenerationCallbackD0Ev
uvj:_Convert_ToInt32_m1085744762
G6k:__Z55RuntimeInvoker_Boolean_t97287965_Nullable_1_t2603721331PFvvEPK10MethodInfoPvPS4_
nMl:_GUIUtility_IsExitGUIException_m3644066650
Dka:__ZN11UnityEngine15CloudWebService14DataDispatcher4StopEv
Qhj:_Int16_System_IConvertible_ToUInt64_m134975563
tEc:__ZNSt3__26vectorIN9ShaderLab20SerializedSubProgram12UAVParameterENS_9allocatorIS3_EEE8__appendEj
Cgi:_InternalEnumerator_1__ctor_m4191108945_gshared
kmm:__ZNK15dense_hashtableINSt3__24pairIK10KeyWrapperINS1_IPK9EventInfoP11Il2CppClassEEEjEES9_17ReflectionMapHashIS8_EN14dense_hash_mapIS9_jSD_NS9_14EqualsComparerINS0_8equal_toIS8_EEEENS0_9allocatorISB_EEE9SelectKeyESI_SK_E12test_deletedERK24dense_hashtable_iteratorISB_S9_SD_SM_SI_SK_E
ebd:__ZN5IMGUI9GUIWindow5OnGUIER8GUIState
bUl:_AudioConfigurationChangeHandler_EndInvoke_m4175380841
KTi:_Single_System_IConvertible_ToDecimal_m325860800_AdjustorThunk
cNj:_Array_InternalArray__ICollection_CopyTo_TisSingle_t1397266774_m455540885_gshared
EEa:__ZN17ScriptingGCHandle7AcquireE18ScriptingObjectPtr25ScriptingGCHandleWeakness
RXl:__ZL25UnresolvedVirtualCall_168P12Il2CppObject39CustomAttributeNamedArgument_t287865710S1_PK10MethodInfo
hRk:__Z74RuntimeInvoker_RuntimeObject_RuntimeObject_Int64_t3736567304_RuntimeObjectPFvvEPK10MethodInfoPvPS4_
$ge:__ZN5physx12NpConstraint8comShiftEPNS_12PxRigidActorE
bla:___cxx_global_var_init_864
JAi:_Enumerator__ctor_m1734342590_gshared
lYm:dynCall_iifiii
rYb:__ZN18StreamedBinaryReadILb1EE8TransferI13dynamic_arrayIjLj0EEEEvRT_PKc17TransferMetaFlags
pTk:__Z85RuntimeInvoker_Int32_t2950945753_RuntimeObject_Int32U26_t1369213839_Int32_t2950945753PFvvEPK10MethodInfoPvPS4_
J9a:__Z21HasAlphaTextureFormat13TextureFormat
afa:__ZN12AudioManager6UpdateEv
D9a:__ZN14ImageReference9BlitImageERKS_NS_8BlitModeE
vpk:_ReadOnlyCollection_1__ctor_m1345363288_gshared
LF:__ZN8Animator12AddToManagerEv
bbh:_MissingFieldException__ctor_m3742452630
p1c:__Z26ApplyBlendShapesToVerticesR12SkinMeshInfoRKN4math5_int4EPNS1_8floatNx3ES6_
qla:__GLOBAL__sub_I_Runtime_Core_Callbacks_0_cpp
yPd:__ZNK5physx2Gu16SupportLocalImplINS0_11ConvexHullVEE9doSupportERKNS_6shdfnd3aos5Vec3VERNS5_6FloatVESA_
k2b:__ZN23CachedSerializationDataD2Ev
_vc:__ZNK25CameraStackRenderingState31CalculateStereoCameraTargetTypeEv
hVd:__ZNK5physx3Cct13BoxController8getActorEv
Z0a:__ZN14RenderSettings23VirtualRedirectTransferER14SafeBinaryRead
gpi:_InternalEnumerator_1_get_Current_m114240259_gshared
YFm:__ZN6il2cpp2os10ThreadImpl15CurrentThreadIdEv
Dy:__ZNSt3__227__insertion_sort_incompleteIR17DetailNodeYSorterP16DetailMeshBVNodeEEbT0_S5_T_
b0j:_EqualityComparer_1__ctor_m1138336971_gshared
Y_a:__ZN17GlobalGameManager8TransferI17RemapPPtrTransferEEvRT_
T6g:__ZL73FieldWithTarget_t3058750293_CustomAttributesCacheGenerator_m_StaticStringP21CustomAttributesCache
r8g:__ZL65U3CFadeU3Ec__Iterator0_t2172770604_CustomAttributesCacheGeneratorP21CustomAttributesCache
O9e:__ZN5physx6shdfnd8internal8HashBaseIPNS_2Gu12TriangleMeshES5_NS0_4HashIS5_EENS1_11HashSetBaseIS5_S7_NS0_9AllocatorELb1EE6GetKeyES9_Lb1EE5eraseERKS5_
_Pi:_SymmetricAlgorithm_get_Key_m3241860519
wVh:_U3CMouseDragOutsideRectU3Ec__Iterator1_Reset_m2233410497
kla:__GLOBAL__sub_I_Runtime_Camera_5_cpp
lDk:__ZN25GenericVirtActionInvoker2I17Scene_t2348375561iE6InvokeEPK10MethodInfoP12Il2CppObjectS0_i
BJi:_ClientSessionInfo_get_HostName_m2118440995
UZa:__ZN16LevelGameManager8TransferI18StreamedBinaryReadILb0EEEEvRT_
aoa:__ZN19ThreadSpecificValueIP13MonoBehaviourE15ReinitializeTLSEPv
KRa:__Z17IsObjectAvailablei
$pb:__ZN12InputManagerD0Ev
U4a:__Z32TransferEnumWithNameForceIntSizeI14SafeBinaryRead17TextureFilterModeEvRT_RT0_PKc17TransferMetaFlags
Hwg:__ZL64DSASignatureFormatter_t2007981259_CustomAttributesCacheGeneratorP21CustomAttributesCache
F8i:_SimpleEnumerator_MoveNext_m3113120129
JXj:_Dictionary_2_System_Collections_IDictionary_Add_m4011968134_gshared
xhe:__ZN5physx2Sc9RigidCore20removeShapeFromSceneERNS0_9ShapeCoreEb
i_b:__Z18Transfer_BlittableI18StreamedBinaryReadILb0EELb1EtEvRK29SerializationCommandArgumentsR31RuntimeSerializationCommandInfo
Dhi:_InternalEnumerator_1_System_Collections_IEnumerator_get_Current_m2889979481_AdjustorThunk
fVm:_posix_memalign
qcf:__ZN5physx11RTreeCooker18buildFromTrianglesERNS_2Gu5RTreeEPKNS_6PxVec3EjPKtPKjjRNS_6shdfnd5ArrayIjNSB_19ReflectionAllocatorIjEEEEPNS0_13RemapCallbackEfNS_17PxMeshCookingHint4EnumE
Ibe:__ZN5physx6shdfnd5ArrayIPvNS0_15InlineAllocatorILj256ENS0_19ReflectionAllocatorINS_14NpArticulationEEEEEE15growAndPushBackERKS2_
sAh:_Rect_get_position_m2115952571
dNl:_AesManaged_GenerateKey_m2004209814
qsk:_ReadOnlyCollection_1_get_Item_m4005849861_gshared
T1h:_Slider_get_direction_m3871593184
NRj:_ASN1_GetBytes_m3305539297
yol:_List_1_Remove_m2092116835_gshared
WOg:__ZL86Logger_t274032455_CustomAttributesCacheGenerator_Logger_LogFormat_m3030796110____args2P21CustomAttributesCache
GAg:__ZL77Convert_t2465617642_CustomAttributesCacheGenerator_Convert_ToSByte_m717245755P21CustomAttributesCache
yri:_DefaultComparer__ctor_m2039558311_gshared
Bsa:__ZNK15MonoScriptCache7ReleaseEv
S5l:__ZN6il2cpp2vm5Class13HasReferencesEP11Il2CppClass
C_e:__ZN5physx9PxTaskMgrC2EPNS_15PxCpuDispatcherEPNS_15PxGpuDispatcherEPNS_15PxSpuDispatcherE
V6i:_CLSCompliantAttribute__ctor_m581760440
Cg:_glBindTexture
wTm:_snprintf
Wkj:_InvalidCastException__ctor_m2551002860
QYk:__Z50RuntimeInvoker_RuntimeObject_Resources_t1597885468PFvvEPK10MethodInfoPvPS4_
X1m:_emscripten_glVertexAttrib1fv__wrapper
zrh:_InvokableCallList_RemoveListener_m1769379719
BYc:__ZN16LevelGameManagerC2E10MemLabelId18ObjectCreationMode
iY:__ZN7mecanim12statemachine13StateConstant8TransferI24GenerateTypeTreeTransferEEvRT_
qwh:_MonoBehaviour_Internal_IsInvokingAll_m2820042090
u0m:_emscripten_glGetProgramInfoLog__wrapper
xE:__ZN25AnimatedPropertyEvaluator29BindCurveToScriptingObjectPtrERKN13AnimationClip10FloatCurveEj18ScriptingObjectPtrb
Sjb:__ZN13ScreenManager20SetScreenOrientationE17ScreenOrientation
trl:_Collection_1_SetItem_m1090516645_gshared
V$g:__ZL52InputMode_t3382566315_CustomAttributesCacheGeneratorP21CustomAttributesCache
KRi:_String_Equals_m1744302937
Dqh:_Display__ctor_m501911701
Fqk:_ReadOnlyCollection_1_System_Collections_Generic_IListU3CTU3E_Insert_m1020890112_gshared
Naj:_Hashtable__cctor_m4112166779
Y$f:_Dropdown_get_onValueChanged_m2462066659
k$f:_DefaultControls_SetDefaultTextValues_m1943359795
uoc:__Z19SetupMotionMatricesR6CameraR18RPDataMotionVector
E1l:__ZL7log2_64y
j5h:_TypeConverterAttribute_Equals_m1580461255
tv:__ZN19AutoOffMeshLinkData8TransferI19StreamedBinaryWriteILb0EEEEvRT_
tQ:__ZN26AnimatorControllerPlayable18PrepareForPlaybackERN7mecanim6memory9AllocatorE
HQ:__ZN8Animator11AnimatorJob11AddPlayableEP17AnimationPlayablef
i3f:_GridLayoutGroup_get_cellSize_m2967185053
JQe:__ZN5physx19PxsMaterialCombiner24combineIsotropicFrictionERKNS_15PxsMaterialDataES3_
DAl:_PKCS12_Decrypt_m1280162536
Mhi:_InternalEnumerator_1_get_Current_m3081223448_gshared
SJl:_Event_get_isMouse_m1058251071
_7g:__ZL65PlayerAttack_t171730867_CustomAttributesCacheGenerator__countDownP21CustomAttributesCache
iZa:__ZN10VertexDataC2ERKS_17ShaderChannelMask10MemLabelId
Zfd:__ZL22Transfer_ManagedObjectI9JSONWriteLb1EEvRK29SerializationCommandArgumentsR31RuntimeSerializationCommandInfo
Url:_Collection_1_IndexOf_m3762683187_gshared
Rrf:_otv_JSTF_validate
RWa:__ZN22CreateGpuProgramOutputC2Ev
qDi:_BigInteger_op_LessThanOrEqual_m3925173639
Orh:_PersistentCallGroup_Initialize_m4253175514
$3i:_Boolean_System_IConvertible_ToChar_m4279513009_AdjustorThunk
Gaj:_Hashtable__ctor_m1763145853
ang:__ZL66RuntimeArray_CustomAttributesCacheGenerator_Array_Sort_m3145621264P21CustomAttributesCache
kVh:_InputField_get_layoutPriority_m2945430764
Kdh:_NumberFormatter_ScaleOrder_m3813786990
VYk:__Z43RuntimeInvoker_VerticalWrapMode_t2936607737PFvvEPK10MethodInfoPvPS4_
u$j:_EqualityComparer_1__ctor_m2241711498_gshared
yGl:_AnchorInfo_get_Offset_m2045445765
Lei:__ZN25GenericVirtActionInvoker2IP12Il2CppObjectS1_E6InvokeEPK10MethodInfoS1_S1_S1_
TTj:_PrivateKeyInfo_DecodeDSA_m771724585
zaf:__ZN5physx7Cooking16cookTriangleMeshERKNS_18PxTriangleMeshDescERNS_14PxOutputStreamE
Rdi:_Interval_get_Size_m4163671410_AdjustorThunk
YZg:__ZL53EventHandle_t600343995_CustomAttributesCacheGeneratorP21CustomAttributesCache
Edf:__ZN14CompletionTask4InitEPN5physx7PxSceneE
Q8i:_SynchronizedArrayListWrapper_get_SyncRoot_m3862302789
U8d:__ZN5physx2Sc7ElementD0Ev
Xhk:_UInt32_System_IConvertible_ToSByte_m1061556466
Xcf:__ZN5physx6shdfnd10Foundation7releaseEv
kKh:_WellKnownClientTypeEntry__ctor_m2471908952
R5l:__ZN6il2cpp2vm5Class4InitEP11Il2CppClass
Rc:invoke_vidi
_eh:_NumberFormatter_FormatRoundtrip_m19342689
QJh:_RemotingServices_CreateClientProxyForContextBound_m783705199
WZk:__Z30RuntimeInvoker_Axis_t809944411PFvvEPK10MethodInfoPvPS4_
t2c:__ZNK15GUIEventManager15GetEventAtIndexEi
wxl:_InternalAsyncResult_get_ProceedAfterHandshake_m2508379800
ZFf:__ZN2UI14CanvasRenderer17SyncDirtyElementsER8JobFence
e_b:__Z18Transfer_BlittableI18StreamedBinaryReadILb0EELb0ExEvRK29SerializationCommandArgumentsR31RuntimeSerializationCommandInfo
Cwj:_Convert_ToUInt16_m2952781888
Zti:_Enumerator_System_Collections_IEnumerator_get_Current_m3816090481_gshared
cIm:__ZN6il2cpp5utils11StringUtils15StringDuplicateEPKc
s_j:_DefaultComparer_Equals_m2480133610_gshared
mzd:__ZN14ParticleSystem24StartParticlesProceduralERS_R23ParticleSystemParticlesffjj
Yal:_Array_Sort_TisVector3_t3722313464_m1915176437_gshared
DRm:__ZN6il2cpp2os9EventImplC2Ebb
Oyd:__Z12RangedRandomR5RandNRKiS2_
t0h:_ScrollRect_OnInitializePotentialDrag_m3139711961
Qel:_List_1_System_Collections_IList_get_IsFixedSize_m3566150119_gshared
ZY:__ZN4PPtrI13MonoBehaviourE8TransferI19StreamedBinaryWriteILb0EEEEvRT_
bkl:_List_1_get_Item_m2113769949_gshared
mYh:_MaskableGraphic_OnTransformParentChanged_m329502413
xWc:__ZN13HandleManagerC2Ev
JT:__ZNSt3__26vectorIN13AnimationClip9PPtrCurveE13stl_allocatorIS2_L18MemLabelIdentifier26ELi16EEE6resizeEj
aDh:_ScriptableObject_t2528358522_marshal_pinvoke
Toa:__Z20IsMatrixBuiltinParamPKcPi
Jmm:__ZN6il2cpp2gc19AppendOnlyGCHashMapINSt3__24pairIPK10MethodInfoP11Il2CppClassEEP11Il2CppArray17ReflectionMapHashIS9_ENS2_8equal_toIS9_EEEC2Ev
sRi:_String_memcpy4_m979367827
fTi:_SecurityFrame_t1422462475_marshal_pinvoke
dkm:__ZN15dense_hashtableINSt3__24pairIK10KeyWrapperINS1_IPK10MethodInfoP11Il2CppClassEEEjEES9_17ReflectionMapHashIS8_EN14dense_hash_mapIS9_jSD_NS9_14EqualsComparerINS0_8equal_toIS8_EEEENS0_9allocatorISB_EEE9SelectKeyESI_SK_E16reset_thresholdsEv
U9j:_UnicodeEncoding_GetBytesInternal_m1902824297
EYc:__ZN8Renderer19PostInitializeClassEv
DJj:_Array_FindIndex_TisRuntimeObject_m2504082708_gshared
VFf:__ZNSt3__26__treeINS_12__value_typeINS_4pairIKiS3_EEN2UI14DepthSortLayerEEENS_19__map_value_compareIS4_S7_NS_4lessIS4_EELb1EEE13stl_allocatorIS7_L18MemLabelIdentifier1ELi16EEE25__emplace_unique_key_argsIS4_JRKNS_21piecewise_construct_tENS_5tupleIJOS4_EEENSK_IJEEEEEENS2_INS_15__tree_iteratorIS7_PNS_11__tree_nodeIS7_PvEEiEEbEERKT_DpOT0_
uCl:_X509Chain_FindCertificateRoot_m1937726457
zpj:_StreamAsyncResult_get_AsyncWaitHandle_m3390046559
JJf:__ZN11UnityEngine15PlatformWrapper21GetVRPlayAreaGeometryER13dynamic_arrayI8Vector3fLj0EE
RNm:__ZN6il2cpp6icalls8mscorlib6System8Delegate23CreateDelegate_internalEP20Il2CppReflectionTypeP12Il2CppObjectP22Il2CppReflectionMethodb
_ui:_Enumerator_System_Collections_IEnumerator_get_Current_m921113401_AdjustorThunk
yaj:_DictionaryEntry_get_Value_m618120527_AdjustorThunk
D1b:__ZN18DelayedCallManager18CancelCallDelayed2E4PPtrI6ObjectEPF15CallObjectStatePS1_PvES7_
NPa:__ZN25ThreadsafeLinearAllocator10ReallocateEPvji
aNb:__Z18Transfer_BlittableI14SafeBinaryReadLb1E11QuaternionfEvRK29SerializationCommandArgumentsR31RuntimeSerializationCommandInfo
cfe:__ZNK5physx18PxArticulationLink8isKindOfEPKc
SBa:__ZN18SpriteAtlasManagerD0Ev
hxl:_SslHandshakeHash__ctor_m4169387017
cI:__ZN7mecanim9animation10SampleClipERKNS0_12ConstantClipEjPf
fSl:_ToggleGroup_set_allowSwitchOff_m4192200290
c0k:__Z57RuntimeInvoker_Boolean_t97287965_KeyValuePair_2_t71524366PFvvEPK10MethodInfoPvPS4_
$hb:__ZN10Matrix4x4f8TransferI14SafeBinaryReadEEvRT_
hn:FUNCTION_TABLE_vifiiiiiiiiiiiiiiiiii
ROh:_CryptographicUnexpectedOperationException__ctor_m2381988196
mnm:__ZN14dense_hash_mapI10KeyWrapperIPK22Il2CppGenericParameterEPK24MonoGenericParameterInfoN6il2cpp5utils11PointerHashIS2_EENS4_14EqualsComparerINSt3__28equal_toIS3_EEEENSD_9allocatorINSD_4pairIKS4_S7_EEEEE15set_deleted_keyERSJ_
qQ:__ZN14AvatarPlayback8StopTimeEv
pki:_InternalEnumerator_1_System_Collections_IEnumerator_get_Current_m4213507601_gshared
ewa:__Z6AppendRKN4core12basic_stringIcNS_20StringStorageDefaultIcEEEEPKc
x5k:__Z74RuntimeInvoker_DictionaryEntry_t3123975638_RuntimeObject_SByte_t1669577662PFvvEPK10MethodInfoPvPS4_
$wb:__ZL14OnWorldStoppedv
kIj:_Array_InternalArray__IEnumerable_GetEnumerator_TisCustomAttributeNamedArgument_t287865710_m523021714_gshared
GBm:__ZN6il2cpp2vm6Object12NullableInitEPhP12Il2CppObjectP11Il2CppClass
uok:__ZN21InterfaceFuncInvoker1I19Vector4_t3319028937iE6InvokeEjP11Il2CppClassP12Il2CppObjecti
RHa:__ZN9Scripting11UnityEngine16TrackedReference12CleanupProxyEv
Ynf:__ZN20TextRenderingPrivate19NativeTextGeneratorC2ERK11UTF16StringPNS_8FontImplE11ColorRGBA32ifRK8Vector2fbifiibffbbP13dynamic_arrayIN2UI8UIVertexELj0EE
ybj:_HashKeys_get_SyncRoot_m3757723936
fMl:_GUIUtility_RemoveCapture_m1294193818
Dac:__ZN7ApiGLES18ClearBufferSubDataEjN2gl12BufferTargetEll
$$:__ZN8Animator7SetBoolEib
XNc:__Z37Camera_Get_Custom_PropAllCamerasCountv
Mab:__ZN14Texture2DArray8TransferI18StreamedBinaryReadILb0EEEEvRT_
snl:_List_1_CopyTo_m2746988508_gshared
yie:__ZN5physx15NpActorTemplateINS_18PxArticulationLinkEED2Ev
Tbd:__Z38Register_UnityEngine_GUIStyle_get_namev
Fyf:_Split_Cubic
kb:invoke_fiiii
VUh:_InputField_OnSubmit_m3583210804
RDg:__ZL64CipherSuiteCollection_t1129639304_CustomAttributesCacheGeneratorP21CustomAttributesCache
gWg:__ZL72GUISkin_t1244372282_CustomAttributesCacheGenerator_m_horizontalScrollbarP21CustomAttributesCache
dQe:__ZN5physx2Sc32DefaultClothInterCollisionFilterEPvS1_
GIl:_Uri_CheckHostName_m2213216182
U1m:_emscripten_glBindRenderbuffer__wrapper
Ecl:_Mesh_SetUvsImpl_TisVector2_t2156229523_m3009194955_gshared
DEi:_HMAC_set_Key_m3535779141
Qje:__ZN5physx2Sc16ArticulationCore26setMaxProjectionIterationsEj
IZd:__ZN26IntersectAnyVsMeshCallbackILi1ELb0EED2Ev
Woi:_InternalEnumerator_1_System_Collections_IEnumerator_Reset_m729791527_AdjustorThunk
V7i:_ArrayListWrapper_Contains_m2641184447
qyf:_ft_black_render
pOk:__Z177RuntimeInvoker_Int32_t2950945753_RuntimeObject_Int32_t2950945753_Int32_t2950945753_RuntimeObject_Int32_t2950945753_EncoderFallbackBufferU26_t2343550713_CharU5BU5DU26_t3299466565PFvvEPK10MethodInfoPvPS4_
MZm:dynCall_viiifi
qdc:__ZN18GfxFramebufferGLES20ActiveContextChangedEPP17RenderSurfaceBaseS2_
XOg:__ZL86Logger_t274032455_CustomAttributesCacheGenerator_Logger_LogFormat_m3300686007____args3P21CustomAttributesCache
xJk:__Z78RuntimeInvoker_Int32_t2950945753_RuntimeObject_RuntimeObject_Int32_t2950945753PFvvEPK10MethodInfoPvPS4_
LJb:__Z19PluginsRenderMarkeri
Xqi:_InternalEnumerator_1__ctor_m2307827786_AdjustorThunk
u$:__ZN10HumanTrait18InitializeBoneNameEv
AEc:__ZNSt3__26vectorIN9ShaderLab20SerializedSubProgram15StructParameterENS_9allocatorIS3_EEE6assignINS_11__wrap_iterIPS3_EEEENS_9enable_ifIXaasr21__is_forward_iteratorIT_EE5valuesr16is_constructibleIS3_NS_15iterator_traitsISC_E9referenceEEE5valueEvE4typeESC_SC_
k9a:__ZN14Texture2DArray21AwakeFromLoadThreadedEv
e$b:__Z29Transfer_Blittable_ArrayFieldI18StreamedBinaryReadILb0EEyEvRT_R9ArrayInfoRK23StaticTransferFieldInfo
zEh:_Touch_get_position_m3109777936_AdjustorThunk
fAm:__ZNSt3__214__split_bufferIN6il2cpp2vm5Image20EmbeddedResourceDataERNS_9allocatorIS4_EEEC2EjjS7_
TTg:__ZL66SkeletonBone_t4134054672_CustomAttributesCacheGenerator_parentNameP21CustomAttributesCache
Mre:__ZNK5physx7NpCloth25getNbSelfCollisionIndicesEv
AQj:_Kernel_multiByteDivide_m4249920547
BYf:_CanvasScaler_set_screenMatchMode_m2975492035
T_:__ZN6Avatar15InitializeClassEv
QHf:__Z69Register_UnityEngine_Analytics_UnityAnalyticsHandler_Internal_Destroyv
bai:_X509Certificate2Collection_Add_m3151757943
tng:__ZL83RuntimeArray_CustomAttributesCacheGenerator_RuntimeArray____LongLength_PropertyInfoP21CustomAttributesCache
bXg:__ZL100GUIUtility_t1868551600_CustomAttributesCacheGenerator_GUIUtility_Internal_GetDefaultSkin_m2977444868P21CustomAttributesCache
Dkf:__ZN9Scripting11UnityEngine13CharacterInfo9InitProxyEv
qtj:_DateTime_AddMilliseconds_m3713972790
O9i:_CaseInsensitiveHashCodeProvider_get_DefaultInvariant_m4264275163
a8e:__ZNK5physx2Gu10ConvexMesh17getReferenceCountEv
eCg:__ZL67IndexOutOfRangeException_t1578797820_CustomAttributesCacheGeneratorP21CustomAttributesCache
HOk:__Z195RuntimeInvoker_Int32_t2950945753_RuntimeObject_Int32_t2950945753_Int32_t2950945753_Int32_t2950945753_RuntimeObject_DecoderFallbackBufferU26_t3866396827_ByteU5BU5DU26_t4057885439_SByte_t1669577662PFvvEPK10MethodInfoPvPS4_
aIe:__ZN5physx2Sc5Scene22setNbContactDataBlocksEj
wXl:__ZL25UnresolvedVirtualCall_147P12Il2CppObject16Rect_t2360479859aPK10MethodInfo
bga:__ZN5physx14PxLightCpuTask12addReferenceEv
DYa:__ZNK15InstancingProps35FillInstanceBufferDispatchConstantsIN10Instancing14RenderLoopArgsEEEvPPvjjRK19ShaderPropertySheetRKT_
P0k:__Z86RuntimeInvoker_Int32_t2950945753_Color32_t2600501292_Color32_t2600501292_RuntimeObjectPFvvEPK10MethodInfoPvPS4_
nhb:__ZN21EnlightenSceneMapping8TransferI19StreamedBinaryWriteILb0EEEEvRT_
zCm:__ZN6il2cpp2gc16GarbageCollector19InitializeFinalizerEv
FL:__ZN7mecanim8skeleton18CreateSkeletonMaskEjPKNS0_19SkeletonMaskElementERNS_6memory9AllocatorE
Xvk:_ReadOnlyCollection_1_System_Collections_Generic_ICollectionU3CTU3E_get_IsReadOnly_m2508509261_gshared
Dcd:__ZN10GUIManager10DoGUIEventER10InputEventb
VSb:__Z35Transfer_Blittable_FixedBufferFieldI24GenerateTypeTreeTransferxEvRK29SerializationCommandArgumentsR31RuntimeSerializationCommandInfo
Fsf:_otv_LangSys_validate
wBh:_RectOffset_get_right_m2294081512
DXl:__ZL25UnresolvedVirtualCall_154P12Il2CppObjectfPK10MethodInfo
Q6f:__ZN25GenericVirtActionInvoker1IP20Delegate_t1188392813E6InvokeEPK10MethodInfoP12Il2CppObjectS1_
g8k:_Array_InternalArray__set_Item_TisLink_t544317964_m1234244240_gshared
hxf:_UNITY_TT_Init_Glyph_Loading
I0c:__Z20CalculateSqrDistanceRK8Vector3fRK4AABB
d0f:_OptionData_get_text_m2997376818
Pvi:_Enumerator__ctor_m324536319_gshared
Idf:__ZN14PhysicsManager15ProcessContactsEv
LMh:_SerializationInfo_GetBoolean_m1756153320
hSd:__ZN21BoxTraceSegmentReport7onEventEjPj
Lee:__ZN5physx2Sc21ArticulationJointCore13setSwingLimitEff
N7:__Z32AudioMixerDuckingProcessCallbackP21UnityAudioEffectStatePfS1_jii
IXd:__ZL20HullProjectionCB_BoxRKN5physx2Gu13PolygonalDataERKNS_6PxVec3ERKNS_2Cm8Matrix34ERKNS7_23FastVertex2ShapeScalingERfSE_
Tvh:_Mesh_get_uv2_m3615020997
vqk:_ReadOnlyCollection_1_Contains_m2979956790_gshared
ZJe:__ZN5physx17PxcNpMemBlockPool19releaseUnusedBlocksEv
n$j:_EqualityComparer_1_System_Collections_IEqualityComparer_Equals_m4172006498_gshared
CWe:__ZN5physx14PxsAABBManager21selfCollideAggregatesEPKNS_19AggregateSortedDataE
r3:__ZN12AudioManager8TransferI24GenerateTypeTreeTransferEEvRT_
m9k:_Array_qsort_TisOrderBlock_t1585977831_m3322202512_gshared
avh:_Mathf_Round_m4098141538
LAd:__ZN16CustomDataModuleD0Ev
LSc:__ZZL31RegisterRectTransformPropertiesR22GenericPropertyBindingEN28Wrapper_RectTransformPivotx013GetFloatValueEPv
IU:__ZN13dynamic_arrayI11KeyframeTplI11QuaternionfELj0EE18resize_initializedEj12ResizePolicy
evm:__ZN6il2cpp6icalls8mscorlib6System9Threading6Thread20Thread_free_internalEP12Il2CppThreadi
o5b:__ZNK11PreloadData18GetInstanceIDArrayER13dynamic_arrayIiLj0EE
cRb:__Z18Transfer_BlittableI17RemapPPtrTransferLb0EsEvRK29SerializationCommandArgumentsR31RuntimeSerializationCommandInfo
wZg:__ZL64UnityAnalyticsHandler_t3011359618_CustomAttributesCacheGeneratorP21CustomAttributesCache
Q4h:__KeysEnumerator_get_Current_m2996478063
ybh:_AmbiguousMatchException__ctor_m2012725345
kYm:dynCall_iifff
yta:__Z32scripting_class_get_assemblyname17ScriptingClassPtr
FJf:__ZN11UnityEngine15PlatformWrapper15GetVRDeviceNameEv
B5g:__ZL109LayoutUtility_t2745813735_CustomAttributesCacheGenerator_LayoutUtility_U3CGetFlexibleWidthU3Em__3_m1091238571P21CustomAttributesCache
WA:__Z24CrowdUpdateMultiThreadedRK17ReadonlyCrowdInfoR15UpdateCrowdInfoP12CrowdManagerPP12NavMeshQueryf
CYk:__Z99RuntimeInvoker_Boolean_t97287965_Int32_t2950945753_PointerEventDataU26_t867828220_SByte_t1669577662PFvvEPK10MethodInfoPvPS4_
QSe:__ZN5physx26PxcFrictionPatchStreamPairC2ERNS_17PxcNpMemBlockPoolE
Xii:_InternalEnumerator_1_get_Current_m2128158355_AdjustorThunk
eHb:__ZN9GfxDevice21RegisterNativeTextureE9TextureIDi16TextureDimension
V1f:_GraphicRegistry__ctor_m1851575309
v2k:__Z52RuntimeInvoker_Void_t1185182177_Keyframe_t4206410242PFvvEPK10MethodInfoPvPS4_
bDg:__ZL53TypeFilter_t2356120900_CustomAttributesCacheGeneratorP21CustomAttributesCache
TOm:__ZN6il2cpp6icalls8mscorlib6System10Reflection4Emit11TypeBuilder20create_generic_classEP27Il2CppReflectionTypeBuilder
d3b:__ZN20LocalFileSystemWebGL4CopyER13FileEntryDataS1_
oHj:_PlayableHandle_IsPlayableOfType_TisAnimationLayerMixerPlayable_t3631223897_m201603007_gshared
czg:__ZL50Monitor_t2197244473_CustomAttributesCacheGeneratorP21CustomAttributesCache
egm:__ZNSt3__26vectorIPK10MethodInfoNS_9allocatorIS3_EEE26__swap_out_circular_bufferERNS_14__split_bufferIS3_RS5_EE
W7g:__ZL70MouseLocation_t1084469643_CustomAttributesCacheGenerator_MousePositionP21CustomAttributesCache
JDi:_PrimalityTest_EndInvoke_m1035389364
rda:__Z60Register_UnityEngine_AudioListener_GetNumExtensionPropertiesv
vj:_emscripten_glUniformMatrix4fv
gtm:__ZN15dense_hashtableINSt3__24pairIK10KeyWrapperINS1_IP11Il2CppClassjEEES4_EES6_N6il2cpp8metadata14ArrayClassHashEN14dense_hash_mapIS6_S4_SB_NS6_14EqualsComparerINSA_17ArrayClassCompareEEENS0_9allocatorIS8_EEE9SelectKeyESF_SH_E13set_empty_keyERKS8_
Nxb:__ZN12ScriptMapperD2Ev
PAi:_Enumerator_Dispose_m3040896940_AdjustorThunk
ANd:__ZN9Rigidbody13AwakeFromLoadE17AwakeFromLoadMode
Wvh:_Mesh_get_colors32_m1253190811
rmd:__ZN9SubModule8TransferI14SafeBinaryReadEEvRT_
dLm:_GC_stopped_mark
YQf:__ZL59__ManagedRegistrationHelperFunction_SubsystemDescriptorBasePv
ymh:_AnimationCurve_Finalize_m2397002729
Uld:__ZN14ParticleSystem15AddCustomLightsERK27LocalLightCullingParametersRK11CullResultsR12ActiveLightsRi9LightType
qke:__ZNK5physx14NpSceneQueries10multiQueryINS_12PxOverlapHitEEEbRKNS_15MultiQueryInputERNS_13PxHitCallbackIT_EENS_7PxFlagsINS_9PxHitFlag4EnumEtEEPKNS_12PxQueryCacheERKNS_17PxQueryFilterDataEPNS_21PxQueryFilterCallbackEPNS_20BatchQueryFilterDataE
X6k:__Z50RuntimeInvoker_RuntimeObject_ColorTween_t809614380PFvvEPK10MethodInfoPvPS4_
JUh:_InputField_OnFillVBO_m3649106646
qMh:_SerializationCallbacks__cctor_m1674315180
BFc:__Z32TransferEnumWithNameForceIntSizeI14SafeBinaryRead7FogModeEvRT_RT0_PKc17TransferMetaFlags
vbm:__ZNK15dense_hashtableI10KeyWrapperIPK19Il2CppGenericMethodES4_N6il2cpp8metadata23Il2CppGenericMethodHashEN14dense_hash_setIS4_S7_NS4_14EqualsComparerINS6_26Il2CppGenericMethodCompareEEENSt3__29allocatorIS4_EEE8IdentityESB_SE_E23find_position_with_hashERKS4_j
yVa:__ZNSt3__26vectorIN12FlareManager10FlareEntryENS_9allocatorIS2_EEE21__push_back_slow_pathIS2_EEvOT_
oHc:__ZN9ShaderLab20SerializedSubProgram16TextureParameter8TransferI19StreamedBinaryWriteILb0EEEEvRT_
Db:invoke_fiiiiiiiifiiiif
KCd:__ZN14ParticleSystem23RendererBecameInvisibleEv
POa:__ZNK7Hash12812PackToUInt32Ev
W8i:_SynchronizedArrayListWrapper_IndexOf_m3642674350
qva:__ZNSt3__227__insertion_sort_incompleteIRNS_6__lessI14ObjectLoadDataS2_EEPS2_EEbT0_S6_T_
l7g:__ZL66EnemyAttack_t24081459_CustomAttributesCacheGenerator__attackDamageP21CustomAttributesCache
Lka:__ZN11UnityEngine15CloudWebService16SessionContainer8AddEventEPNS0_14CloudEventInfoE
kLb:__Z4TrimRKN4core12basic_stringIcNS_20StringStorageDefaultIcEEEES5_
xtk:_ReadOnlyCollection_1_CopyTo_m209634623_gshared
Ubl:_Dictionary_2_Do_ICollectionCopyTo_TisKeyValuePair_2_t3842366416_m1399105608_gshared
ojk:_UInt64_ToString_m2177233542
i_g:__ZL77ExecuteEvents_t3484638744_CustomAttributesCacheGenerator_U3CU3Ef__mgU24cache2P21CustomAttributesCache
n9h:_X509Certificate2_Import_m4026562329
bwi:_Enumerator_System_Collections_IEnumerator_get_Current_m2763095718_AdjustorThunk
h3m:_glGetStringi__wrapper
Xhb:__ZN10VertexData8TransferI14SafeBinaryReadEEvRT_
Sde:__ZN5physx19NpArticulationJointD0Ev
nBa:__ZN13RuntimeStaticI12AdsIdHandlerLb0EE16StaticInitializeEPv
TMm:_GC_malloc_atomic
Yff:__ZN5physx9NpPhysics14createInstanceEjRNS_12PxFoundationERKNS_17PxTolerancesScaleEbPNS_20PxProfileZoneManagerE
gef:__Z59Register_UnityEngine_Physics_INTERNAL_CALL_Internal_Raycastv
m3j:_HashSet_1_GetEnumerator_m3346268098_gshared
GPm:__ZN6il2cpp5utils6Memory13AlignedMallocEjj
CGe:__ZNK5physx7NpScene17getFilterCallbackEv
wzh:_PropertyName_GetHashCode_m3570549176_AdjustorThunk
aMg:__ZL55PropertyName_t3749835189_CustomAttributesCacheGeneratorP21CustomAttributesCache
$Uh:_Selectable_get_animator_m2899312855
Bra:__ZL20SortItemByInstanceIDRKN18AwakeFromLoadQueue4ItemES2_
wGh:_Vector2_op_Multiply_m2347887432
Bgf:__ZN5physx6shdfnd5ArrayIPvNS0_15InlineAllocatorILj256ENS0_19ReflectionAllocatorINS_24NpPtrTableStorageManager8PtrBlockILi16EEEEEEEE15growAndPushBackERKS2_
j1f:_FontData_get_maxSize_m195374730
g5h:_TypeConverterAttribute__ctor_m1774069684
QL:__ZNK34AnimationStateMachineMixerPlayable26GetInterruptedPosePlayableEv
sMf:__ZN20UnityConnectSettings8TransferI24GenerateTypeTreeTransferEEvRT_
und:__ZN25IParticleSystemProperties8PropertyIfNS_11ClampRadiusEE8TransferI14SafeBinaryReadEEvRT_PKc
vO:__ZN34BlobWriteTransferSTLStyleArrayImplI22OffsetPtrArrayTransferIbEEclERS1_17TransferMetaFlagsR9BlobWrite
TUc:__ZZN12MeshRenderer15InitializeClassEvEN29FunctorImpl_205kDidDeleteMesh4CallEPviR11MessageData
$_i:_Byte_ToString_m4063101981
nch:_MonoType_GetConstructors_m2574682189
Zcm:__ZN6il2cpp2vm13MetadataCache31GetParameterDefinitionFromIndexEi
TCh:_SceneManager_LoadSceneAsyncNameIndexInternal_m4031498323
Ioe:__ZN5physx7NpShape13setRestOffsetEf
cr:__ZN12NavMeshAgent5ResetEv
nHm:__ZNK15dense_hashtableINSt3__24pairIK10KeyWrapperIPK19Il2CppGenericMethodEP10MethodInfoEES6_N6il2cpp8metadata23Il2CppGenericMethodHashEN14dense_hash_mapIS6_S9_SD_NS6_14EqualsComparerINSC_26Il2CppGenericMethodCompareEEENS0_9allocatorISA_EEE9SelectKeyESH_SJ_E10test_emptyERK30dense_hashtable_const_iteratorISA_S6_SD_SL_SH_SJ_E
tug:__ZL59SinkProviderData_t4151372974_CustomAttributesCacheGeneratorP21CustomAttributesCache
Y5h:_ServicePointManager_FindServicePoint_m4119451290
Gri:__ZN21InterfaceFuncInvoker1Ii22OrderBlock_t1585977831E6InvokeEjP11Il2CppClassP12Il2CppObjectS0_
mim:__ZN15dense_hashtableINSt3__24pairIK10KeyWrapperINS1_IPK14Il2CppAssemblyP11Il2CppClassEEEjEES9_17ReflectionMapHashIS8_EN14dense_hash_mapIS9_jSD_NS9_14EqualsComparerINS0_8equal_toIS8_EEEENS0_9allocatorISB_EEE9SelectKeyESI_SK_E12expand_arrayEjN21dense_hash_map_traits17integral_constantIbLb0EEE
xya:__ZL31InitializeRendererUpdateManagerPv
Aag:_ParameterInfo__ctor_m2779026345
USh:_InputField_set_onValueChange_m1251390545
xHa:__ZN9Scripting11UnityEngine18WaitForFixedUpdate12CleanupProxyEv
Jyk:_Func_1_EndInvoke_m3591709415_gshared
kkf:__GLOBAL__sub_I_artifacts_WebGL_codegenerator_0_cpp_5807
t1f:_FontData_get_verticalOverflow_m4132840071
ipe:__ZN5physxL11getTriangleERKNS_2Gu12TriangleMeshEjPNS_6PxVec3EPKS4_PKvRKNS_2Cm8Matrix34Eb
QGa:__ZL46__ManagedRegistrationHelperFunction_RectOffsetPv
W5g:__ZL65Shadow_t773074319_CustomAttributesCacheGenerator_m_EffectDistanceP21CustomAttributesCache
Yda:__ZN13AudioListener12CleanupClassEv
FLd:__ZN14SafeBinaryRead21TransferSTLStyleArrayINSt3__26vectorIjNS1_9allocatorIjEEEEEEvRT_17TransferMetaFlags
Xxa:__Z13GetIEnlightenv
nqe:__ZNK5physx7NpCloth16lockParticleDataEv
Hej:_DateTimeFormatInfo_get_LongTimePattern_m1595254249
Tyl:_X509Certificate_PEM_m2020851166
bOh:_SByte_Equals_m865896384_AdjustorThunk
jRj:_BigInteger_op_GreaterThanOrEqual_m700865613
d7k:_Array_InternalArray__Insert_TisDateTime_t3738529785_m2308632330_gshared
Zpb:__ZN11TimeManager8TransferI19StreamedBinaryWriteILb0EEEEvRT_
sLi:_TlsServerCertificateRequest_ProcessAsTls1_m3214041063
$sf:_compare_uni_maps
tVk:__Z72RuntimeInvoker_Boolean_t97287965_Vector2_t2156229523_Vector2_t2156229523PFvvEPK10MethodInfoPvPS4_
uKf:__ZN11UnityEngine15PlatformWrapper27GetGraphicsCapsSupportFlagsEv
fCf:__ZNSt3__218__insertion_sort_3IRPFbPN2UI6CanvasES3_EPS3_EEvT0_S8_T_
Vbl:_Dictionary_2_Do_ICollectionCopyTo_TisRuntimeObject_m3695543300_gshared
NLe:__ZN5physx13NpRigidStatic9visualizeERNS_2Cm12RenderOutputEPNS_7NpSceneE
BWb:__ZN12NativeBufferI16Converter_StringE15SetupForWritingER9ArrayInfo
pRj:_SequentialSearchPrimeGeneratorBase_GenerateSearchBase_m3595783982
Pnb:__ZThn32_N19SkinnedMeshRendererD1Ev
V0:__ZN13RuntimeStaticI18AssetBundleManagerLb1EE16StaticInitializeEPv
J4m:___cxa_end_catch__wrapper
qTk:__Z121RuntimeInvoker_Int32_t2950945753_RuntimeObject_Int32U26_t1369213839_Int32_t2950945753_Int32_t2950945753_Int32_t2950945753PFvvEPK10MethodInfoPvPS4_
Pj:_emscripten_glVertexAttrib3fv
XDd:__ZL24GenerateParticleGeometryIL24ParticleSystemRenderMode0ELb1ELb0EL25ParticleSystemRenderSpace4EEvPfRK22ParticleSystemTempDataRK26ParticleSystemRendererDataRK21ParticleSystemModulesRK23ParticleSystemParticlesRK31ParticleSystemParticlesTempData
Kye:__ZNK5physx22NpParticleBaseTemplateINS_16PxParticleSystemENS_16NpParticleSystemEE13getRestOffsetEv
iOe:__ZN5physx6shdfnd8PoolBaseINS_2Sc35ParticleElementRbElementInteractionENS0_19ReflectionAllocatorIS3_EEE15disposeElementsEv
IOi:_SHA1CryptoServiceProvider_Dispose_m1653611664
L6i:_Char_ToString_m278452217
pHi:_CipherSuite_get_DecryptionCipher_m2839827488
Spk:_ReadOnlyCollection_1_System_Collections_IList_set_Item_m4047645019_gshared
npc:__ZNK4PPtrI5LightEcvPS0_Ev
$Qf:__ZL50__ManagedRegistrationHelperFunction_ReferencePointPv
lDi:_BigInteger_op_RightShift_m460065452
o2b:__ZN13MonoBehaviour22DoScriptRebuildWarningEv
t$c:__ZNK10GameObject22GetComponentPtrAtIndexEi
dXc:__ZZL23RegisterLightPropertiesR22GenericPropertyBindingEN22Wrapper_LightSpotAngle13GetFloatValueEPv
uUf:_ExecuteEvents_get_cancelHandler_m1220395193
egl:_List_1_Insert_m3987412300_gshared
ezf:__Z38TextGenerator_Get_Custom_PropLineCountP12Il2CppObject
mSd:__ZN5physx2Gu26EPASupportMapPairLocalImplINS0_9TriangleVENS0_4BoxVEED0Ev
cyl:_InternalAsyncResult_SetComplete_m963842420
FWi:_Encoding_GetEncoding_m2801244948
bdd:__ZN11IMGUIModule25GetGUIStyleScriptingClassEv
zvf:_tt_get_interface
gyl:_SslStreamBase_EndRead_m495357226
Rum:__ZN6il2cpp5utils9PathUtils7CombineIcEENSt3__212basic_stringIT_NS3_11char_traitsIS5_EENS3_9allocatorIS5_EEEERKSA_SC_
MWe:__ZN5physx14PxsAABBManager16processBPResultsERKNS_20PxsComputeAABBParamsE
kxi:_KeyCollection_GetEnumerator_m982770428_gshared
TUe:__ZN5physx23PxsBroadPhaseContextSapD2Ev
Kkk:_Collection_1_System_Collections_IList_get_IsFixedSize_m214626114_gshared
$Qk:__Z64RuntimeInvoker_RuntimeObject_SByte_t1669577662_SByte_t1669577662PFvvEPK10MethodInfoPvPS4_
m0c:__ZN13PlayableGraph21InvalidateMultithreadEv
HLl:_GUIScrollGroup_CalcHeight_m3173593443
zv:__ZN14NavMeshManager9PurgeDataEPK11NavMeshData
wcf:__ZN5physx12SubSortQuickC2EPjPKNS_10PxBounds3VEjf
Jyg:__ZL86UTF7Encoding_t2644108479_CustomAttributesCacheGenerator_UTF7Encoding_Equals_m227704363P21CustomAttributesCache
Exg:__ZL59ApplicationTrust_t3270368423_CustomAttributesCacheGeneratorP21CustomAttributesCache
zjh:_EnumBuilder_GetConstructorImpl_m3068576149
Bqa:__Z18ConvertUTF16toUTF8PPKtS0_PPhS2_15ConversionFlags
OGm:__ZN6il2cpp2os20PathErrnoToErrorCodeERKNSt3__212basic_stringIcNS1_11char_traitsIcEENS1_9allocatorIcEEEEi
W1g:__ZL68InputField_t3762917431_CustomAttributesCacheGenerator_m_KeyboardTypeP21CustomAttributesCache
RPi:_SymmetricAlgorithm_System_IDisposable_Dispose_m3402297829
I3c:__Z24GetActualTargetFrameRatev
r1l:__ZL16my_g_bit_nth_msfj
KPi:_SHA512Managed_Sigma1_m922902398
Znb:__Z20DeformSkinnedMeshJobP12SkinMeshInfo
JFg:__ZL129GenerateManagedProxyAttribute_t2394178854_CustomAttributesCacheGenerator_GenerateManagedProxyAttribute_set_NativeType_m3203265247P21CustomAttributesCache
vtm:__ZN15dense_hashtableINSt3__24pairIK10KeyWrapperIP11Il2CppClassES4_EES5_N6il2cpp8metadata16SZArrayClassHashEN14dense_hash_mapIS5_S4_SA_NS5_14EqualsComparerINS9_19SZArrayClassCompareEEENS0_9allocatorIS7_EEE9SelectKeyESE_SG_E12expand_arrayEjN21dense_hash_map_traits17integral_constantIbLb0EEE
Loh:__ZN30GenericInterfaceActionInvoker1IP18Camera_t4157153871E6InvokeEPK10MethodInfoP12Il2CppObjectS1_
xZj:_DefaultComparer_GetHashCode_m3369508712_gshared
Ppl:_Enumerator_MoveNext_m3662315381_AdjustorThunk
aLi:_TlsClientFinished_ProcessAsTls1_m2429863130
Jdg:_ActivatedClientTypeEntry_get_ApplicationUrl_m2894992111
xlc:__Z23SetupStereoFlareElementP11FlareVertexRK8Vector2fS3_S3_RK11ColorRGBA32RK10Matrix4x4fRK8Vector3fb
iVl:__ZL24UnresolvedVirtualCall_25P12Il2CppObjectS0_S0_PK10MethodInfo
d6l:__ZN6il2cpp2vm5Class15GetInstanceSizeEPK11Il2CppClass
Sjk:_ValueType__ctor_m2036258423
Ya:invoke_iiiifiiii
iui:_Enumerator_System_Collections_IDictionaryEnumerator_get_Key_m2502357460_AdjustorThunk
aFg:__ZL63ExpressionCollection_t1810289389_CustomAttributesCacheGeneratorP21CustomAttributesCache
fHd:__ZN11ShapeModule13DidDeleteMeshEv
Nse:__ZNK5physx2Sc9ClothCore16getRestPositionsEPNS_6PxVec4E
Ykk:__ZN23InterfaceActionInvoker2Ii20UICharInfo_t75501106E6InvokeEjP11Il2CppClassP12Il2CppObjectiS0_
zRe:__ZN5physx20PxcSweepConvexConvexERKNS_11PxsCCDShapeES2_PKNS_12PxsRigidBodyES5_RKNS_11PxTransformES8_S8_S8_fRNS_6PxVec3ESA_RNS_10PxcNpCacheERNS_18PxcNpThreadContextEf
sGh:_Vector2_Equals_m832062989_AdjustorThunk
Uve:__ZN5physx15PxsParticleDataD0Ev
Wdc:__ZL19BlitFramebufferImplRN4gles23BlitFramebufferDrawQuadER9GfxDevice9TextureIDRK8Vector4f
GQb:__Z18Transfer_BlittableI17RemapPPtrTransferLb0EhEvRK29SerializationCommandArgumentsR31RuntimeSerializationCommandInfo
paf:__ZN5physx6shdfnd5ArrayIPvNS0_19ReflectionAllocatorIN17PxcPoolMallocData9PoolData8EEEE15growAndPushBackERKS2_
gjm:__ZN15dense_hashtableINSt3__24pairIK10KeyWrapperIPK10Il2CppTypeEjEES6_N6il2cpp8metadata14Il2CppTypeHashEN14dense_hash_mapIS6_jSB_NS6_14EqualsComparerINSA_26Il2CppTypeEqualityComparerEEENS0_9allocatorIS8_EEE9SelectKeyESF_SH_E4findERS7_
iYm:dynCall_viiiiiiiiiiiiii
anf:_UNITY_FT_List_Add
aYc:__ZN14Texture2DArray11InitTextureEiii13TextureFormatb
Pzl:_X509Extension__ctor_m1474351312
wyg:__ZL104Encoding_t1523322056_CustomAttributesCacheGenerator_Encoding_t1523322056____DecoderFallback_PropertyInfoP21CustomAttributesCache
ZBk:_InvokableCall_1_Invoke_m1524307439_gshared
HMd:__ZN5physx15PxGeometryQuery14getWorldBoundsERKNS_10PxGeometryERKNS_11PxTransformEf
ebb:__ZN12CubemapArray21AwakeFromLoadThreadedEv
aue:__ZN5physx2Sc9ClothCore18setSolverFrequencyEf
Elj:_Directory_CreateDirectoriesInternal_m3735342319
g0g:__ZL108U3CStartU3Ec__Iterator0_t1249263001_CustomAttributesCacheGenerator_U3CStartU3Ec__Iterator0__ctor_m1316384627P21CustomAttributesCache
D8j:_List_1_RemoveAll_m517055598_gshared
Y6c:__Z41Camera_CUSTOM_WorldToScreenPoint_InjectedP12Il2CppObjectRK8Vector3fRS1_
ref:__ZN8ColliderC2E10MemLabelId18ObjectCreationMode
bom:__ZN15dense_hashtableINSt3__24pairIK10KeyWrapperINS1_IPK11Il2CppImageP11Il2CppClassEEEjEES9_17ReflectionMapHashIS8_EN14dense_hash_mapIS9_jSD_NS9_14EqualsComparerINS0_8equal_toIS8_EEEENS0_9allocatorISB_EEE9SelectKeyESI_SK_E14squash_deletedEv
PPi:_SHAConstants__cctor_m1699027474
tqb:__ZN9InputAxis8TransferI18StreamedBinaryReadILb0EEEEvRT_
N8e:__ZN5physx2Gu11HeightField8requiresERNS_23PxProcessPxBaseCallbackE
J8j:_List_1_TrimExcess_m4121641494_gshared
P7g:__ZL91GameManager_t1536523654_CustomAttributesCacheGenerator_GameManager_get_Instance_m3212275777P21CustomAttributesCache
vAg:__ZL78Convert_t2465617642_CustomAttributesCacheGenerator_Convert_ToInt16_m1733792763P21CustomAttributesCache
EXd:__ZN5physx2Gu16buildPartialHullERKNS0_13PolygonalDataEPNS0_12SupportLocalERNS0_14SeparatingAxesERKNS_6shdfnd3aos5Vec3VESC_
Qsb:__Z14resize_trimmedINSt3__26vectorIN4core12basic_stringIcNS2_20StringStorageDefaultIcEEEE13stl_allocatorIS6_L18MemLabelIdentifier13ELi16EEEEEvRT_j
ela:__GLOBAL__sub_I_Runtime_2D_SpriteAtlas_0_cpp
KNb:__Z18Transfer_BlittableI14SafeBinaryReadLb0EaEvRK29SerializationCommandArgumentsR31RuntimeSerializationCommandInfo
P6i:_CharEnumerator_System_Collections_IEnumerator_get_Current_m1328529384
GNl:_U3CUpdateCountdownBarU3Ec__Iterator0_MoveNext_m592157195
Vzj:_DBNull__ctor_m3431698857
Vud:__ZN11NoiseModule17CalculateNoiseJobILi3ELb1ELb1EEEvP12NoiseJobData
Mfb:__ZN4core8hash_setINS_4pairIKiiLb0EEENS_9hash_pairINS_4hashIiEES2_iEENS_10equal_pairINSt3__28equal_toIiEES2_iEEE6insertERKS3_
wQi:_TripleDES_IsWeakKey_m2147489852
ede:__ZNK5physx2Sc16ArticulationCore17releaseDriveCacheERNS_9PxcFsDataE
CZh:_GetRayIntersectionAllCallback_Invoke_m1316694896
GGk:__Z98RuntimeInvoker_Boolean_t97287965_RuntimeObject_Int32_t2950945753_RuntimeObject_Int64U26_t200113976PFvvEPK10MethodInfoPvPS4_
rxf:_UNITY_FT_List_Iterate
a_:__ZN24GenerateTypeTreeTransfer8TransferIN7mecanim8skeleton8SkeletonEEEvRT_PKc17TransferMetaFlags
s1d:__ZN5physx11NpAggregate7releaseEv
i6i:_Char_System_IConvertible_ToUInt64_m3536560782
J_j:_EqualityComparer_1__cctor_m3452395357_gshared
vbi:_X509ChainStatus_get_Status_m2572005749_AdjustorThunk
fdf:__ZN5physx6shdfnd7PAUtilsD2Ev
qW:__ZN19StreamedBinaryWriteILb0EE8TransferIKN4math7_float3EEEvRT_PKc17TransferMetaFlags
Xjc:__Z20SyncFenceCullResultsR11CullResults
Cfc:__ZN15TextureTFMethod20IsBoneCountSupportedEi
WAf:__ZN2UI11CanvasGroup12AddToManagerEv
$yh:_PlayableOutputHandle_CompareVersion_m841260813
sDj:_Double_ToString_m3828879243_AdjustorThunk
eSb:__Z22TransferField_NonArrayI17RemapPPtrTransfer27Converter_SimpleNativeClassI8GUIStyleEEvRK23StaticTransferFieldInfoR31RuntimeSerializationCommandInfoRT0_
Coe:__ZN5physx7NpShape12setMaterialsEPKPNS_10PxMaterialEt
rPf:__ZNK20UnityWebRequestProtoI24UnityWebRequestTransport16AtomicRefCounter14RedirectHelper14ResponseHelper15DownloadHandler13UploadHandler18CertificateHandler12HeaderHelper14AsyncOperationE16GetUploadedBytesEv
mQc:__ZNK17AnimationCurveTplIfE20EvaluateWithoutCacheEfRf
gVk:__Z67RuntimeInvoker_Boolean_t97287965_Rect_t2360479859_SByte_t1669577662PFvvEPK10MethodInfoPvPS4_
Q6:__ZN10AudioMixer23GetInitialSnapshotIndexEv
lhh:_CustomAttributeData__ctor_m2966233049
bZf:_CanvasUpdateRegistry_PerformUpdate_m1793997159
s7h:_WebHeaderCollection_GetKey_m809097130
H1c:__ZN4Mesh10SetNormalsEPK8Vector3fj
eNl:_AesManaged_CreateDecryptor_m692040246
VHm:__ZNSt3__212basic_stringIDsNS_11char_traitsIDsEENS_9allocatorIDsEEE9__grow_byEjjjjjj
YOl:_LightningAttack__ctor_m1880461227
ST:__ZN17AnimationCurveTplIfE8TransferI14SafeBinaryReadEEvRT_
m8k:_Array_InternalArray__set_Item_TisInt16_t2552820387_m2544074754_gshared
l1i:_ArithmeticException__ctor_m3551809662
nZc:__Z46CleanupLineParametersAnimationBindingInterfacev
GYc:__Z40CleanupRendererAnimationBindingInterfacev
bDd:__ZN22ParticleSystemRenderer15InitializeClassEv
fpl:__ZN21InterfaceFuncInvoker0I19Vector4_t3319028937E6InvokeEjP11Il2CppClassP12Il2CppObject
Z3k:__Z72RuntimeInvoker_CustomAttributeNamedArgument_t287865710_Int32_t2950945753PFvvEPK10MethodInfoPvPS4_
_$d:__ZN5physx2Gu9RadixSortD2Ev
Lzc:__Z29StdTemplateConversionFunctionIybEbPvR14SafeBinaryRead
teb:__ZNSt3__26vectorIN15QualitySettings14QualitySettingENS_9allocatorIS2_EEE6assignIPS2_EENS_9enable_ifIXaasr21__is_forward_iteratorIT_EE5valuesr16is_constructibleIS2_NS_15iterator_traitsIS9_E9referenceEEE5valueEvE4typeES9_S9_
zOa:__ZNK5Unity9Component10GetEnabledEv
a_d:__Z15raycast_capsuleRKN5physx10PxGeometryERKNS_11PxTransformERKNS_6PxVec3ES8_fNS_7PxFlagsINS_9PxHitFlag4EnumEtEEjPNS_12PxRaycastHitEbPFbRSD_PvESG_
D$h:_ScrollRect_get_scrollSensitivity_m2832710591
Lue:__ZNK5physx15NpActorTemplateINS_15PxParticleFluidEE14getOwnerClientEv
wml:_List_1_CopyTo_m1758106197_gshared
B8j:_List_1_CheckCollection_m1671972112_gshared
Sqm:_il2cpp_class_get_image
Gvi:_Enumerator_System_Collections_IEnumerator_get_Current_m1747693366_gshared
eak:_UnicodeEncoding_GetPreamble_m3002287178
Wua:__Z16AsyncReadRequestP16AsyncReadCommand
r5l:__ZNK15dense_hashtableINSt3__24pairIK10KeyWrapperIPK22Il2CppGenericParameterEP11Il2CppClassEES6_N6il2cpp5utils11PointerHashIS4_EEN14dense_hash_mapIS6_S9_SE_NS6_14EqualsComparerINS0_8equal_toIS5_EEEENS0_9allocatorISA_EEE9SelectKeyESJ_SL_E12test_deletedEj
D3e:__ZNK5physx34PxsSolverConstraintPostProcessTask7getNameEv
c4g:__ZL56Toggle_t2735377061_CustomAttributesCacheGenerator_m_IsOnP21CustomAttributesCache
SKb:__ZN20GpuProgramParameters14AddVectorParamEPKcii15ShaderParamTypeiiiP16PropertyNamesSet
qOf:__ZN9Scripting19UnityEngineInternal15WebRequestUtils12CleanupProxyEv
IRd:__ZN5physx2Gu23distancePointBoxSquaredERKNS_6PxVec3ES3_S3_RKNS_7PxMat33EPS1_
nif:__ZN5physx9NpPhysics20MeshDeletionListener28onGuMeshFactoryBufferReleaseEPKNS_6PxBaseEtb
NOf:__ZNK12HeaderHelper3GetERKN4core12basic_stringIcNS0_20StringStorageDefaultIcEEEE
Hri:_DefaultComparer__ctor_m704436039_gshared
qqb:__ZN9InputAxis8TransferI14SafeBinaryReadEEvRT_
Qra:__ZNK21ExecutionOrderManager30GetCustomAwakeFromLoadQueueForEPKN5Unity4TypeE
XFe:__ZNK5physx7NpScene9getActorsENS_7PxFlagsINS_15PxActorTypeFlag4EnumEtEEPPNS_7PxActorEjj
MNf:__Z27RegisterModule_UnityConnectv
lPf:__ZN18CertificateHandler7ReleaseEv
HSc:__ZZL31RegisterRectTransformPropertiesR22GenericPropertyBindingEN32Wrapper_RectTransformSizeDeltax013GetFloatValueEPv
Coj:_MemoryStream_Expand_m3554752073
Nej:_DateTimeFormatInfo_get_RoundtripPattern_m796050488
Jxe:__ZN5physx15PxParticleFluidD0Ev
NNe:__ZN5physx11NodeManagerD0Ev
cRm:__ZN6il2cpp2os20ThreadLocalValueImpl8SetValueEPv
dDh:_ScriptableObject_CreateInstance_m2611081756
FIg:__ZL115TouchScreenKeyboard_t731888065_CustomAttributesCacheGenerator_TouchScreenKeyboard_Open_m3609399077____keyboardType1P21CustomAttributesCache
fpi:_InternalEnumerator_1_System_Collections_IEnumerator_get_Current_m1635397542_gshared
hpj:_Path__cctor_m3273994011
PPl:_AnalyticsEventTracker__ctor_m3064238498
W1d:__ZNK5physx2Sc8BodyCore6getSimEv
rWm:__ZNSt11logic_errorD2Ev
oyj:_DateTimeUtils_CountRepeat_m3396693018
wkk:_WeakReference_get_Target_m168713953
h1m:_glBindRenderbuffer__wrapper
q6:__ZN10ObjectPoolIN4FMOD12ChannelGroupENS0_13ChannelGroupIEE7SetSizeEi
RMl:_SymmetricTransform_FinalDecrypt_m764004682
cGm:__ZN6il2cpp2os10ThreadImpl33UnregisterCurrentThreadForCleanupEv
nqk:_ReadOnlyCollection_1_System_Collections_IList_Remove_m1965826685_gshared
Vkd:__ZN9Scripting11UnityEngine26ParticleSystemVertexStream9InitProxyEv
dol:_List_1_System_Collections_IList_get_Item_m1315368445_gshared
d$g:__ZL114PointerEventData_t3807901092_CustomAttributesCacheGenerator_PointerEventData_get_pointerCurrentRaycast_m2627585223P21CustomAttributesCache
BFl:_Parser_ParseGroupingConstruct_m263270497
GV:__ZN18StreamedBinaryReadILb0EE21TransferSTLStyleArrayI22OffsetPtrArrayTransferIN7mecanim9animation10ValueDeltaEEEEvRT_17TransferMetaFlags
_Og:__ZL112PlayerConnection_t3081694049_CustomAttributesCacheGenerator_PlayerConnection_MessageCallbackInternal_m1914517467P21CustomAttributesCache
Fma:__Z22ValidateTlsfAllocationPvjiS_
nji:_InternalEnumerator_1_MoveNext_m3525157932_gshared
KNf:__ZN11UnityEngine9Analytics22EventLimitReachedEventC2EjyyRKN4core12basic_stringIcNS2_20StringStorageDefaultIcEEEEb
hX:__ZN15SerializeTraitsINSt3__24pairI8StateKey10StateRangeEEE8TransferI14SafeBinaryReadEEvRS4_RT_
hom:__ZN14dense_hash_mapI10KeyWrapperINSt3__24pairIPK9EventInfoP11Il2CppClassEEEj17ReflectionMapHashIS8_ENS9_14EqualsComparerINS1_8equal_toIS8_EEEENS1_9allocatorINS2_IKS9_jEEEEE15set_deleted_keyERSH_
Xqe:__ZNK5physx7NpCloth25getMotionConstraintConfigEv
vnd:__Z32TransferEnumWithNameForceIntSizeI14SafeBinaryReadN11ShapeModule17MeshPlacementModeEEvRT_RT0_PKc17TransferMetaFlags
COc:__Z12GUIDToStringRK9UnityGUID
qHh:_Vector4_op_Division_m264790546
xDm:__ZN6il2cpp6icalls8mscorlib6System4Enum12get_hashcodeEP12Il2CppObject
raa:__ZN11SoundHandleC2ERKS_
SBj:_Delegate_CreateDelegate_m1051651521
ZF:__ZN17AnimationPlayableC2E18DirectorPlayerType
pNf:__ZN22UnityAnalyticsSettingsC2Ev
zbm:__ZNK6il2cpp5utils11collections13ArrayValueMapIPK10Il2CppType17Il2CppInteropData26InteropDataToTypeConverterNS_8metadata14Il2CppTypeLessENS8_26Il2CppTypeEqualityComparerEE10find_firstERKS5_
NW:__ZN18AnimatorController23VirtualRedirectTransferER18StreamedBinaryReadILb0EE
hFe:__ZThn8_N5physx2Sc24ElementInteractionMarker7destroyEv
xpl:_List_1_Reverse_m1445355384_gshared
Zmj:_FileStream_get_CanSeek_m331583577
kZb:__ZN11Quaternionf8TransferI18StreamedBinaryReadILb1EEEEvRT_
dAc:__Z29StdTemplateConversionFunctionItxEbPvR14SafeBinaryRead
sJh:_WellKnownServiceTypeEntry_get_ObjectType_m3211195371
ZSl:_PCMReaderCallback_EndInvoke_m3916876196
_B:__ZNSt3__26__sortIR23DependencySortPredicatePN4core4pairIiP9BehaviourLb0EEEEEvT0_S9_T_
oWm:__ZNSt9bad_allocD0Ev
y6f:_TypeBuilder_get_ContainsGenericParameters_m1769080325
UPh:_DSAParameters_t1885824122_marshal_pinvoke_back
N$d:__ZN5physx3Cct26CharacterControllerManager24setOverlapRecoveryModuleEb
xM:__ZN8Animator22OnGraphTopologyChangedEP8Playablei
eRj:_Kernel_MultiplyByDword_m1266935086
SHm:__ZN4utf89unchecked8utf8to16INSt3__220back_insert_iteratorINS2_12basic_stringIDsNS2_11char_traitsIDsEENS2_9allocatorIDsEEEEEEPKcEET_T0_SE_SD_
GI:__ZN17AnimationPlayable18DeallocateBindingsEv
yKk:__Z158RuntimeInvoker_Boolean_t97287965_RuntimeObject_Int32U26_t1369213839_Int32_t2950945753_Int32_t2950945753_RuntimeObject_SByte_t1669577662_ContextU26_t3937453398PFvvEPK10MethodInfoPvPS4_
oVi:_String_Trim_m3384720403
FWm:___cxa_guard_release
b1a:__ZN14RenderSettings18TransferDeprecatedI14SafeBinaryReadEEvRT_
SPd:__ZN24ConvexVsHeightfieldSweepD0Ev
iwm:__ZN6il2cpp2vm9Exception27RaiseNullReferenceExceptionERKNS_5utils10StringViewIDsEEP19Il2CppSequencePoint
HJl:_Event__ctor_m526447123
HCg:__ZL56RankException_t3812021567_CustomAttributesCacheGeneratorP21CustomAttributesCache
i0k:__Z72RuntimeInvoker_Boolean_t97287965_CustomAttributeNamedArgument_t287865710PFvvEPK10MethodInfoPvPS4_
YRk:__Z88RuntimeInvoker_RuntimeObject_RuntimeObject_RuntimeObject_RuntimeObject_Int32_t2950945753PFvvEPK10MethodInfoPvPS4_
p1k:__Z59RuntimeInvoker_Int32_t2950945753_KeyValuePair_2_t2530217319PFvvEPK10MethodInfoPvPS4_
lgk:_Type_ToString_m3975981286
nna:__ZN12TLSAllocatorI14StackAllocatorE8AllocateEji
GUl:_ConsumeSampleFramesNativeFunction_BeginInvoke_m342678987
Psa:__ZN16ScriptingManager18GetMonoScriptCacheEi
ged:__ZN8JSONRead21TransferSTLStyleArrayI13dynamic_arrayI11KeyframeTplIfELj0EEEEvRT_17TransferMetaFlags
Fhc:__ZN20ArchiveStorageHeader13GetDataOffsetERKNS_6HeaderE
PFl:_ExpressionAssertion__ctor_m2554412824
lHl:_CapturingGroup_IsComplex_m4061114763
N9k:_Array_Resize_TisCustomAttributeTypedArgument_t2723150157_m3021884250_gshared
T3j:_Enumerator_System_Collections_IEnumerator_get_Current_m2237476582_gshared
RNb:__Z18Transfer_BlittableI14SafeBinaryReadLb1EyEvRK29SerializationCommandArgumentsR31RuntimeSerializationCommandInfo
xkk:_WeakReference_Finalize_m2841826116
ltd:__ZNSt3__27__sort5IR31SortCollisionEventsByGameObjectP22ParticleCollisionEventEEjT0_S5_S5_S5_S5_T_
vdh:_NullReferenceException__ctor_m3076065613
hed:__ZN8JSONRead8TransferIfEEvRT_PKc17TransferMetaFlagsb
QYl:__ZL25UnresolvedVirtualCall_221P12Il2CppObject6Guid_tS1_PK10MethodInfo
eS:__ZN25RuntimeAnimatorController8TransferI17RemapPPtrTransferEEvRT_
XHe:__ZNK5physx2Sc10NPhaseCore39getDefaultContactReportStreamBufferSizeEv
Ixk:_Comparison_1_EndInvoke_m3981968715_gshared
$Hc:__ZN9ShaderLab7Program22ComputeSupportsShadowsEv
$7h:_X509SubjectKeyIdentifierExtension_Decode_m1505409124
Ire:__ZN5physx7NpCloth25setSelfCollisionStiffnessEf
fRe:__ZZN5physx28PxcSweepEstimateAnyShapeMeshERKNS_11PxsCCDShapeES2_PKNS_12PxsRigidBodyES5_RKNS_11PxTransformES8_fEN2CBD0Ev
MPl:_AnalyticsEventParamListContainer__ctor_m1995104893
TUi:_String_System_IConvertible_ToUInt16_m2888090399
r9:__ZN11AudioSource21ApplyCachedParametersE12SoundChannel
hgh:_Assembly_InternalGetType_m3065345470
Yfa:__ZN13Simd4iFactoryIN6detail9FourTupleEEC2Eiiii
aii:_InternalEnumerator_1__ctor_m3390957028_gshared
ecg:_ResourceSet__ctor_m3356376607
Q_f:_FloatTween_set_startValue_m53556027_AdjustorThunk
FUf:_PhysicsRaycaster_get_maxRayIntersections_m3887348715
aug:__ZL56_ParameterInfo_t489405856_CustomAttributesCacheGeneratorP21CustomAttributesCache
Pgb:__ZN15SerializeTraitsI33EnlightenTerrainChunksInformationE8TransferI14SafeBinaryReadEEvRS0_RT_
Cle:__ZN5physx2Sc14ConstraintCoreD2Ev
ZYc:__ZNK32RendererMaterialAnimationBinding9BindValueER6ObjectRKN11UnityEngine9Animation14GenericBindingERNS3_10BoundCurveE
G2g:__ZL109MaskableGraphic_t3839221559_CustomAttributesCacheGenerator_MaskableGraphic_ParentMaskStateChanged_m1092090553P21CustomAttributesCache
Yzi:_Transform_1_Invoke_m1731820209_gshared
Bie:__ZN5physx15NpActorTemplateINS_18PxArticulationLinkEE13setActorFlagsENS_7PxFlagsINS_11PxActorFlag4EnumEtEE
A3a:__Z13GetIAnimationv
dab:__ZL18stbir__support_onef
Z9e:__ZN5physx6shdfnd8internal8HashBaseIPNS_11PxAggregateES4_NS0_4HashIS4_EENS1_11HashSetBaseIS4_S6_NS0_9AllocatorELb0EE6GetKeyES8_Lb0EE15reserveInternalEj
kUi:_Single_CompareTo_m189772128
Wfd:__Z26Transfer_UnityEngineObjectI9JSONWriteLb0EEvRK29SerializationCommandArgumentsR31RuntimeSerializationCommandInfo
uri:_DefaultComparer_Compare_m4042058291_gshared
lAd:__ZN14VelocityModuleD2Ev
L7a:__ZNSt3__26vectorIN4core12basic_stringIcNS1_20StringStorageDefaultIcEEEE13stl_allocatorIS5_L18MemLabelIdentifier1ELi16EEE6assignINS_11__wrap_iterIPS5_EEEENS_9enable_ifIXaasr21__is_forward_iteratorIT_EE5valuesr16is_constructibleIS5_NS_15iterator_traitsISF_E9referenceEEE5valueEvE4typeESF_SF_
cZm:dynCall_iiiifii
SFf:__ZNSt3__27__sort5IRNS_6__lessIN2UI14DepthSortEntryES3_EEPS3_EEjT0_S7_S7_S7_S7_T_
Jmj:_FileLoadException_ToString_m2989457882
Ozl:_AuthorityKeyIdentifierExtension__ctor_m2197389230
eOk:__Z165RuntimeInvoker_Void_t1185182177_UInt32U26_t3735378166_Int32_t2950945753_UInt32U26_t3735378166_Int32_t2950945753_Int32_t2950945753_Int32_t2950945753_Int32_t2950945753PFvvEPK10MethodInfoPvPS4_
Hmf:_UNITY_FT_DivFix
edl:_Array_InternalArray__get_Item_TisDecimal_t2948259380_m3511003792_gshared
R1:__ZL45__ManagedRegistrationHelperFunction_AudioClipPv
ERi:_SecurityElement_IsValidAttributeValue_m948345692
Bz:__ZN12NavMeshQuery18InitSlicedFindPathEyyRK8Vector3fS2_PK11QueryFilter
mYc:__ZN14Texture2DArrayC2E10MemLabelId18ObjectCreationMode
Fei:_Action_3__ctor_m967275408_gshared
Ia:invoke_vdd
go:FUNCTION_TABLE_fiii
wsg:__ZL102MethodInfo_t_CustomAttributesCacheGenerator_MethodInfo_MakeGenericMethod_m1996785325____typeArguments0P21CustomAttributesCache
EFg:__ZL75g_UnityEngine_SharedInternalsModule_Assembly_CustomAttributesCacheGeneratorP21CustomAttributesCache
N$c:__Z19RegisterModule_Corev
RZ:__ZN14SafeBinaryRead21TransferSTLStyleArrayI19StaticArrayTransferIiLi15EEEEvRT_17TransferMetaFlags
Jhg:_AsyncResult_get_CallMessage_m1679778649
KIj:_Array_InternalArray__IEnumerable_GetEnumerator_TisPlayableBinding_t354260709_m1924544205_gshared
Nzf:__ZZ29InitializeTextRenderingModulevEN27cleanupAfterLoadRegistrator7ForwardEv
qv:__ZN20NavMeshBuildSettings8TransferI19StreamedBinaryWriteILb0EEEEvRT_
dK:__ZN27AnimationLayerMixerPlayable24ProcessAnimationLayerMixEP33AnimationPlayableEvaluationOutputP35AnimationPlayableEvaluationConstantP32AnimationPlayableEvaluationInputS1_if
pcj:_CCFixed_FromDateTime_m3894190577
VPm:__ZN6il2cpp6icalls8mscorlib4Mono8Security12Cryptography18KeyPairPersistence19_IsMachineProtectedEP12Il2CppString
Nvc:__Z29PluginsIssueRenderingExtEvent26UnityRenderingExtEventTypePv
OJk:__Z116RuntimeInvoker_RuntimeObject_RuntimeObject_Int32_t2950945753_RuntimeObject_RuntimeObject_RuntimeObject_RuntimeObjectPFvvEPK10MethodInfoPvPS4_
iNh:_RuntimeMethodHandle__ctor_m2229201676_AdjustorThunk
$Kh:_MessageFormatter_ReadMethodCall_m2327590823
BFd:__Z19UpdateSingleRow2TplIL27ParticleSystemCurveEvalMode2ELS0_2EEvfRK11MinMaxCurveS3_RK23ParticleSystemParticlesPfbiii
LRk:__Z48RuntimeInvoker_Void_t1185182177_Byte_t1134296376PFvvEPK10MethodInfoPvPS4_
QXc:__Z14RandomRotationP9Texture2DPhiiii
$Lj:_Array_InternalArray__ICollection_Add_TisUInt16_t2177724958_m3981262878_gshared
Mhf:__ZThn132_N5physx7profile8ZoneImplINS_28PxProfileNameProviderForwardEED1Ev
j3j:_HashSet_1_Contains_m3173358704_gshared
GRl:_ToggleEvent__ctor_m834619998
yqi:_InternalEnumerator_1_Dispose_m436383441_AdjustorThunk
xFi:_PKCS1_Encode_v15_m2077073129
_Lb:__ZN10Instancing11DrawAPIArgsC2ERK19ShaderPropertySheetPK8Vector4fS6_S6_i
xXj:_Dictionary_2_get_Values_m2682483593_gshared
KUj:_ContentInfo_get_Content_m1945593776
mnk:_Collection_1_set_Item_m4084225937_gshared
mbi:_X509ChainElementCollection_System_Collections_IEnumerable_GetEnumerator_m3829089536
tx:__ZN7NavMesh18SetSurfaceSettingsEiRK20NavMeshBuildSettings
uGe:__ZN5physx7NpScene27setCCDContactModifyCallbackEPNS_26PxCCDContactModifyCallbackE
c6k:__Z51RuntimeInvoker_OrderBlock_t1585977831_RuntimeObjectPFvvEPK10MethodInfoPvPS4_
abf:__ZNK5physx17ConvexHullBuilder17ComputeGeomCenterERNS_6PxVec3E
vBh:_RectOffset_get_left_m1232181034
Stm:__ZNSt3__214__split_bufferIN6il2cpp8metadata18GenericArrayMethodERNS_9allocatorIS3_EEED2Ev
tVe:__ZN3MBPD0Ev
GKb:__ZN4gles14UseGLSLProgramER15DeviceStateGLESjbij
sXk:__Z59RuntimeInvoker_Boolean_t97287965_Int32_t2950945753_IntPtr_tPFvvEPK10MethodInfoPvPS4_
c5m:_glDeleteProgram__wrapper
Dvg:__ZL101RemotingServices_t1401195504_CustomAttributesCacheGenerator_RemotingServices_GetRealProxy_m2081098851P21CustomAttributesCache
lod:__ZN11ShapeModule18MultiModeParameterIN25IParticleSystemProperties8PropertyIfNS1_11ClampRadiusEEEE8TransferI24GenerateTypeTreeTransferEEvRT_
pab:__ZN6prcoreL18BlitFloatToIntegerERK14ImageReferenceRS0_
iAj:_DBNull_System_IConvertible_ToUInt32_m3784627971
vJi:_ClientSessionCache_Add_m964342678
AJe:__ZNK5physx10PxsContext18getBounceThresholdEv
O3c:__ZN23TransformChangeDispatch46GetAndClearChangedTransformsForMultipleSystemsEyR13dynamic_arrayI23TransformAccessReadOnlyLj0EERS0_IyLj0EEPN9profiling6MarkerE
Clc:__Z13GetIPhysics2Dv
gka:__ZN11UnityEngine15CloudWebService14RestDownloader17OnCompleteContentEv
Zhm:__ZN15dense_hashtableINSt3__24pairIK10KeyWrapperINS1_IPK14Il2CppAssemblyP11Il2CppClassEEEjEES9_17ReflectionMapHashIS8_EN14dense_hash_mapIS9_jSD_NS9_14EqualsComparerINS0_8equal_toIS8_EEEENS0_9allocatorISB_EEE9SelectKeyESI_SK_E15insert_noresizeERKSB_
YLb:__ZN10Instancing11DrawAPIArgsC2Ev
oFh:_Transform_get_localScale_m129152068
nBj:_DivideByZeroException__ctor_m3496959969
ydc:__ZN26SinglePassStereoSupportExt19AfterDrawCallStereoEv
DEe:__ZN5physx6shdfnd5ArrayIPvNS0_15InlineAllocatorILj256ENS0_19ReflectionAllocatorINS_2Gu31SpherePersistentContactManifoldEEEEEE15growAndPushBackERKS2_
L5e:__ZN5physx2Cm18DelegateFanoutTaskINS_2Sc5SceneEXadL_ZNS3_17finalizationPhaseEPNS_10PxBaseTaskEEEE11runInternalEv
CZ:__ZN6Avatar8TransferI14SafeBinaryReadEEvRT_
fM:__ZN17AnimationPlayable28UpdateInternalStateRecursiveILi1ELb0EEEvPK35AnimationPlayableEvaluationConstant
NCm:__ZN6il2cpp2gcL10CleanupCCWEPvS1_
_a:invoke_vifff
Ive:__ZN5physx15NpParticleFluid15exportExtraDataERNS_22PxSerializationContextE
F3m:_glGetVertexAttribiv__wrapper
vhe:__ZN5physx6shdfnd15atomicDecrementEPVi
nf:_emscripten_request_fullscreen
cAk:_Predicate_1_Invoke_m851618236_gshared
F5e:__ZN5physx2Cm12DelegateTaskINS_2Sc5SceneEXadL_ZNS3_11postCCDPassEPNS_10PxBaseTaskEEEED0Ev
c3b:__ZN20LocalFileSystemWebGL6DeleteER13FileEntryDatab
pf:_emscripten_glDisableVertexAttribArray
JGj:_Array_InternalArray__ICollection_Remove_TisSingle_t1397266774_m3361324455_gshared
ao:FUNCTION_TABLE_iiiifiiii
wRg:__ZL90AnimationCurve_t3046754366_CustomAttributesCacheGenerator_AnimationCurve_Cleanup_m35123172P21CustomAttributesCache
srl:_Collection_1_set_Item_m839097518_gshared
Eii:_InternalEnumerator_1__ctor_m3456047704_gshared
sc:invoke_fifffi
_lk:_Collection_1_System_Collections_IList_Add_m2969482770_gshared
SRj:_BitConverterLE_GetBytes_m4130646282
jcc:__ZN4gles23ClearCurrentFramebufferEP7ApiGLESbbbRK10ColorRGBAffi
zK:__ZN7mecanim12statemachine20CreateStateWorkspaceEjjjRNS_6memory9AllocatorE
jlm:__ZNK10KeyWrapperINSt3__24pairIPK12PropertyInfoP11Il2CppClassEEE14EqualsComparerINS0_8equal_toIS7_EEEclERKS8_SE_
VDk:_UnityEvent_1_Invoke_m3604335408_gshared
yBg:__ZL79Convert_t2465617642_CustomAttributesCacheGenerator_Convert_ToUInt64_m2652538228P21CustomAttributesCache
Iaf:__ZN5physx2Gu11HeightField13releaseMemoryEb
Af:_emscripten_glDeleteObjectARB
gTf:_EventSystem_RaycastComparer_m3685368675
hdb:__Z14DecompressDXT3iiiPKjPj
HNk:__Z131RuntimeInvoker_Void_t1185182177_RuntimeObject_RuntimeObject_Int64_t3736567304_ObjectU26_t2146539884_SerializationInfoU26_t419328957PFvvEPK10MethodInfoPvPS4_
dDa:__ZN6prcoreL27StretchGenericFloatBilinearI18TexFormatARGBFloatEEvPKNS_9InnerInfoE
Hrd:__ZN12LightsModule5StartER23ParticleSystemParticlesjj
GSj:_DSAManaged_CreateSignature_m2233977444
X0g:__ZL87U3CDelayedDestroyDropdownListU3Ec__Iterator0_t3853912249_CustomAttributesCacheGeneratorP21CustomAttributesCache
v_i:_PKCS12_RemoveCertificate_m1421555398
w2h:_Slider_FindSelectableOnLeft_m1667068522
YCa:__ZN6prcoreL17RemapGenericFloatI17TexFormatRGBAHalf18TexFormatARGBFloatEEvPKNS_9InnerInfoE
z$e:__ZN5physx24PxsParticleSystemBatcher23scheduleShapeGenerationEPPNS_20PxvParticleSystemSimEPNS_28PxvParticleShapesUpdateInputEjRNS_10PxBaseTaskE
ecd:__Z14GetBuiltinSkini
Qfa:___cxx_global_var_init_12
zfa:___cxx_global_var_init_13
Ofa:___cxx_global_var_init_10
Pfa:___cxx_global_var_init_11
YGk:__Z60RuntimeInvoker_SByte_t1669577662_RuntimeObject_RuntimeObjectPFvvEPK10MethodInfoPvPS4_
jSj:_CryptoConvert_ToInt32LE_m3340980429
WFm:__ZN6il2cpp2os10ThreadImpl13SetWaitObjectEPNS0_5posix15PosixWaitObjectE
Kl:_JS_SystemInfo_GetBrowserVersionString
syb:__ZN2UI13RectTransform23VirtualRedirectTransferER14SafeBinaryRead
Wsb:__ZN24GenerateTypeTreeTransfer8TransferINSt3__26vectorIN4core12basic_stringIcNS3_20StringStorageDefaultIcEEEE13stl_allocatorIS7_L18MemLabelIdentifier13ELi16EEEEEEvRT_PKc17TransferMetaFlags
dHe:__ZN5physx7NpScene17flushQueryUpdatesEv
QAi:_Enumerator_MoveNext_m3045873697_gshared
RTk:__Z31RuntimeInvoker_Rect_t2360479859PFvvEPK10MethodInfoPvPS4_
NFc:__ZNSt3__26vectorIN9ShaderLab20SerializedSubProgramENS_9allocatorIS2_EEE6assignIPS2_EENS_9enable_ifIXaasr21__is_forward_iteratorIT_EE5valuesr16is_constructibleIS2_NS_15iterator_traitsIS9_E9referenceEEE5valueEvE4typeES9_S9_
hid:__Z18Transfer_BlittableI8JSONReadLb0E8BitFieldEvRK29SerializationCommandArgumentsR31RuntimeSerializationCommandInfo
eRi:_SecurityPermission_set_Flags_m1503445204
d3j:_HashSet_1_CopyTo_m2849056227_gshared
VXb:__ZL17Transfer_GUIStyleI18StreamedBinaryReadILb1EELb0EEvRK29SerializationCommandArgumentsR31RuntimeSerializationCommandInfo
I9c:__ZN9Scripting11UnityEngine15ScrollViewState9InitProxyEv
OQj:_ModulusRing_Multiply_m343333088
Vef:__ZN12PhysXRaycast15InitializeClassEv
vHe:__ZN5physx7NpScene10unlockReadEv
HTg:__ZL76AnimatorTransitionInfo_t2534804151_CustomAttributesCacheGenerator_m_AnyStateP21CustomAttributesCache
HDc:__ZN9ShaderLab14SerializedPass8TransferI14SafeBinaryReadEEvRT_
Bbd:__Z71Register_UnityEngine_GUILayoutUtility_INTERNAL_CALL_Internal_MoveWindowv
Mca:__ZN12AudioManager16SetListenerPauseEb
zN:__ZN11UnityEngine9Animation31SetHumanTransformPropertyValuesERKNS0_21AvatarBindingConstantERKN7mecanim8skeleton13SkeletonPoseTIN4math4trsXEEEby
Nsb:__ZNSt3__26vectorIN30RuntimeInitializeOnLoadManager9ClassInfoE13stl_allocatorIS2_L18MemLabelIdentifier13ELi16EEE6assignINS_11__wrap_iterIPS2_EEEENS_9enable_ifIXaasr21__is_forward_iteratorIT_EE5valuesr16is_constructibleIS2_NS_15iterator_traitsISC_E9referenceEEE5valueEvE4typeESC_SC_
OId:__ZL50__ManagedRegistrationHelperFunction_ContactPoint2DPv
DUg:__ZL77AudioClip_t3680889665_CustomAttributesCacheGenerator_m_PCMSetPositionCallbackP21CustomAttributesCache
m9j:_StringBuilder_get_Length_m3238060835
_vg:__ZL64OnSerializedAttribute_t2595932830_CustomAttributesCacheGeneratorP21CustomAttributesCache
aqh:_StateChanged_EndInvoke_m3313423087
fa:invoke_viiiiiiiiiii
jSm:___syscall_ret
GAl:_DeriveBytes_set_Salt_m1400945044
pVf:_PointerEventData_set_worldNormal_m1888481930
vYf:_CanvasScaler_set_referencePixelsPerUnit_m1768965301
xGl:_AnchorInfo__ctor_m46784903
bIi:_CipherSuiteCollection_get_Item_m4188309062
kxl:_SslHandshakeHash_HashFinal_m2573455475
Ygg:_SynchronizationAttribute_ReleaseLock_m1030353464
$om:__ZNSt3__212basic_stringIcNS_11char_traitsIcEENS_9allocatorIcEEE6assignINS_11__wrap_iterIPKcEEEENS_9enable_ifIXaasr21__is_forward_iteratorIT_EE5valuesr38__libcpp_string_gets_noexcept_iteratorISC_EE5valueERS5_E4typeESC_SC_
iIf:__Z56Register_UnityEngine_Analytics_CustomEventData_AddDoublev
Rib:__ZN11ChannelInfo8TransferI19StreamedBinaryWriteILb0EEEEvRT_
YHm:__ZN4utf88internal13validate_nextIPKcEENS0_9utf_errorERT_S5_Rj
d4g:__ZL53ToggleGroup_t123837990_CustomAttributesCacheGeneratorP21CustomAttributesCache
Zse:__ZN5physx2Sc9ClothCore22setFrictionCoefficientEf
ROi:_SHA1Internal_AddLength_m2737455899
jmc:__ZN14qsort_internal13Partition3WayIP17RODataReplacementi19ROSorterReplacementEENSt3__24pairIT_S6_EES6_S6_T0_T1_
ane:__ZNK5physx9NpPhysics17getNbConvexMeshesEv
SGe:__ZNK5physx7NpScene29getContactCorrelationDistanceEv
XWj:_KeyValuePair_2_get_Value_m755756747_gshared
ALc:__Z34Register_UnityEngine_Gradient_Initv
Q0c:__Z15WriteLineVertexILb0EEvRPhRKN4math8float4x4ERKNS2_7_float3ERK11ColorRGBA32RKffRKNS2_7_float2E
qod:__ZN13InitialModule8TransferI17RemapPPtrTransferEEvRT_
ykh:_GenericTypeParameterBuilder_IsArrayImpl_m67259334
igg:_Context_ToString_m1073616138
Jch:_DefaultMemberAttribute_get_MemberName_m3384235354
upd:__ZN25IParticleSystemProperties8PropertyI8Vector3fNS_3MinILi0EEEE8TransferI18StreamedBinaryReadILb0EEEEvRT_PKc
QRh:_InputField_EnforceTextHOverflow_m3400115777
qil:_List_1_System_Collections_IEnumerable_GetEnumerator_m1225415523_gshared
akf:__ZN9Scripting11UnityEngine12TreeInstance9InitProxyEv
kVk:__Z41RuntimeInvoker_TextureWrapMode_t584250749PFvvEPK10MethodInfoPvPS4_
uCc:__ZN12LineRenderer23VirtualRedirectTransferER24GenerateTypeTreeTransfer
uqb:__ZN9InputAxis8TransferI19StreamedBinaryWriteILb0EEEEvRT_
mij:__Z33il2cpp_codegen_check_sub_overflowxx
fGg:__ZL98NativeMethodAttribute_t4187428193_CustomAttributesCacheGenerator_U3CIsThreadSafeU3Ek__BackingFieldP21CustomAttributesCache
JSh:_InputField_get_caretColor_m2973283772
E2l:_ListPool_1_Release_m591299672_gshared
j1d:__ZN5physx6shdfnd8SyncImpl4waitEj
XAg:__ZL79Convert_t2465617642_CustomAttributesCacheGenerator_Convert_ToUInt16_m3116648921P21CustomAttributesCache
api:_InternalEnumerator_1_MoveNext_m1096095130_AdjustorThunk
wmk:_Collection_1_RemoveAt_m226266097_gshared
dpj:_NullStream_Seek_m1914924606
Hnd:__Z32TransferEnumWithNameForceIntSizeI14SafeBinaryRead25ParticleSystemScalingModeEvRT_RT0_PKc17TransferMetaFlags
oWg:__ZL63GUISkin_t1244372282_CustomAttributesCacheGenerator_m_ScrollViewP21CustomAttributesCache
tLg:__ZL62SortingGroupsUpdate_t3400410071_CustomAttributesCacheGeneratorP21CustomAttributesCache
TCj:_Double_System_IConvertible_ToInt16_m3591921965_AdjustorThunk
Kxk:_Comparison_1_Invoke_m2925518770_gshared
uBd:__ZN33SizeBySpeedModulePropertyBindings13GetFloatValueERK14ParticleSystemi
qRa:__ZN10GameObject23VirtualRedirectTransferER18StreamedBinaryReadILb0EE
AMl:_SymmetricTransform__ctor_m2693628991
W6c:__Z36Camera_CUSTOM_get_pixelRect_InjectedP12Il2CppObjectR5RectTIfE
DWk:__Z67RuntimeInvoker_Void_t1185182177_Scene_t2348375561_Scene_t2348375561PFvvEPK10MethodInfoPvPS4_
Rg:_glFrontFace
Hbm:__ZNK15dense_hashtableINSt3__24pairIK10KeyWrapperIPK11Il2CppClassEPKcEES6_N6il2cpp5utils11PointerHashIS3_EEN14dense_hash_mapIS6_S9_SE_NS6_14EqualsComparerINS0_8equal_toIS5_EEEENS0_9allocatorISA_EEE9SelectKeyESJ_SL_E13find_positionERS7_
jud:__Z13DragUpdateTplIL27ParticleSystemCurveEvalMode4EEvRK11MinMaxCurvebbR23ParticleSystemParticlesjjRKN4math7_float4E
Wv:__ZN11OffMeshLink14OnNavMeshAddedEv
hoj:_FileSystemInfo_InternalRefresh_m1700260373
u0f:_Dropdown_OnSubmit_m1624226516
KCg:__ZL101RuntimeMethodHandle_t1133924984_CustomAttributesCacheGenerator_RuntimeMethodHandle_Equals_m3301340296P21CustomAttributesCache
l1j:_EqualityComparer_1_get_Default_m1390205541_gshared
nWl:__ZL24UnresolvedVirtualCall_84P12Il2CppObjectS0_S0_S0_S0_PK10MethodInfo
nod:__ZN14ParticleSystem8TransferI17RemapPPtrTransferEEvRT_
jbm:__ZNK15dense_hashtableINSt3__24pairIK10KeyWrapperIPK19Il2CppGenericMethodEPK26Il2CppGenericMethodIndicesEES6_N6il2cpp8metadata23Il2CppGenericMethodHashEN14dense_hash_mapIS6_SA_SE_NS6_14EqualsComparerINSD_26Il2CppGenericMethodCompareEEENS0_9allocatorISB_EEE9SelectKeyESI_SK_E12test_deletedEj
lw:__ZN22NavMeshProjectSettingsD0Ev
kYh:_MaskUtilities_IsDescendantOrSelf_m2247511982
OPk:__Z51RuntimeInvoker_UInt16_t2177724958_SByte_t1669577662PFvvEPK10MethodInfoPvPS4_
KIe:__ZN5physx13NpVolumeCache17getNbCachedShapesEv
YFk:__Z46RuntimeInvoker_Double_t594665363_RuntimeObjectPFvvEPK10MethodInfoPvPS4_
bVk:__Z34RuntimeInvoker_Vector2_t2156229523PFvvEPK10MethodInfoPvPS4_
DSa:__ZN12BaseRenderer21SetGlobalLayeringDataE18GlobalLayeringDataj
H4e:__ZN5physx2Sc15ArticulationSim10sleepCheckEffb
HJa:__ZN9Scripting11UnityEngine15HideInInspector12CleanupProxyEv
OSi:_SecurityElement__cctor_m3326869319
lNl:_AesManaged_set_Key_m767972181
phj:_Int16_System_IConvertible_ToBoolean_m1656400658_AdjustorThunk
$Ff:__ZN2UI14CanvasRenderer11SyncCullingENS0_8SyncFlagE
c5i:_Byte_System_IConvertible_ToInt64_m285584218
SLh:_ObjectManager__ctor_m1844334865
U9b:__ZN13GfxDeviceGLES22SetScissorRectPlatformERK5RectTIiE
nCa:__ZN6prcoreL17RemapGenericFloatI17TexFormatRGBFloat18TexFormatRGBAFloatEEvPKNS_9InnerInfoE
saj:_DictionaryEntry_t3123975638_marshal_pinvoke_cleanup
lKe:__ZN5physx2Sc5Scene15getRenderBufferEv
v0a:__ZN11LightProbes8TransferI17RemapPPtrTransferEEvRT_
uLj:_Array_InternalArray__ICollection_Add_TisDictionaryEntry_t3123975638_m665385049_gshared
AHg:__ZL57BootConfigData_t3818279794_CustomAttributesCacheGeneratorP21CustomAttributesCache
H4l:_WritableAttribute__ctor_m1991076220
gbh:_MissingMemberException__ctor_m2707802176
zYc:__ZN28ReflectionProbeAnchorManager10InitializeEv
R_l:_Canvas_get_renderMode_m841659411
sWi:_String_Join_m2050845953
d1b:__ZN13MonoBehaviour23VirtualRedirectTransferER19StreamedBinaryWriteILb0EE
qba:__ZN9AudioClip11CreateSoundEv
Kab:__ZN29SerializeTraitsForStringTypesIN4core12basic_stringIcNS0_20StringStorageDefaultIcEEEEE8TransferI24GenerateTypeTreeTransferEEvRS4_RT_
vom:__ZN14dense_hash_mapI10KeyWrapperINSt3__24pairIPK9FieldInfoP11Il2CppClassEEEj17ReflectionMapHashIS8_ENS9_14EqualsComparerINS1_8equal_toIS8_EEEENS1_9allocatorINS2_IKS9_jEEEEEC2EjRKSB_RKSF_
C1:__ZN4core8hash_setINS_4pairIKiiLb0EEENS_9hash_pairINS_4hashIiEES2_iEENS_10equal_pairINSt3__28equal_toIiEES2_iEEE4growEi
B1:__ZN4core8hash_setINS_4pairIKiiLb0EEENS_9hash_pairINS_4hashIiEES2_iEENS_10equal_pairINSt3__28equal_toIiEES2_iEEE4growEv
dxh:_PlayerConnection_GetConnectionNativeApi_m3116196780
Ujm:__ZNK15dense_hashtableINSt3__24pairIK10KeyWrapperINS1_IPK10MethodInfoP11Il2CppClassEEEjEES9_17ReflectionMapHashIS8_EN14dense_hash_mapIS9_jSD_NS9_14EqualsComparerINS0_8equal_toIS8_EEEENS0_9allocatorISB_EEE9SelectKeyESI_SK_E13find_positionERSA_
k4j:_Enumerator_get_Current_m2612064142_AdjustorThunk
x9b:__ZN13GfxDeviceGLES20CreateComputeProgramEPKhj
_Mf:__ZN11UnityEngine7Connect16PersistentValues13RestoreValuesER8JSONRead
jAf:__ZN9Scripting11UnityEngine8Tilemaps8TileData9InitProxyEv
cng:__ZL65RuntimeArray_CustomAttributesCacheGenerator_Array_Sort_m182264525P21CustomAttributesCache
chj:_Guid_BaseToString_m3600006650
bDb:__ZN20ArchiveStorageReader31TryToReadDirectoryFromBlockDataEyPKvj
ASf:_PointerEventData_set_pointerEnter_m3256217464
Y0e:__ZNK5physx2Gu11HeightField17getHeightInternalEff
Jym:__ZN6il2cpp2vmL11GetIdentityEP14Il2CppIUnknown
hcm:__ZN6il2cpp2vm13MetadataCache26GetWindowsRuntimeClassNameEPK11Il2CppClass
ILm:_GC_push_gc_structures
kLi:_TlsServerCertificate_ProcessAsTls1_m819212276
kGe:__ZNK5physx7NpScene22getClientBehaviorFlagsEh
icl:_Dictionary_2_Do_ICollectionCopyTo_TisRuntimeObject_m3942192587_gshared
Hne:__ZN5physx9NpFactory14createMaterialEfff
xVd:__ZNK5physx3Cct13BoxController8getStatsERNS_17PxControllerStatsE
tYg:__ZL139RectTransformUtility_t1743242446_CustomAttributesCacheGenerator_RectTransformUtility_INTERNAL_CALL_RectangleContainsScreenPoint_m1214874141P21CustomAttributesCache
oga:__ZN5physx5cloth11PhaseConfigC2Et
nLb:__Z22GetShaderCachePathGLESv
LFd:__Z19UpdateSingleRow2TplIL27ParticleSystemCurveEvalMode0ELS0_2EEvfRK11MinMaxCurveS3_RK23ParticleSystemParticlesPfbiii
_T:__ZNSt3__26vectorIN13AnimationClip10FloatCurveE13stl_allocatorIS2_L18MemLabelIdentifier26ELi16EEE6resizeEj
zVd:__ZN5physx3Cct13BoxControllerD2Ev
QCi:_Kernel_DwordDivMod_m1540317819
oBk:_CachedInvokableCall_1_Invoke_m931536002_gshared
sDd:__ZN22ParticleSystemRenderer23UpdateVertexInputLayoutEv
WEe:__ZThn8_N5physx2Sc19ShapeInstancePairLLD0Ev
XXe:__ZN5physx19PxcContactSphereBoxERKNS_2Gu13GeometryUnionES3_RKNS_11PxTransformES6_RKfRNS_10PxcNpCacheERNS0_13ContactBufferE
Kpl:_Enumerator_System_Collections_IEnumerator_get_Current_m1399273671_gshared
yGe:__ZNK5physx7NpScene21getBroadPhaseCallbackEh
b6d:__ZN5physx6shdfnd5ArrayIPNS_12PxConstraintENS0_19ReflectionAllocatorIS3_EEE15growAndPushBackERKS3_
g6f:_TypeBuilder_GetPropertyImpl_m3104345782
jjb:__ZNSt3__213__stable_sortIRNS_4lessI4PPtrI11SpriteAtlasEEENS_11__wrap_iterIPS4_EEEEvT0_SA_T_NS_15iterator_traitsISA_E15difference_typeEPNSD_10value_typeEi
skj:_Int64_ToString_m2085073918_AdjustorThunk
Tyi:_Transform_1_Invoke_m4084479750_gshared
ide:__ZNK5physx2Sc15ArticulationSim11checkResizeEv
Z6f:_FieldInfo_GetFieldOffset_m1356898082
d6k:__Z36RuntimeInvoker_Enumerator_t652329154PFvvEPK10MethodInfoPvPS4_
Eoh:_Camera_RaycastTry_m3913529496
dCc:__ZN10BootConfig4Data14InitFromStringEPPKcjS2_
toa:__ZN8keywords6CreateEPKc
CYd:__ZN5physx2Gu11gjkRelativeINS0_8CapsuleVENS0_11ConvexHullVEEEjRKT_RKT0_RKNS_6shdfnd3aos15PsMatTransformVERNSB_5Vec3VESG_SG_RNSB_6FloatVE
F1l:__ZL7log2_32j
Fzh:_Quaternion_Inverse_Injected_m4070500351
S:Math_imul
z0h:_ScrollRect_LateUpdate_m1215231183
sLa:__ZN9Scripting11UnityEngine11ContextMenu9InitProxyEv
Vmk:_Collection_1_System_Collections_IList_get_Item_m3314684800_gshared
s0k:__Z49RuntimeInvoker_Boolean_t97287965_Byte_t1134296376PFvvEPK10MethodInfoPvPS4_
SFd:__Z17UpdateSprites2TplIL27ParticleSystemCurveEvalMode4ELS0_4EEvfRK11MinMaxCurveS3_RK23ParticleSystemParticlesPf
FLi:_TlsServerKeyExchange_Update_m453798279
Heb:__ZN11PlayerPrefs6GetIntERKN4core12basic_stringIcNS0_20StringStorageDefaultIcEEEEi
iIi:_CipherSuiteCollection_System_Collections_IList_IndexOf_m1361500977
p3h:_Text_set_fontStyle_m648756124
azf:__Z45TextGenerator_CUSTOM_INTERNAL_get_rectExtentsP12Il2CppObjectP5RectTIfE
qWk:__Z50RuntimeInvoker_Touch_t1921856868_Int32_t2950945753PFvvEPK10MethodInfoPvPS4_
$0:__ZN9Scripting11UnityEngine18AssetBundleRequest12CleanupProxyEv
Pxj:_DateTime__ctor_m2135476686_AdjustorThunk
Wid:__ZN13GUIStyleState8TransferI8JSONReadEEvRT_
Vjb:__ZN13ScreenManager21SetLockCursorInternalE14CursorLockMode
ckg:_SoapFieldAttribute_IsInteropXmlElement_m2819415462
Zca:__ZN11AudioSource12SetAudioClipEP9AudioClip
gCh:_RectTransform_GetLocalCorners_m823861473
c9i:_SynchronizedArrayListWrapper_GetEnumerator_m1579424644
cBd:__ZN30VelocityModulePropertyBindings13GetFloatValueERK14ParticleSystemi
o_h:_Scrollbar_get_value_m760470106
xef:__ZZN12MeshCollider15InitializeClassEvEN29FunctorImpl_378kDidDeleteMesh4CallEPviR11MessageData
fyk:_Comparison_1_EndInvoke_m2734814639_gshared
qqa:__ZN18ScriptingArguments9AddObjectE18ScriptingObjectPtr
rDf:__Z39CanvasGroup_Get_Custom_PropInteractableP12Il2CppObject
Nga:__ZN11UnityEngine15CloudWebService16SessionContainerD2Ev
BLf:__ZL38InitializeUnityConnectScriptingClassesv
YYl:__ZL25UnresolvedVirtualCall_229P12Il2CppObjectPK10MethodInfo
vwc:__ZN13ProbeRenderer8ConvolveEbijjb
qMl:_GUIUtility_set_systemCopyBuffer_m608712289
Fcc:__ZN17GenericDynamicVBOC2ER9GfxDevice13GfxBufferModejj
ycd:__ZZN10GUIManager14InitGUIManagerEvEN41PreUpdateIMGUISendQueuedEventsRegistrator7ForwardEv
c7h:_ServicePointManager_get_SecurityProtocol_m966397919
BCe:__ZNK5physx2Sc5Scene7isValidEv
Acj:_CCGregorianCalendar_day_from_fixed_m1674702403
fia:__ZN11UnityEngine15CloudWebService17SessionEventQueue10PurgeItemsEj
BIe:__ZN5physx2Sq17SceneQueryManager29setDynamicTreeRebuildRateHintEj
_wc:__ZN6Camera16StandaloneRenderENS_10RenderFlagEP6ShaderRKN4core12basic_stringIcNS3_20StringStorageDefaultIcEEEE
Anb:__ZN19SkinnedMeshRenderer13AwakeFromLoadE17AwakeFromLoadMode
F9h:_X509Chain_PrepareForNextCertificate_m3691934993
eRa:__ZN16LevelGameManager23VirtualRedirectTransferER24GenerateTypeTreeTransfer
nXb:__Z18Transfer_BlittableI18StreamedBinaryReadILb1EELb1EtEvRK29SerializationCommandArgumentsR31RuntimeSerializationCommandInfo
tVg:__ZL58EventType_t3528516131_CustomAttributesCacheGenerator_keyUpP21CustomAttributesCache
iwg:__ZL57X509Certificate_t713131622_CustomAttributesCacheGeneratorP21CustomAttributesCache
Qib:__ZN12BoneWeights48TransferI19StreamedBinaryWriteILb0EEEEvRT_
UGb:__ZN9GfxDevice20DeallocRenderSurfaceEP17RenderSurfaceBase
Zbe:__ZN5physx6shdfnd5ArrayIPvNS0_19ReflectionAllocatorINS_18NpArticulationLinkEEEE4copyINS0_15InlineAllocatorILj256ES5_EEEEvRKNS1_IS2_T_EE
YKb:__ZN20GpuProgramParameters36UpdatePrepareValuesMaximumBufferSizeEv
jUl:_AudioSourceExtension_Stop_m387892536
UVd:__ZNK5physx3Cct10Controller12getKineShapeEv
FOj:_SimpleCollator_GetContraction_m2205549079
GGh:_Vector3__ctor_m1719387948_AdjustorThunk
Crk:_ReadOnlyCollection_1_System_Collections_IList_get_IsReadOnly_m3888539454_gshared
Ixa:__ZN13RuntimeStaticI10WatermarksLb0EE13StaticDestroyEPv
oHi:_CipherSuite_get_EncryptionCipher_m3029637613
q4d:__ZN5physx6shdfnd4sortIPvNS0_4LessIS2_EENS0_19ReflectionAllocatorINS_2Sc18TriggerInteractionEEEEEvPT_jRKT0_RKT1_j
KMj:_Array_InternalArray__ICollection_CopyTo_TisDecimal_t2948259380_m2749946216_gshared
hB:__ZN12PathCorridor25MoveOverOffmeshConnectionEyRK8Vector3fRS0_S3_PK12NavMeshQuery
GMi:_ReceiveRecordAsyncResult_get_ResultingBuffer_m1839161335
MAe:__ZNK5physx2Sc8BodyCore14getMaxAngVelSqEv
fhg:_EnvoyInfo__ctor_m276600651
slf:__ZN20TextRenderingPrivate8FontImpl13CharacterInfo8TransferI18StreamedBinaryReadILb0EEEEvRT_
yUb:__Z29Transfer_Blittable_ArrayFieldI24GenerateTypeTreeTransferfEvRT_R9ArrayInfoRK23StaticTransferFieldInfo
Jwa:__ZNSt3__26__treeINS_12__value_typeIN4core12basic_stringIcNS2_20StringStorageDefaultIcEEEES6_EENS_19__map_value_compareIS6_S7_NS_4lessIS6_EELb1EEE13stl_allocatorIS7_L18MemLabelIdentifier13ELi16EEE7destroyEPNS_11__tree_nodeIS7_PvEE
Yrh:_UnityEvent_FindMethod_Impl_m2312362624
Byc:__ZN19CustomRenderTexture9AddParentE4PPtrIS_E
nPb:__ZN8Gradient8TransferI14SafeBinaryReadEEvRT_
a$f:_FloatTween_AddOnChangedCallback_m2814315272
zFl:_Parser_ParseSpecial_m1961501104
cUi:_Single_System_IConvertible_ToUInt64_m3299129161_AdjustorThunk
K7a:__ZNSt3__26vectorIN4core12basic_stringIcNS1_20StringStorageDefaultIcEEEE13stl_allocatorIS5_L18MemLabelIdentifier1ELi16EEE7reserveEj
sZg:__ZL93CanvasRenderer_t2598313366_CustomAttributesCacheGenerator_CanvasRenderer_set_cull_m4222419074P21CustomAttributesCache
Ddk:_TimerCallback_BeginInvoke_m2250763656
Imf:__ZN20TextRenderingPrivate15DynamicFontData36GetFaceForCharacterIfAvailableInFontERKNS_7FontRefERK13dynamic_arrayI4PPtrIN13TextRendering4FontEELj0EEj
uBi:_ValueCollection_System_Collections_Generic_ICollectionU3CTValueU3E_Contains_m3110959791_gshared
J6h:_IPv6Address_AsIPv4Int_m844941024
jOc:__Z43PlayerConnectionInternal_CUSTOM_IsConnectedv
pwb:__ZN18IDCollectorFunctorD0Ev
WYe:__ZN5physx2Gu32PCMConvexVsMeshContactGeneration15processTriangleEPKNS_6PxVec3EjhPKj
eMi:_RecordProtocol__cctor_m1280873827
d9j:_StringBuilder__ctor_m3504405255
odg:_Marshal__cctor_m4007734770
CKm:_GC_new_free_list_inner
zUj:_SymmetricTransform_Random_m2004892672
nSk:__Z79RuntimeInvoker_Void_t1185182177_RuntimeObject_Byte_t1134296376_Byte_t1134296376PFvvEPK10MethodInfoPvPS4_
GFi:_EncryptedPrivateKeyInfo_get_IterationCount_m2912222740
hKm:_GC_err_printf
EQf:__ZN9Scripting11UnityEngine2XR13InputTracking12CleanupProxyEv
z0e:__ZN5physx6shdfnd5ArrayINS_2Cm8Matrix34ENS0_19ReflectionAllocatorIS3_EEE15growAndPushBackERKS3_
dGi:_RSAManaged_DecryptValue_m1804388365
bZe:__ZN5physx2Gu32PCMConvexVsMeshContactGeneration31generatePolyDataContactManifoldERNS0_9TriangleVEjjhPNS0_21MeshPersistentContactERjRKNS_6shdfnd3aos6FloatVERNS8_5Vec3VE
dgi:_InternalEnumerator_1_System_Collections_IEnumerator_get_Current_m2980550840_AdjustorThunk
Ccf:__ZN5physx10SubSortSAH5splitEPjj
ZR:__ZN25RuntimeAnimatorController8TransferI14SafeBinaryReadEEvRT_
Xid:__ZN8JSONRead8TransferI10RectOffsetEEvRT_PKc17TransferMetaFlagsb
Hzm:__ZNK15dense_hashtableINSt3__24pairIK10KeyWrapperINS1_IPKcS4_EEEiEES6_24NamespaceAndNamePairHashN14dense_hash_mapIS6_iS9_NS6_14EqualsComparerI26NamespaceAndNamePairEqualsEENS0_9allocatorIS8_EEE9SelectKeyESD_SF_E12test_deletedERK24dense_hashtable_iteratorIS8_S6_S9_SH_SD_SF_E
Qha:__ZN9JSONWrite8TransferIN11UnityEngine15CloudWebService14DataErrorEvent15FileErrorDetailEEEvRT_PKc17TransferMetaFlags
jvl:_Collection_1_ClearItems_m2728738230_gshared
eik:_UInt32_System_IConvertible_ToUInt64_m1094958903
ijj:_Int32_Parse_m2087562008
pSa:__Z21ClearFenceWithoutSyncR8JobFence
NTj:_PrivateKeyInfo__ctor_m2414235375
bQd:__ZN5physx2Gu3EPA8addFacetEjjjRKNS_6shdfnd3aos6FloatVES6_
uod:__ZN14RotationModule8TransferI17RemapPPtrTransferEEvRT_
X9f:_MonoProperty_GetAccessors_m412928203
wFk:_TweenRunner_1_Start_m3757154622_gshared
X4:__ZN12SoundManager20RegisterModifiedClipEP10SampleClip
JIh:_RemotingServices_GetClientChannelSinkChain_m1499550585
igh:_Assembly_FillName_m1660001542
Epb:__ZN12MeshRenderer15AddAsRenderNodeER15RenderNodeQueueRK20DeprecatedSourceData
Rtg:__ZL56_EventBuilder_t2558055199_CustomAttributesCacheGeneratorP21CustomAttributesCache
B$h:_ScrollRect_get_decelerationRate_m74583805
pPi:_SHA384Managed_processBlock_m1272529332
h9:__ZN11AudioSource4PlayEd
M6i:_Char_ToString_m278452217_AdjustorThunk
a1d:__ZN5physx3Cct9CCTParamsC2Ev
c9l:__ZN15dense_hashtableI10KeyWrapperIPK17Il2CppGenericInstES4_N6il2cpp8metadata21Il2CppGenericInstHashEN14dense_hash_setIS4_S7_NS4_14EqualsComparerINS6_24Il2CppGenericInstCompareEEENSt3__29allocatorIS4_EEE8IdentityESB_SE_E13set_empty_keyERKS4_
oHk:__Z63RuntimeInvoker_Char_t3634460470_Int16_t2552820387_RuntimeObjectPFvvEPK10MethodInfoPvPS4_
Huj:_Convert_ToDouble_m2924063577
yqe:__ZN5physx7NpCloth21setStiffnessFrequencyEf
YAb:__ZNK20LocalFileSystemPosix8IsHiddenERK13FileEntryData
yRe:__ZN5physx17PxcSweepBoxConvexERKNS_11PxsCCDShapeES2_PKNS_12PxsRigidBodyES5_RKNS_11PxTransformES8_S8_S8_fRNS_6PxVec3ESA_RNS_10PxcNpCacheERNS_18PxcNpThreadContextEf
hwa:__Z17GetCoreModuleSpecv
R8e:__ZThn8_N5physx2Gu11HeightField14onRefCountZeroEv
K3d:__ZN5physx2Sc5Actor9setActiveEbj
aqi:_InternalEnumerator_1_System_Collections_IEnumerator_Reset_m1601477281_AdjustorThunk
rYd:__ZN12_GLOBAL__N_127SphereMeshContactGeneration15processTriangleEjRKN5physx6PxVec3ES4_S4_PKj
oZg:__ZL113CanvasRenderer_t2598313366_CustomAttributesCacheGenerator_CanvasRenderer_SplitUIVertexStreamsInternal_m3280623346P21CustomAttributesCache
Lbb:__ZN7Cubemap23VirtualRedirectTransferER18StreamedBinaryReadILb0EE
hwi:_Enumerator_MoveNext_m76191888_AdjustorThunk
Gpi:_InternalEnumerator_1__ctor_m1739091604_gshared
dyd:__Z25UpdateOrbitalAndRadialTplIL27ParticleSystemCurveEvalMode0ELS0_0ELS0_0EEvRK11MinMaxCurveS3_S3_S3_S3_S3_S3_R23ParticleSystemParticlesjjRKN4math8float3x3ERKNS6_7affineXERKNS6_7_float4E
dwf:_Read_CVT
e4d:__ZN5physx2Sc10NPhaseCore28reserveContactReportPairDataEjjRj
rQd:__ZN5physx2Gu22barycentricCoordinatesERKNS_6shdfnd3aos5Vec3VES5_S5_RNS2_6FloatVE
oDb:__ZN12FileAccessor4SeekEx10FileOrigin
FD:__ZN9Scripting11UnityEngine25RuntimeAnimatorController12CleanupProxyEv
lTb:__ZL26Transfer_SimpleNativeClassI24GenerateTypeTreeTransfer17AnimationCurveTplIfELb0EEvRK29SerializationCommandArgumentsR31RuntimeSerializationCommandInfo
Ytj:_Convert_ToDecimal_m1783778724
Exi:_ShimEnumerator_get_Value_m153531060_gshared
Vcj:_DateTimeFormatInfo__ctor_m3106345035
_Ii:_TlsServerKeyExchange_verifySignature_m3412856769
Tv:__ZN14NavMeshManager11ReplaceTileEiiPhi
A_j:_EqualityComparer_1_System_Collections_IEqualityComparer_GetHashCode_m4137147946_gshared
Yrd:__Z9UpdateTplIL27ParticleSystemCurveEvalMode2EEvRK11MinMaxCurveR23ParticleSystemParticlesjjbjRK8Vector2f
Wul:_Collection_1_System_Collections_ICollection_CopyTo_m5285659_gshared
Mxa:__ZN16LightmapSettings20DidChangeActiveSceneEP10UnitySceneS1_
OUb:__Z18Transfer_BlittableI19StreamedBinaryWriteILb0EELb0EN4math12int3_storageEEvRK29SerializationCommandArgumentsR31RuntimeSerializationCommandInfo
j7g:__ZL59g_AssemblyU2DCSharp_Assembly_CustomAttributesCacheGeneratorP21CustomAttributesCache
Pgm:__ZN6il2cpp5utils9PathUtils8BasenameIcEENSt3__212basic_stringIT_NS3_11char_traitsIS5_EENS3_9allocatorIS5_EEEERKSA_
t7:__ZN10AudioMixer11SetupGroupsEv
umm:__ZN6il2cpp2vmL16IsGenericCMethodEP12Il2CppObject
iE:__ZN9Scripting11UnityEngine10Animations21AnimationClipPlayable9InitProxyEv
Bad:__Z35Register_UnityEngine_Event_get_typev
pIa:__ZN9Scripting11UnityEngine9Rendering18GraphicsDeviceType12CleanupProxyEv
pwm:__ZN6il2cpp2vm9Exception23GetInvalidCastExceptionERKNS_5utils10StringViewIDsEE
T2g:__ZL64Scrollbar_t1494447233_CustomAttributesCacheGenerator_m_DirectionP21CustomAttributesCache
T_m:_emscripten_glDepthRange__wrapper
B7e:__ZNK5physx13GuMeshFactory17getNbConvexMeshesEv
Oug:__ZL48Header_t549724581_CustomAttributesCacheGeneratorP21CustomAttributesCache
mDd:__ZN14ParticleSystem15InitializeClassEv
Du:__ZNSt3__26vectorI14HeightMeshData13stl_allocatorIS1_L18MemLabelIdentifier77ELi16EEE10deallocateEv
qra:__Z63ThreadAndSerializationSafeCheckGetMonoBehaviourBeingTransferredv
uJa:__ZN9Scripting11UnityEngine12LightmapData9InitProxyEv
ohl:_List_1_set_Item_m4224739467_gshared
sJk:__Z74RuntimeInvoker_Int32_t2950945753_RuntimeObject_RuntimeObject_RuntimeObjectPFvvEPK10MethodInfoPvPS4_
sih:_ConstructorBuilder_get_Name_m2426555260
eRc:__Z37Register_UnityEngine_Input_GetAxisRawv
K7g:__ZL107U3CStartU3Ec__Iterator0_t412322436_CustomAttributesCacheGenerator_U3CStartU3Ec__Iterator0_Reset_m3177155934P21CustomAttributesCache
zDg:__ZL80ModulusRing_t596511505_CustomAttributesCacheGenerator_ModulusRing_Pow_m729002192P21CustomAttributesCache
rKa:__ZN9Scripting11UnityEngine12Experimental10PlayerLoop6Update12CleanupProxyEv
AFl:_Parser_ParseCharacterClass_m4285351396
$vj:_Convert_ToSByte_m2653418303
nqj:_SyncHashtable__ctor_m2449935938
xId:__ZN17CallbackArrayBaseIPFvRKN4core12basic_stringIcNS0_20StringStorageDefaultIcEEEER8JSONReadbEPFvPKvS6_S8_bEE8RegisterESA_SE_SC_
W8:__ZN11AudioSource5ResetEv
BOi:_RSAPKCS1SignatureFormatter_SetKey_m2935054088
Llc:__ZN12ImageFilters27SetSurfaceUseResolvedBufferEP13RenderTextureb
nQh:_HashAlgorithm_TransformBlock_m4006041779
Dz:__ZN12NavMeshQuery22FinalizeSlicedFindPathEPi
p9a:__ZN14Texture2DArray23VirtualRedirectTransferER18StreamedBinaryReadILb0EE
Tak:_UTF7Encoding_GetByteCount_m209415911
jyb:__ZN2UI13RectTransform13AwakeFromLoadE17AwakeFromLoadMode
gIl:_RegularExpression_Compile_m2385682508
KCh:_ResourceRequest_t3109103591_marshal_pinvoke_back
j2e:__ZN5physx23PxsSolverSetupSolveTaskD2Ev
frc:__ZN14qsort_internal30FindAndMovePivotToLastPositionIP20ShadowCasterSortDatai26ShadowCasterSortDataSorterEEvT_S4_T0_T1_
rvg:__ZL60IRemotingTypeInfo_t2222593263_CustomAttributesCacheGeneratorP21CustomAttributesCache
IMb:__Z18Transfer_BlittableI14SafeBinaryReadLb1EiEvRK29SerializationCommandArgumentsR31RuntimeSerializationCommandInfo
L9h:_X509ExtensionEnumerator_get_Current_m256207749
MTh:_InputField_MoveTextStart_m1087475594
VAk:_Predicate_1__ctor_m3829092036_gshared
ZYg:__ZL97CanvasGroup_t4083511760_CustomAttributesCacheGenerator_CanvasGroup_get_blocksRaycasts_m1805542303P21CustomAttributesCache
Jbj:_EventArgs__cctor_m1889823314
S2i:_Array_Sort_m182264525
cWh:_LayoutGroup_set_padding_m282562135
_1e:__ZN5physx6shdfnd5ArrayINS_13PxcSolverBodyENS0_16AlignedAllocatorILj128ENS0_19ReflectionAllocatorIS2_EEEEE6resizeEjRKS2_
KVc:__ZN26SkinnedMeshRendererManager33HandleInvalidationRendererChangesEPK15TransformAccessj
ahh:_Default_IsArrayAssignable_m953489228
KQ:__ZNK4PPtrI8RendererEcvPS0_Ev
arm:_il2cpp_field_get_offset
yhk:_UInt16_ToString_m355311020_AdjustorThunk
Lke:__ZN18MultiQueryCallbackIN5physx12PxOverlapHitEE6invokeERfPKNS0_2Sq13PrunerPayloadEj
dCk:_InvokableCall_1_remove_Delegate_m667188944_gshared
USd:__ZN5physx2Gu18gjkRelativeRayCastINS0_4BoxVES2_NS0_10ShrunkBoxVES3_EEbRT_RT0_RKNS_6shdfnd3aos15PsMatTransformVERKNS9_6FloatVERKNS9_5Vec3VESI_RSD_RSG_SK_fb
$gg:_SynchronizedClientContextSink__ctor_m4129963630
fl:_glGetStringi
LXi:_DecoderExceptionFallback_CreateFallbackBuffer_m1133375601
WAm:__ZNK15dense_hashtableI10KeyWrapperIP18Il2CppGenericClassES3_N6il2cpp8metadata22Il2CppGenericClassHashEN14dense_hash_setIS3_S6_NS3_14EqualsComparerINS5_25Il2CppGenericClassCompareEEENSt3__29allocatorIS3_EEE8IdentityESA_SD_E10test_emptyERK30dense_hashtable_const_iteratorIS3_S3_S6_SF_SA_SD_E
Hui:_Enumerator_get_CurrentKey_m889650866_gshared
fve:__ZN5physx22NpParticleBaseTemplateINS_15PxParticleFluidENS_15NpParticleFluidEE14setRestitutionEf
XXg:__ZL97Physics_t2310948930_CustomAttributesCacheGenerator_Physics_RaycastAll_m3611981381____maxDistance1P21CustomAttributesCache
n3l:_Physics_Raycast_m3133704280
h8e:__ZThn8_N5physx2Gu10ConvexMeshD0Ev
QUj:_EncryptedData_get_EncryptionAlgorithm_m1297902161
AMh:_SerializationEntry__ctor_m1411687997_AdjustorThunk
ZN:__ZN8Animator9WriteStepEy
jUa:__ZN9Coroutine16SetCurrentMethodE18ScriptingMethodPtr
Bia:__ZN11UnityEngine15CloudWebService20WebRequestRestClient18GetResponseHeadersEv
x0c:__ZN16PropertyAccessorC2Ev
LXb:__Z35Transfer_Blittable_FixedBufferFieldI18StreamedBinaryReadILb1EEaEvRK29SerializationCommandArgumentsR31RuntimeSerializationCommandInfo
S2g:__ZL65Scrollbar_t1494447233_CustomAttributesCacheGenerator_m_HandleRectP21CustomAttributesCache
Ejb:__ZN13ScreenManager16SetScreenTimeoutEi
ORb:__Z18Transfer_BlittableI17RemapPPtrTransferLb0EdEvRK29SerializationCommandArgumentsR31RuntimeSerializationCommandInfo
xJg:__ZL104MonoBehaviour_t3962482529_CustomAttributesCacheGenerator_MonoBehaviour_IsObjectMonoBehaviour_m2134950949P21CustomAttributesCache
Nsl:_Collection_1_ConvertItem_m1743542180_gshared
hzf:__Z38Register_UnityEngine_Font_HasCharacterv
hpa:__ZN13RuntimeStaticINSt3__26vectorIN4core12basic_stringIcNS2_20StringStorageDefaultIcEEEENS0_9allocatorIS6_EEEELb0EE13StaticDestroyEPv
K5k:__Z68RuntimeInvoker_Boolean_t97287965_Int16_t2552820387_Int16_t2552820387PFvvEPK10MethodInfoPvPS4_
uvc:__Z35IntersectSpherePlaneBoundsOptimizedRKN4math7_float4EPS1_i
INi:_RNGCryptoServiceProvider__cctor_m3587754670
d2d:__ZN5physx2Sc8ShapeSim20createLowLevelVolumeEjRKNS_9PxBounds3EjNS_9AABBMgrIdE
Eki:_InternalEnumerator_1_MoveNext_m1728532725_AdjustorThunk
Mva:__ZN17TransformInternal21DetachTransformThreadER18TransformHierarchyjj
GCl:_X509Crl_get_IssuerName_m1792797338
qgl:_List_1_get_Count_m241572196_gshared
xBd:__ZN37InheritVelocityModulePropertyBindings13GetFloatValueERK14ParticleSystemi
tDm:__ZN6il2cpp2os5posix15PosixWaitObject13InterruptWaitEv
Dqe:__ZNK5physx7NpCloth22getAngularInertiaScaleEv
FW:__ZN7mecanim6memory16ChainedAllocator10DeallocateEPv
KZd:__ZN26IntersectAnyVsMeshCallbackILi1ELb1EE10processHitERKN5physx12PxRaycastHitERKNS1_6PxVec3ES7_S7_RfPKj
rxa:__Z22CleanupLODGroupManagerPv
VJe:__ZN5physx6shdfnd5ArrayINS_2Sc5Scene14SimpleBodyPairENS0_19ReflectionAllocatorIS4_EEE8recreateEj
Ql:_glUniform3fv
zQm:__ZNK6il2cpp8metadata24Il2CppGenericInstCompareclERK10KeyWrapperIPK17Il2CppGenericInstES8_
eai:_X509ChainElement_Set_m655180762
$1l:_CustomEventData_AddInt32_m548429697
S2c:__ZNK8Gradient19InitializeOptimizedER17OptimizedGradient
Pzh:_Quaternion_GetHashCode_m2636680144
Jpc:__ZNK16LightmapSettings31GetRealtimeLightmapDecodeValuesEv
c7:__ZN5audio5mixer12SetSuspendedERNS0_16AudioMixerMemoryEb
txb:__ZN17PersistentManager21UnloadNonDirtyStreamsEv
mNd:__ZN8Collider12ScaleChangedEv
rOk:__Z96RuntimeInvoker_Int32_t2950945753_RuntimeObject_Int32_t2950945753_RuntimeObject_Int32_t2950945753PFvvEPK10MethodInfoPvPS4_
hQl:_AnalyticsEventTracker_OnEnable_m1121905268
HIl:_Uri_get_Parser_m3737125102
__l:_Canvas_get_overrideSorting_m2740418462
iqh:_Debug_LogFormat_m309087137
$4i:_Byte_System_IConvertible_ToInt16_m4136764794_AdjustorThunk
Fkb:__ZN12ImageFilters4BlitER17ShaderPassContextP7TextureP13RenderTextureiPK18SharedMaterialDataPKcP6ShaderiNS_9BlitFlagsE11CubemapFaceRK8Vector2fSH_
Egf:__ZN5physx6shdfnd8PoolBaseINS_24NpPtrTableStorageManager8PtrBlockILi4EEENS0_19ReflectionAllocatorIS4_EEE12allocateSlabEv
xDl:_Mark_get_Index_m3048692661
p4g:__ZL69CanvasScaler_t2767979955_CustomAttributesCacheGenerator_m_ScaleFactorP21CustomAttributesCache
CMg:__ZL134ISerializationCallbackReceiver_t2363941153_CustomAttributesCacheGenerator_ISerializationCallbackReceiver_OnAfterDeserialize_m735003409P21CustomAttributesCache
pia:__ZN11UnityEngine15CloudWebService10RestClientINS0_23WebRequestRestHeaderMapEED2Ev
j5e:__ZN5physx2Sc5Scene13ccdBroadPhaseEPNS_10PxBaseTaskE
lm:_emscripten_glDepthMask
YYe:__ZN5physx2Gu24PCMMeshContactGeneration15processContactsEhb
OJh:_RemotingServices_CreateClientProxy_m3886727610
Xcb:__ZN4crnd25static_huffman_data_model22prepare_decoder_tablesEv
oqe:__ZN5physx7NpCloth12setParticlesEPKNS_15PxClothParticleES3_
Hdb:__ZN9Texture2D23VirtualRedirectTransferER17RemapPPtrTransfer
Mgf:__ZN5physx7profile8ZoneImplINS_28PxProfileNameProviderForwardEE9doAddNameEPKctb
jMi:_RecordProtocol_GetMessage_m2086135164
Cy:__ZNSt3__27__sort5IR17DetailNodeYSorterP16DetailMeshBVNodeEEjT0_S5_S5_S5_S5_T_
XZb:__Z18Transfer_BlittableI18StreamedBinaryReadILb0EELb0E10ColorRGBAfEvRK29SerializationCommandArgumentsR31RuntimeSerializationCommandInfo
Rxa:__Znaj
C5m:_emscripten_glEnableClientState__wrapper
